---
triple:          'arm64-apple-darwin'
binary-path:     program
relocations:
  - { offsetInCU: 0x45, offset: 0x45, size: 0x8, addend: 0x0, symName: __ZN5boost12_GLOBAL__N_17extentsE, symObjAddr: 0x2335D8, symBinAddr: 0x10009C010, symSize: 0x0 }
  - { offsetInCU: 0x5E, offset: 0x5E, size: 0x8, addend: 0x0, symName: __ZN5boost12_GLOBAL__N_17indicesE, symObjAddr: 0x2335E8, symBinAddr: 0x10009C020, symSize: 0x0 }
  - { offsetInCU: 0x596, offset: 0x596, size: 0x8, addend: 0x0, symName: __ZN5boost6detailL28make_color_map_from_arg_packE, symObjAddr: 0x23360C, symBinAddr: 0x10009C044, symSize: 0x0 }
  - { offsetInCU: 0x11E7, offset: 0x11E7, size: 0x8, addend: 0x0, symName: __ZN5boost11optional_nsL13in_place_initE, symObjAddr: 0x233608, symBinAddr: 0x10009C040, symSize: 0x0 }
  - { offsetInCU: 0x1225, offset: 0x1225, size: 0x8, addend: 0x0, symName: __ZN5boost11optional_nsL16in_place_init_ifE, symObjAddr: 0x233609, symBinAddr: 0x10009C041, symSize: 0x0 }
  - { offsetInCU: 0x2EE5, offset: 0x2EE5, size: 0x8, addend: 0x0, symName: __ZN5boost9iteratorsneINS_6detail20undirected_edge_iterINSt3__115__list_iteratorINS_9list_edgeIm8EdgeDataEEPvEENS2_14edge_desc_implINS_17bidirectional_tagEmEElEESD_NS0_27bidirectional_traversal_tagESD_lSE_SD_SF_SD_lEENS0_6detail23enable_if_interoperableIT_T4_NS_3mpl6apply2INSG_12always_bool2ESI_SJ_E4typeEE4typeERKNS0_15iterator_facadeISI_T0_T1_T2_T3_EERKNSR_ISJ_T5_T6_T7_T8_EE, symObjAddr: 0x25D18, symBinAddr: 0x100028C0C, symSize: 0x4C }
  - { offsetInCU: 0x2F7C, offset: 0x2F7C, size: 0x8, addend: 0x0, symName: __ZN5boost9iteratorsmiINS_12range_detail16integer_iteratorImEEmNS0_27random_access_traversal_tagEmlS4_mS5_mlEENS0_6detail51enable_if_interoperable_and_random_access_traversalIT_T4_NS_3mpl6apply2INS6_22choose_difference_typeES8_S9_E4typeEE4typeERKNS0_15iterator_facadeIS8_T0_T1_T2_T3_EERKNSH_IS9_T5_T6_T7_T8_EE, symObjAddr: 0x261C0, symBinAddr: 0x1000290B4, symSize: 0x44 }
  - { offsetInCU: 0x3B03, offset: 0x3B03, size: 0x8, addend: 0x0, symName: __ZN5boost5edgesINS_6detail12adj_list_genINS_14adjacency_listINS_4vecSES4_NS_14bidirectionalSE7Monomer8EdgeDataNS_11no_propertyENS_5listSEEES4_S4_S5_S6_S7_S8_S9_E6configEEENSt3__14pairINT_13edge_iteratorESG_EERKNS_26bidirectional_graph_helperISF_EE, symObjAddr: 0x25C20, symBinAddr: 0x100028B14, symSize: 0x80 }
  - { offsetInCU: 0x3D1D, offset: 0x3D1D, size: 0x8, addend: 0x0, symName: __ZN5boost14checked_deleteINS_11no_propertyEEEvPT_, symObjAddr: 0x22314, symBinAddr: 0x100025208, symSize: 0x40 }
  - { offsetInCU: 0x3D4E, offset: 0x3D4E, size: 0x8, addend: 0x0, symName: __ZN5boost12num_verticesINS_6detail12adj_list_genINS_14adjacency_listINS_4vecSES4_NS_14bidirectionalSE7Monomer8EdgeDataNS_11no_propertyENS_5listSEEES4_S4_S5_S6_S7_S8_S9_E6configENS_40bidirectional_graph_helper_with_propertyISC_EEEENT_18vertices_size_typeERKNS_15adj_list_helperISF_T0_EE, symObjAddr: 0x25A84, symBinAddr: 0x100028978, symSize: 0x40 }
  - { offsetInCU: 0x3DA9, offset: 0x3DA9, size: 0x8, addend: 0x0, symName: __ZN5boost10add_vertexINS_14adjacency_listINS_4vecSES2_NS_14bidirectionalSE7Monomer8EdgeDataNS_11no_propertyENS_5listSEEENS_6detail12adj_list_genIS8_S2_S2_S3_S4_S5_S6_S7_E6configENS_40bidirectional_graph_helper_with_propertyISC_EEEENT0_17vertex_descriptorERNS_17vec_adj_list_implIT_SF_T1_EE, symObjAddr: 0x25AC4, symBinAddr: 0x1000289B8, symSize: 0x7C }
  - { offsetInCU: 0x3E06, offset: 0x3E06, size: 0x8, addend: 0x0, symName: __ZN5boost6tuples3tieINS_6detail20undirected_edge_iterINSt3__115__list_iteratorINS_9list_edgeIm8EdgeDataEEPvEENS2_14edge_desc_implINS_17bidirectional_tagEmEElEESE_EENS0_6detail10tie_mapperIT_T0_vvvvvvvvE4typeERSH_RSI_, symObjAddr: 0x25CA0, symBinAddr: 0x100028B94, symSize: 0x40 }
  - { offsetInCU: 0x4293, offset: 0x4293, size: 0x8, addend: 0x0, symName: __ZN5boost6tuples6detail5cnullEv, symObjAddr: 0x29CD4, symBinAddr: 0x10002CBC8, symSize: 0x4 }
  - { offsetInCU: 0x47E4, offset: 0x47E4, size: 0x8, addend: 0x0, symName: __ZN5boost6tuples3tieINS_6detail14edge_desc_implINS_17bidirectional_tagEmEEbEENS0_6detail10tie_mapperIT_T0_vvvvvvvvE4typeERS8_RS9_, symObjAddr: 0x25E70, symBinAddr: 0x100028D64, symSize: 0x40 }
  - { offsetInCU: 0x4E16, offset: 0x4E16, size: 0x8, addend: 0x0, symName: __ZN5boost6tuples3tieINSt3__111__wrap_iterIPNS_6detail16stored_edge_iterImNS2_15__list_iteratorINS_9list_edgeIm8EdgeDataEEPvEES8_EEEEbEENS0_6detail10tie_mapperIT_T0_vvvvvvvvE4typeERSH_RSI_, symObjAddr: 0x2A57C, symBinAddr: 0x10002D470, symSize: 0x40 }
  - { offsetInCU: 0x529F, offset: 0x529F, size: 0x8, addend: 0x0, symName: __ZN5boost8add_edgeINS_14adjacency_listINS_4vecSES2_NS_14bidirectionalSE7Monomer8EdgeDataNS_11no_propertyENS_5listSEEENS_6detail12adj_list_genIS8_S2_S2_S3_S4_S5_S6_S7_E6configENS_40bidirectional_graph_helper_with_propertyISC_EEEENSt3__14pairINT0_15edge_descriptorEbEENSH_17vertex_descriptorESK_RNS_17vec_adj_list_implIT_SH_T1_EE, symObjAddr: 0x25D90, symBinAddr: 0x100028C84, symSize: 0x78 }
  - { offsetInCU: 0x5315, offset: 0x5315, size: 0x8, addend: 0x0, symName: __ZN5boost6sourceINS_17bidirectional_tagEmNS_4vecSES2_NS_14bidirectionalSE7Monomer8EdgeDataNS_11no_propertyENS_5listSEEET0_RKNS_6detail9edge_baseIT_S8_EERKNS_14adjacency_listIT1_T2_T3_T4_T5_T6_T7_EE, symObjAddr: 0x25E08, symBinAddr: 0x100028CFC, symSize: 0x1C }
  - { offsetInCU: 0x539F, offset: 0x539F, size: 0x8, addend: 0x0, symName: __ZN5boost6targetINS_17bidirectional_tagEmNS_4vecSES2_NS_14bidirectionalSE7Monomer8EdgeDataNS_11no_propertyENS_5listSEEET0_RKNS_6detail9edge_baseIT_S8_EERKNS_14adjacency_listIT1_T2_T3_T4_T5_T6_T7_EE, symObjAddr: 0x25E54, symBinAddr: 0x100028D48, symSize: 0x1C }
  - { offsetInCU: 0x5429, offset: 0x5429, size: 0x8, addend: 0x0, symName: __ZN5boost8add_edgeINS_14adjacency_listINS_4vecSES2_NS_14bidirectionalSE7Monomer8EdgeDataNS_11no_propertyENS_5listSEEENS_6detail12adj_list_genIS8_S2_S2_S3_S4_S5_S6_S7_E6configENS_40bidirectional_graph_helper_with_propertyISC_EEEENSt3__14pairINT0_15edge_descriptorEbEENSH_17vertex_descriptorESK_RKNSH_18edge_property_typeERNS_17vec_adj_list_implIT_SH_T1_EE, symObjAddr: 0x29FD8, symBinAddr: 0x10002CECC, symSize: 0xA4 }
  - { offsetInCU: 0x54BD, offset: 0x54BD, size: 0x8, addend: 0x0, symName: __ZN5boost8add_edgeINS_6detail12adj_list_genINS_14adjacency_listINS_4vecSES4_NS_14bidirectionalSE7Monomer8EdgeDataNS_11no_propertyENS_5listSEEES4_S4_S5_S6_S7_S8_S9_E6configEEENSt3__14pairINT_15edge_descriptorEbEENSF_17vertex_descriptorESI_RKNSF_18edge_property_typeERNS_40bidirectional_graph_helper_with_propertyISF_EE, symObjAddr: 0x2A0A8, symBinAddr: 0x10002CF9C, symSize: 0x2F8 }
  - { offsetInCU: 0x5580, offset: 0x5580, size: 0x8, addend: 0x0, symName: __ZN5boost12graph_detail4pushINSt3__14listINS_9list_edgeIm8EdgeDataEENS2_9allocatorIS6_EEEERS6_EENS2_4pairINT_8iteratorEbEERSC_OT0_, symObjAddr: 0x2A3E4, symBinAddr: 0x10002D2D8, symSize: 0x7C }
  - { offsetInCU: 0x55CF, offset: 0x55CF, size: 0x8, addend: 0x0, symName: __ZN5boost12graph_detail4pushINSt3__16vectorINS_6detail16stored_edge_iterImNS2_15__list_iteratorINS_9list_edgeIm8EdgeDataEEPvEES8_EENS2_9allocatorISC_EEEESC_EENS2_4pairINT_8iteratorEbEERSH_OT0_, symObjAddr: 0x2A48C, symBinAddr: 0x10002D380, symSize: 0x7C }
  - { offsetInCU: 0x561E, offset: 0x561E, size: 0x8, addend: 0x0, symName: __ZN5boost12graph_detail13push_dispatchINSt3__14listINS_9list_edgeIm8EdgeDataEENS2_9allocatorIS6_EEEERS6_EENS2_4pairINT_8iteratorEbEERSC_OT0_NS0_27back_insertion_sequence_tagE, symObjAddr: 0x2A8F0, symBinAddr: 0x10002D7E4, symSize: 0x70 }
  - { offsetInCU: 0x5679, offset: 0x5679, size: 0x8, addend: 0x0, symName: __ZN5boost12graph_detail18container_categoryINS_9list_edgeIm8EdgeDataEENSt3__19allocatorIS4_EEEENS0_8list_tagERKNS5_4listIT_T0_EE, symObjAddr: 0x2A960, symBinAddr: 0x10002D854, symSize: 0x3C }
  - { offsetInCU: 0x57C7, offset: 0x57C7, size: 0x8, addend: 0x0, symName: __ZN5boost12graph_detail13push_dispatchINSt3__16vectorINS_6detail16stored_edge_iterImNS2_15__list_iteratorINS_9list_edgeIm8EdgeDataEEPvEES8_EENS2_9allocatorISC_EEEESC_EENS2_4pairINT_8iteratorEbEERSH_OT0_NS0_27back_insertion_sequence_tagE, symObjAddr: 0x2B4C4, symBinAddr: 0x10002E3B8, symSize: 0x70 }
  - { offsetInCU: 0x5822, offset: 0x5822, size: 0x8, addend: 0x0, symName: __ZN5boost12graph_detail18container_categoryINS_6detail16stored_edge_iterImNSt3__115__list_iteratorINS_9list_edgeIm8EdgeDataEEPvEES7_EENS4_9allocatorISB_EEEENS0_10vector_tagERKNS4_6vectorIT_T0_EE, symObjAddr: 0x2B534, symBinAddr: 0x10002E428, symSize: 0x3C }
  - { offsetInCU: 0x58B9, offset: 0x58B9, size: 0x8, addend: 0x0, symName: __ZN5boost12in_edge_listINS_14adjacency_listINS_4vecSES2_NS_14bidirectionalSE7Monomer8EdgeDataNS_11no_propertyENS_5listSEEENS_6detail12adj_list_genIS8_S2_S2_S3_S4_S5_S6_S7_E6configENS_40bidirectional_graph_helper_with_propertyISC_EEEERNT0_10InEdgeListERNS_17vec_adj_list_implIT_SF_T1_EENSF_17vertex_descriptorE, symObjAddr: 0x2A5F8, symBinAddr: 0x10002D4EC, symSize: 0x34 }
  - { offsetInCU: 0x5911, offset: 0x5911, size: 0x8, addend: 0x0, symName: __ZN5boost5priorINSt3__115__list_iteratorINS_9list_edgeIm8EdgeDataEEPvEEEET_S8_, symObjAddr: 0x2AB60, symBinAddr: 0x10002DA54, symSize: 0x34 }
  - { offsetInCU: 0x5946, offset: 0x5946, size: 0x8, addend: 0x0, symName: __ZN5boost5priorINSt3__111__wrap_iterIPNS_6detail16stored_edge_iterImNS1_15__list_iteratorINS_9list_edgeIm8EdgeDataEEPvEES7_EEEEEET_SE_, symObjAddr: 0x2B614, symBinAddr: 0x10002E508, symSize: 0x34 }
  - { offsetInCU: 0x5A88, offset: 0x5A88, size: 0x8, addend: 0x0, symName: __ZNSt3__1L19piecewise_constructE, symObjAddr: 0x3FF30, symBinAddr: 0x10008C398, symSize: 0x0 }
  - { offsetInCU: 0xF072, offset: 0xF072, size: 0x8, addend: 0x0, symName: __ZNSt3__17advanceB8ue170006INS_21__tree_const_iteratorINS_12__value_typeINS_12basic_stringIcNS_11char_traitsIcEENS_9allocatorIcEEEE7MonomerEEPNS_11__tree_nodeISA_PvEElEEllvEEvRT_T0_, symObjAddr: 0x177A8, symBinAddr: 0x10001A69C, symSize: 0x38 }
  - { offsetInCU: 0x11CFF, offset: 0x11CFF, size: 0x8, addend: 0x0, symName: __ZNSt3__17advanceB8ue170006INS_21__tree_const_iteratorINS_12__value_typeINS_12basic_stringIcNS_11char_traitsIcEENS_9allocatorIcEEEENS_6vectorIS8_NS6_IS8_EEEEEEPNS_11__tree_nodeISC_PvEElEEllvEEvRT_T0_, symObjAddr: 0x19C44, symBinAddr: 0x10001CB38, symSize: 0x38 }
  - { offsetInCU: 0x16024, offset: 0x16024, size: 0x8, addend: 0x0, symName: __ZNSt3__17advanceB8ue170006INS_21__tree_const_iteratorINS_12__value_typeINS_12basic_stringIcNS_11char_traitsIcEENS_9allocatorIcEEEENS_3mapIS8_xNS_4lessIS8_EENS6_INS_4pairIKS8_xEEEEEEEEPNS_11__tree_nodeISH_PvEElEEllvEEvRT_T0_, symObjAddr: 0x1BA9C, symBinAddr: 0x10001E990, symSize: 0x38 }
  - { offsetInCU: 0x160B5, offset: 0x160B5, size: 0x8, addend: 0x0, symName: __ZNSt3__17advanceB8ue170006INS_21__tree_const_iteratorINS_12__value_typeINS_12basic_stringIcNS_11char_traitsIcEENS_9allocatorIcEEEExEEPNS_11__tree_nodeIS9_PvEElEEllvEEvRT_T0_, symObjAddr: 0x1D350, symBinAddr: 0x100020244, symSize: 0x38 }
  - { offsetInCU: 0x16593, offset: 0x16593, size: 0x8, addend: 0x0, symName: __ZNSt3__16chronomiB8ue170006IxNS_5ratioILl1ELl1000000000EEExS3_EENS_11common_typeIJNS0_8durationIT_T0_EENS5_IT1_T2_EEEE4typeERKS8_RKSB_, symObjAddr: 0x30D68, symBinAddr: 0x100033C5C, symSize: 0x70 }
  - { offsetInCU: 0x166F4, offset: 0x166F4, size: 0x8, addend: 0x0, symName: __ZNSt3__16chronomiB8ue170006INS0_12steady_clockENS0_8durationIxNS_5ratioILl1ELl1000000000EEEEES6_EENS_11common_typeIJT0_T1_EE4typeERKNS0_10time_pointIT_S8_EERKNSC_ISD_S9_EE, symObjAddr: 0x12EBC, symBinAddr: 0x100015DB0, symSize: 0x58 }
  - { offsetInCU: 0x1674C, offset: 0x1674C, size: 0x8, addend: 0x0, symName: __ZNSt3__16chrono13duration_castB8ue170006INS0_8durationIdNS_5ratioILl1ELl1EEEEExNS3_ILl1ELl1000000000EEEEENS_9enable_ifIXsr13__is_durationIT_EE5valueES8_E4typeERKNS2_IT0_T1_EE, symObjAddr: 0x1E55C, symBinAddr: 0x100021450, symSize: 0x30 }
  - { offsetInCU: 0x2681A, offset: 0x2681A, size: 0x8, addend: 0x0, symName: __ZNSt3__17advanceB8ue170006INS_21__tree_const_iteratorINS_12__value_typeINS_12basic_stringIcNS_11char_traitsIcEENS_9allocatorIcEEEElEEPNS_11__tree_nodeIS9_PvEElEEllvEEvRT_T0_, symObjAddr: 0x2E400, symBinAddr: 0x1000312F4, symSize: 0x38 }
  - { offsetInCU: 0x28BF7, offset: 0x28BF7, size: 0x8, addend: 0x0, symName: __ZNSt3__17advanceB8ue170006IPNS_3mapINS_12basic_stringIcNS_11char_traitsIcEENS_9allocatorIcEEEElNS_4lessIS7_EENS5_INS_4pairIKS7_lEEEEEEllvEEvRT_T0_, symObjAddr: 0x33220, symBinAddr: 0x100036114, symSize: 0x38 }
  - { offsetInCU: 0x28C62, offset: 0x28C62, size: 0x8, addend: 0x0, symName: __ZNSt3__124__put_character_sequenceB8ue170006IcNS_11char_traitsIcEEEERNS_13basic_ostreamIT_T0_EES7_PKS4_m, symObjAddr: 0x33570, symBinAddr: 0x100036464, symSize: 0x1EC }
  - { offsetInCU: 0x2BFB3, offset: 0x2BFB3, size: 0x8, addend: 0x0, symName: __ZNSt3__17advanceB8ue170006INS_21__tree_const_iteratorINS_12__value_typeINS_12basic_stringIcNS_11char_traitsIcEENS_9allocatorIcEEEEdEEPNS_11__tree_nodeIS9_PvEElEEllvEEvRT_T0_, symObjAddr: 0x35E8C, symBinAddr: 0x100038D80, symSize: 0x38 }
  - { offsetInCU: 0x2C044, offset: 0x2C044, size: 0x8, addend: 0x0, symName: __ZNSt3__16copy_nB8ue170006IPKcmPcEENS_9enable_ifIXsr37__has_random_access_iterator_categoryIT_EE5valueET1_E4typeES5_T0_S6_, symObjAddr: 0x39294, symBinAddr: 0x10003C188, symSize: 0x44 }
  - { offsetInCU: 0x2DA42, offset: 0x2DA42, size: 0x8, addend: 0x0, symName: __ZNSt3__1eqB8ue170006IcNS_11char_traitsIcEENS_9allocatorIcEEEEbRKNS_12basic_stringIT_T0_T1_EEPKS6_, symObjAddr: 0xB8C, symBinAddr: 0x100003A80, symSize: 0xAC }
  - { offsetInCU: 0x2DAA9, offset: 0x2DAA9, size: 0x8, addend: 0x0, symName: __ZNSt3__1neB8ue170006IcNS_11char_traitsIcEENS_9allocatorIcEEEEbRKNS_12basic_stringIT_T0_T1_EEPKS6_, symObjAddr: 0xC38, symBinAddr: 0x100003B2C, symSize: 0x34 }
  - { offsetInCU: 0x2FD27, offset: 0x2FD27, size: 0x8, addend: 0x0, symName: __ZNSt3__1plB8ue170006IcNS_11char_traitsIcEENS_9allocatorIcEEEENS_12basic_stringIT_T0_T1_EEOS9_SA_, symObjAddr: 0x12C6C, symBinAddr: 0x100015B60, symSize: 0x40 }
  - { offsetInCU: 0x2FD7F, offset: 0x2FD7F, size: 0x8, addend: 0x0, symName: __ZNSt3__1plB8ue170006IcNS_11char_traitsIcEENS_9allocatorIcEEEENS_12basic_stringIT_T0_T1_EEOS9_PKS6_, symObjAddr: 0x12CAC, symBinAddr: 0x100015BA0, symSize: 0x40 }
  - { offsetInCU: 0x2FDD7, offset: 0x2FDD7, size: 0x8, addend: 0x0, symName: __ZNSt3__1plB8ue170006IcNS_11char_traitsIcEENS_9allocatorIcEEEENS_12basic_stringIT_T0_T1_EEPKS6_OS9_, symObjAddr: 0x12CEC, symBinAddr: 0x100015BE0, symSize: 0x44 }
  - { offsetInCU: 0x30640, offset: 0x30640, size: 0x8, addend: 0x0, symName: __ZNSt3__1plB8ue170006IcNS_11char_traitsIcEENS_9allocatorIcEEEENS_12basic_stringIT_T0_T1_EEOS9_RKS9_, symObjAddr: 0x12E18, symBinAddr: 0x100015D0C, symSize: 0x40 }
  - { offsetInCU: 0x306B5, offset: 0x306B5, size: 0x8, addend: 0x0, symName: __ZNSt3__1lsB8ue170006INS_11char_traitsIcEEEERNS_13basic_ostreamIcT_EES6_PKc, symObjAddr: 0x13114, symBinAddr: 0x100016008, symSize: 0x48 }
  - { offsetInCU: 0x306FB, offset: 0x306FB, size: 0x8, addend: 0x0, symName: __ZNSt3__14endlB8ue170006IcNS_11char_traitsIcEEEERNS_13basic_ostreamIT_T0_EES7_, symObjAddr: 0x131B4, symBinAddr: 0x1000160A8, symSize: 0x58 }
  - { offsetInCU: 0x3073B, offset: 0x3073B, size: 0x8, addend: 0x0, symName: __ZNSt3__1neB8ue170006ERKNS_14__map_iteratorINS_15__tree_iteratorINS_12__value_typeINS_12basic_stringIcNS_11char_traitsIcEENS_9allocatorIcEEEElEEPNS_11__tree_nodeIS9_PvEElEEEESH_, symObjAddr: 0x1332C, symBinAddr: 0x100016220, symSize: 0x30 }
  - { offsetInCU: 0x30FBA, offset: 0x30FBA, size: 0x8, addend: 0x0, symName: __ZNSt3__1eqB8ue170006INS_9allocatorIcEEEEbRKNS_12basic_stringIcNS_11char_traitsIcEET_EES9_, symObjAddr: 0x13740, symBinAddr: 0x100016634, symSize: 0x148 }
  - { offsetInCU: 0x3102D, offset: 0x3102D, size: 0x8, addend: 0x0, symName: __ZNSt3__1plB8ue170006IcNS_11char_traitsIcEENS_9allocatorIcEEEENS_12basic_stringIT_T0_T1_EERKS9_PKS6_, symObjAddr: 0x13888, symBinAddr: 0x10001677C, symSize: 0x11C }
  - { offsetInCU: 0x310CE, offset: 0x310CE, size: 0x8, addend: 0x0, symName: __ZNSt3__15flushB8ue170006IcNS_11char_traitsIcEEEERNS_13basic_ostreamIT_T0_EES7_, symObjAddr: 0x13CD4, symBinAddr: 0x100016BC8, symSize: 0x28 }
  - { offsetInCU: 0x3110E, offset: 0x3110E, size: 0x8, addend: 0x0, symName: __ZNSt3__1eqB8ue170006ERKNS_14__map_iteratorINS_15__tree_iteratorINS_12__value_typeINS_12basic_stringIcNS_11char_traitsIcEENS_9allocatorIcEEEEbEEPNS_11__tree_nodeIS9_PvEElEEEESH_, symObjAddr: 0x13CFC, symBinAddr: 0x100016BF0, symSize: 0x30 }
  - { offsetInCU: 0x3114B, offset: 0x3114B, size: 0x8, addend: 0x0, symName: __ZNSt3__1lsB8ue170006IcNS_11char_traitsIcEENS_9allocatorIcEEEERNS_13basic_ostreamIT_T0_EES9_RKNS_12basic_stringIS6_S7_T1_EE, symObjAddr: 0x13F68, symBinAddr: 0x100016E5C, symSize: 0x4C }
  - { offsetInCU: 0x311AE, offset: 0x311AE, size: 0x8, addend: 0x0, symName: __ZNSt3__122__make_exception_guardB8ue170006INS_6vectorINS_3mapINS_12basic_stringIcNS_11char_traitsIcEENS_9allocatorIcEEEElNS_4lessIS8_EENS6_INS_4pairIKS8_lEEEEEENS6_ISF_EEE16__destroy_vectorEEENS_28__exception_guard_exceptionsIT_EESK_, symObjAddr: 0x148B0, symBinAddr: 0x1000177A4, symSize: 0x40 }
  - { offsetInCU: 0x311E3, offset: 0x311E3, size: 0x8, addend: 0x0, symName: __ZNSt3__119__allocate_at_leastB8ue170006INS_9allocatorINS_3mapINS_12basic_stringIcNS_11char_traitsIcEENS1_IcEEEElNS_4lessIS7_EENS1_INS_4pairIKS7_lEEEEEEEEEENS_19__allocation_resultINS_16allocator_traitsIT_E7pointerEEERSI_m, symObjAddr: 0x14BA0, symBinAddr: 0x100017A94, symSize: 0x40 }
  - { offsetInCU: 0x31226, offset: 0x31226, size: 0x8, addend: 0x0, symName: __ZNSt3__13minB8ue170006ImEERKT_S3_S3_, symObjAddr: 0x14CF8, symBinAddr: 0x100017BEC, symSize: 0x2C }
  - { offsetInCU: 0x3146A, offset: 0x3146A, size: 0x8, addend: 0x0, symName: __ZNSt3__13minB8ue170006ImNS_6__lessIvvEEEERKT_S5_S5_T0_, symObjAddr: 0x14D68, symBinAddr: 0x100017C5C, symSize: 0x54 }
  - { offsetInCU: 0x3150A, offset: 0x3150A, size: 0x8, addend: 0x0, symName: __ZNSt3__120__throw_length_errorB8ue170006EPKc, symObjAddr: 0x14E10, symBinAddr: 0x100017D04, symSize: 0x64 }
  - { offsetInCU: 0x31534, offset: 0x31534, size: 0x8, addend: 0x0, symName: __ZNSt3__117__libcpp_allocateB8ue170006Emm, symObjAddr: 0x14F84, symBinAddr: 0x100017E78, symSize: 0x28 }
  - { offsetInCU: 0x31571, offset: 0x31571, size: 0x8, addend: 0x0, symName: __ZNSt3__121__libcpp_operator_newB8ue170006IJmEEEPvDpT_, symObjAddr: 0x14FAC, symBinAddr: 0x100017EA0, symSize: 0x24 }
  - { offsetInCU: 0x315AB, offset: 0x315AB, size: 0x8, addend: 0x0, symName: __ZNSt3__112__to_addressB8ue170006INS_3mapINS_12basic_stringIcNS_11char_traitsIcEENS_9allocatorIcEEEElNS_4lessIS7_EENS5_INS_4pairIKS7_lEEEEEEEEPT_SG_, symObjAddr: 0x150C8, symBinAddr: 0x100017FBC, symSize: 0x14 }
  - { offsetInCU: 0x315E0, offset: 0x315E0, size: 0x8, addend: 0x0, symName: __ZNSt3__130__uninitialized_allocator_copyB8ue170006INS_9allocatorINS_3mapINS_12basic_stringIcNS_11char_traitsIcEENS1_IcEEEElNS_4lessIS7_EENS1_INS_4pairIKS7_lEEEEEEEEPSE_SG_SG_EET2_RT_T0_T1_SH_, symObjAddr: 0x15178, symBinAddr: 0x10001806C, symSize: 0x80 }
  - { offsetInCU: 0x3167D, offset: 0x3167D, size: 0x8, addend: 0x0, symName: __ZNSt3__114__unwrap_rangeB8ue170006IPNS_3mapINS_12basic_stringIcNS_11char_traitsIcEENS_9allocatorIcEEEElNS_4lessIS7_EENS5_INS_4pairIKS7_lEEEEEESF_EENSA_IT0_SG_EET_SI_, symObjAddr: 0x15270, symBinAddr: 0x100018164, symSize: 0x60 }
  - { offsetInCU: 0x316C9, offset: 0x316C9, size: 0x8, addend: 0x0, symName: __ZNSt3__135__uninitialized_allocator_copy_implB8ue170006INS_9allocatorINS_3mapINS_12basic_stringIcNS_11char_traitsIcEENS1_IcEEEElNS_4lessIS7_EENS1_INS_4pairIKS7_lEEEEEEEEPSE_SG_SG_EET2_RT_T0_T1_SH_, symObjAddr: 0x152D0, symBinAddr: 0x1000181C4, symSize: 0xF4 }
  - { offsetInCU: 0x31767, offset: 0x31767, size: 0x8, addend: 0x0, symName: __ZNSt3__113__unwrap_iterB8ue170006IPNS_3mapINS_12basic_stringIcNS_11char_traitsIcEENS_9allocatorIcEEEElNS_4lessIS7_EENS5_INS_4pairIKS7_lEEEEEENS_18__unwrap_iter_implISF_Lb1EEELi0EEEDTclsrT0_8__unwrapclsr3stdE7declvalIT_EEEESJ_, symObjAddr: 0x153C4, symBinAddr: 0x1000182B8, symSize: 0x24 }
  - { offsetInCU: 0x317AB, offset: 0x317AB, size: 0x8, addend: 0x0, symName: __ZNSt3__113__rewrap_iterB8ue170006IPNS_3mapINS_12basic_stringIcNS_11char_traitsIcEENS_9allocatorIcEEEElNS_4lessIS7_EENS5_INS_4pairIKS7_lEEEEEESF_NS_18__unwrap_iter_implISF_Lb1EEEEET_SI_T0_, symObjAddr: 0x153E8, symBinAddr: 0x1000182DC, symSize: 0x3C }
  - { offsetInCU: 0x31800, offset: 0x31800, size: 0x8, addend: 0x0, symName: __ZNSt3__19make_pairB8ue170006IPNS_3mapINS_12basic_stringIcNS_11char_traitsIcEENS_9allocatorIcEEEElNS_4lessIS7_EENS5_INS_4pairIKS7_lEEEEEESF_EENSA_INS_18__unwrap_ref_decayIT_E4typeENSG_IT0_E4typeEEEOSH_OSK_, symObjAddr: 0x15424, symBinAddr: 0x100018318, symSize: 0x38 }
  - { offsetInCU: 0x31923, offset: 0x31923, size: 0x8, addend: 0x0, symName: __ZNSt3__122__make_exception_guardB8ue170006INS_29_AllocatorDestroyRangeReverseINS_9allocatorINS_3mapINS_12basic_stringIcNS_11char_traitsIcEENS2_IcEEEElNS_4lessIS8_EENS2_INS_4pairIKS8_lEEEEEEEEPSF_EEEENS_28__exception_guard_exceptionsIT_EESK_, symObjAddr: 0x154CC, symBinAddr: 0x1000183C0, symSize: 0x4C }
  - { offsetInCU: 0x3195A, offset: 0x3195A, size: 0x8, addend: 0x0, symName: __ZNSt3__119__allocator_destroyB8ue170006INS_9allocatorINS_3mapINS_12basic_stringIcNS_11char_traitsIcEENS1_IcEEEElNS_4lessIS7_EENS1_INS_4pairIKS7_lEEEEEEEENS_16reverse_iteratorIPSE_EESI_EEvRT_T0_T1_, symObjAddr: 0x1575C, symBinAddr: 0x100018650, symSize: 0x70 }
  - { offsetInCU: 0x319BD, offset: 0x319BD, size: 0x8, addend: 0x0, symName: __ZNSt3__1neB8ue170006IPNS_3mapINS_12basic_stringIcNS_11char_traitsIcEENS_9allocatorIcEEEElNS_4lessIS7_EENS5_INS_4pairIKS7_lEEEEEESF_EEbRKNS_16reverse_iteratorIT_EERKNSG_IT0_EE, symObjAddr: 0x15800, symBinAddr: 0x1000186F4, symSize: 0x48 }
  - { offsetInCU: 0x31A09, offset: 0x31A09, size: 0x8, addend: 0x0, symName: __ZNSt3__112__to_addressB8ue170006INS_16reverse_iteratorIPNS_3mapINS_12basic_stringIcNS_11char_traitsIcEENS_9allocatorIcEEEElNS_4lessIS8_EENS6_INS_4pairIKS8_lEEEEEEEEvEEu7__decayIDTclsr19__to_address_helperIT_EE6__callclsr3stdE7declvalIRKSI_EEEEESK_, symObjAddr: 0x15874, symBinAddr: 0x100018768, symSize: 0x24 }
  - { offsetInCU: 0x31ABC, offset: 0x31ABC, size: 0x8, addend: 0x0, symName: __ZNSt3__119__libcpp_deallocateB8ue170006EPvmm, symObjAddr: 0x15D20, symBinAddr: 0x100018C14, symSize: 0x30 }
  - { offsetInCU: 0x31B05, offset: 0x31B05, size: 0x8, addend: 0x0, symName: __ZNSt3__127__do_deallocate_handle_sizeB8ue170006IJEEEvPvmDpT_, symObjAddr: 0x15D50, symBinAddr: 0x100018C44, symSize: 0x28 }
  - { offsetInCU: 0x31B44, offset: 0x31B44, size: 0x8, addend: 0x0, symName: __ZNSt3__124__libcpp_operator_deleteB8ue170006IJPvEEEvDpT_, symObjAddr: 0x15D78, symBinAddr: 0x100018C6C, symSize: 0x24 }
  - { offsetInCU: 0x31BAC, offset: 0x31BAC, size: 0x8, addend: 0x0, symName: __ZNSt3__1neB8ue170006ERKNS_20__map_const_iteratorINS_21__tree_const_iteratorINS_12__value_typeINS_12basic_stringIcNS_11char_traitsIcEENS_9allocatorIcEEEE7MonomerEEPNS_11__tree_nodeISA_PvEElEEEESI_, symObjAddr: 0x16364, symBinAddr: 0x100019258, symSize: 0x30 }
  - { offsetInCU: 0x31BE9, offset: 0x31BE9, size: 0x8, addend: 0x0, symName: __ZNSt3__1neB8ue170006ERKNS_21__tree_const_iteratorINS_12__value_typeINS_12basic_stringIcNS_11char_traitsIcEENS_9allocatorIcEEEE7MonomerEEPNS_11__tree_nodeIS9_PvEElEESG_, symObjAddr: 0x1646C, symBinAddr: 0x100019360, symSize: 0x34 }
  - { offsetInCU: 0x31C26, offset: 0x31C26, size: 0x8, addend: 0x0, symName: __ZNSt3__1eqB8ue170006ERKNS_21__tree_const_iteratorINS_12__value_typeINS_12basic_stringIcNS_11char_traitsIcEENS_9allocatorIcEEEE7MonomerEEPNS_11__tree_nodeIS9_PvEElEESG_, symObjAddr: 0x164A0, symBinAddr: 0x100019394, symSize: 0x30 }
  - { offsetInCU: 0x31C87, offset: 0x31C87, size: 0x8, addend: 0x0, symName: __ZNSt3__14nextB8ue170006INS_21__tree_const_iteratorINS_12__value_typeINS_12basic_stringIcNS_11char_traitsIcEENS_9allocatorIcEEEE7MonomerEEPNS_11__tree_nodeISA_PvEElEEEENS_9enable_ifIXsr29__has_input_iterator_categoryIT_EE5valueESH_E4typeESH_NS_15iterator_traitsISH_E15difference_typeE, symObjAddr: 0x16FA8, symBinAddr: 0x100019E9C, symSize: 0x3C }
  - { offsetInCU: 0x31CCA, offset: 0x31CCA, size: 0x8, addend: 0x0, symName: __ZNSt3__1ltB8ue170006IcNS_11char_traitsIcEENS_9allocatorIcEEEEbRKNS_12basic_stringIT_T0_T1_EESB_, symObjAddr: 0x170F0, symBinAddr: 0x100019FE4, symSize: 0x38 }
  - { offsetInCU: 0x31D23, offset: 0x31D23, size: 0x8, addend: 0x0, symName: __ZNSt3__112__to_addressB8ue170006IKcEEPT_S3_, symObjAddr: 0x1749C, symBinAddr: 0x10001A390, symSize: 0x14 }
  - { offsetInCU: 0x31D8B, offset: 0x31D8B, size: 0x8, addend: 0x0, symName: __ZNSt3__116__tree_prev_iterB8ue170006IPNS_16__tree_node_baseIPvEEPNS_15__tree_end_nodeIS4_EEEET_T0_, symObjAddr: 0x175D0, symBinAddr: 0x10001A4C4, symSize: 0xA4 }
  - { offsetInCU: 0x31DD8, offset: 0x31DD8, size: 0x8, addend: 0x0, symName: __ZNSt3__110__tree_maxB8ue170006IPNS_16__tree_node_baseIPvEEEET_S5_, symObjAddr: 0x17674, symBinAddr: 0x10001A568, symSize: 0x40 }
  - { offsetInCU: 0x31E0E, offset: 0x31E0E, size: 0x8, addend: 0x0, symName: __ZNSt3__120__tree_is_left_childB8ue170006IPNS_16__tree_node_baseIPvEEEEbT_, symObjAddr: 0x176B4, symBinAddr: 0x10001A5A8, symSize: 0x2C }
  - { offsetInCU: 0x31E44, offset: 0x31E44, size: 0x8, addend: 0x0, symName: __ZNSt3__121__convert_to_integralB8ue170006El, symObjAddr: 0x177E0, symBinAddr: 0x10001A6D4, symSize: 0x14 }
  - { offsetInCU: 0x31E70, offset: 0x31E70, size: 0x8, addend: 0x0, symName: __ZNSt3__19__advanceB8ue170006INS_21__tree_const_iteratorINS_12__value_typeINS_12basic_stringIcNS_11char_traitsIcEENS_9allocatorIcEEEE7MonomerEEPNS_11__tree_nodeISA_PvEElEEEEvRT_NS_15iterator_traitsISG_E15difference_typeENS_26bidirectional_iterator_tagE, symObjAddr: 0x177F4, symBinAddr: 0x10001A6E8, symSize: 0xA4 }
  - { offsetInCU: 0x31EB9, offset: 0x31EB9, size: 0x8, addend: 0x0, symName: __ZNSt3__116__tree_next_iterB8ue170006IPNS_15__tree_end_nodeIPNS_16__tree_node_baseIPvEEEES5_EET_T0_, symObjAddr: 0x178D0, symBinAddr: 0x10001A7C4, symSize: 0x80 }
  - { offsetInCU: 0x31EF8, offset: 0x31EF8, size: 0x8, addend: 0x0, symName: __ZNSt3__110__tree_minB8ue170006IPNS_16__tree_node_baseIPvEEEET_S5_, symObjAddr: 0x17950, symBinAddr: 0x10001A844, symSize: 0x40 }
  - { offsetInCU: 0x31F4C, offset: 0x31F4C, size: 0x8, addend: 0x0, symName: __ZNSt3__127__tree_balance_after_insertB8ue170006IPNS_16__tree_node_baseIPvEEEEvT_S5_, symObjAddr: 0x17F3C, symBinAddr: 0x10001AE30, symSize: 0x27C }
  - { offsetInCU: 0x31FCB, offset: 0x31FCB, size: 0x8, addend: 0x0, symName: __ZNSt3__118__tree_left_rotateB8ue170006IPNS_16__tree_node_baseIPvEEEEvT_, symObjAddr: 0x181E0, symBinAddr: 0x10001B0D4, symSize: 0xD8 }
  - { offsetInCU: 0x3200E, offset: 0x3200E, size: 0x8, addend: 0x0, symName: __ZNSt3__119__tree_right_rotateB8ue170006IPNS_16__tree_node_baseIPvEEEEvT_, symObjAddr: 0x182B8, symBinAddr: 0x10001B1AC, symSize: 0xCC }
  - { offsetInCU: 0x32083, offset: 0x32083, size: 0x8, addend: 0x0, symName: __ZNSt3__1neB8ue170006ERKNS_20__map_const_iteratorINS_21__tree_const_iteratorINS_12__value_typeINS_12basic_stringIcNS_11char_traitsIcEENS_9allocatorIcEEEENS_6vectorIS8_NS6_IS8_EEEEEEPNS_11__tree_nodeISC_PvEElEEEESK_, symObjAddr: 0x18E50, symBinAddr: 0x10001BD44, symSize: 0x30 }
  - { offsetInCU: 0x320C0, offset: 0x320C0, size: 0x8, addend: 0x0, symName: __ZNSt3__1neB8ue170006ERKNS_21__tree_const_iteratorINS_12__value_typeINS_12basic_stringIcNS_11char_traitsIcEENS_9allocatorIcEEEENS_6vectorIS7_NS5_IS7_EEEEEEPNS_11__tree_nodeISB_PvEElEESI_, symObjAddr: 0x18F58, symBinAddr: 0x10001BE4C, symSize: 0x34 }
  - { offsetInCU: 0x320FD, offset: 0x320FD, size: 0x8, addend: 0x0, symName: __ZNSt3__1eqB8ue170006ERKNS_21__tree_const_iteratorINS_12__value_typeINS_12basic_stringIcNS_11char_traitsIcEENS_9allocatorIcEEEENS_6vectorIS7_NS5_IS7_EEEEEEPNS_11__tree_nodeISB_PvEElEESI_, symObjAddr: 0x18F8C, symBinAddr: 0x10001BE80, symSize: 0x30 }
  - { offsetInCU: 0x3213A, offset: 0x3213A, size: 0x8, addend: 0x0, symName: __ZNSt3__14nextB8ue170006INS_21__tree_const_iteratorINS_12__value_typeINS_12basic_stringIcNS_11char_traitsIcEENS_9allocatorIcEEEENS_6vectorIS8_NS6_IS8_EEEEEEPNS_11__tree_nodeISC_PvEElEEEENS_9enable_ifIXsr29__has_input_iterator_categoryIT_EE5valueESJ_E4typeESJ_NS_15iterator_traitsISJ_E15difference_typeE, symObjAddr: 0x19A94, symBinAddr: 0x10001C988, symSize: 0x3C }
  - { offsetInCU: 0x3217D, offset: 0x3217D, size: 0x8, addend: 0x0, symName: __ZNSt3__19__advanceB8ue170006INS_21__tree_const_iteratorINS_12__value_typeINS_12basic_stringIcNS_11char_traitsIcEENS_9allocatorIcEEEENS_6vectorIS8_NS6_IS8_EEEEEEPNS_11__tree_nodeISC_PvEElEEEEvRT_NS_15iterator_traitsISI_E15difference_typeENS_26bidirectional_iterator_tagE, symObjAddr: 0x19C7C, symBinAddr: 0x10001CB70, symSize: 0xA4 }
  - { offsetInCU: 0x32217, offset: 0x32217, size: 0x8, addend: 0x0, symName: __ZNSt3__1neB8ue170006ERKNS_20__map_const_iteratorINS_21__tree_const_iteratorINS_12__value_typeINS_12basic_stringIcNS_11char_traitsIcEENS_9allocatorIcEEEENS_3mapIS8_xNS_4lessIS8_EENS6_INS_4pairIKS8_xEEEEEEEEPNS_11__tree_nodeISH_PvEElEEEESP_, symObjAddr: 0x1ACA8, symBinAddr: 0x10001DB9C, symSize: 0x30 }
  - { offsetInCU: 0x32254, offset: 0x32254, size: 0x8, addend: 0x0, symName: __ZNSt3__1neB8ue170006ERKNS_21__tree_const_iteratorINS_12__value_typeINS_12basic_stringIcNS_11char_traitsIcEENS_9allocatorIcEEEENS_3mapIS7_xNS_4lessIS7_EENS5_INS_4pairIKS7_xEEEEEEEEPNS_11__tree_nodeISG_PvEElEESN_, symObjAddr: 0x1ADB0, symBinAddr: 0x10001DCA4, symSize: 0x34 }
  - { offsetInCU: 0x32291, offset: 0x32291, size: 0x8, addend: 0x0, symName: __ZNSt3__1eqB8ue170006ERKNS_21__tree_const_iteratorINS_12__value_typeINS_12basic_stringIcNS_11char_traitsIcEENS_9allocatorIcEEEENS_3mapIS7_xNS_4lessIS7_EENS5_INS_4pairIKS7_xEEEEEEEEPNS_11__tree_nodeISG_PvEElEESN_, symObjAddr: 0x1ADE4, symBinAddr: 0x10001DCD8, symSize: 0x30 }
  - { offsetInCU: 0x322CE, offset: 0x322CE, size: 0x8, addend: 0x0, symName: __ZNSt3__14nextB8ue170006INS_21__tree_const_iteratorINS_12__value_typeINS_12basic_stringIcNS_11char_traitsIcEENS_9allocatorIcEEEENS_3mapIS8_xNS_4lessIS8_EENS6_INS_4pairIKS8_xEEEEEEEEPNS_11__tree_nodeISH_PvEElEEEENS_9enable_ifIXsr29__has_input_iterator_categoryIT_EE5valueESO_E4typeESO_NS_15iterator_traitsISO_E15difference_typeE, symObjAddr: 0x1B8EC, symBinAddr: 0x10001E7E0, symSize: 0x3C }
  - { offsetInCU: 0x32311, offset: 0x32311, size: 0x8, addend: 0x0, symName: __ZNSt3__19__advanceB8ue170006INS_21__tree_const_iteratorINS_12__value_typeINS_12basic_stringIcNS_11char_traitsIcEENS_9allocatorIcEEEENS_3mapIS8_xNS_4lessIS8_EENS6_INS_4pairIKS8_xEEEEEEEEPNS_11__tree_nodeISH_PvEElEEEEvRT_NS_15iterator_traitsISN_E15difference_typeENS_26bidirectional_iterator_tagE, symObjAddr: 0x1BAD4, symBinAddr: 0x10001E9C8, symSize: 0xA4 }
  - { offsetInCU: 0x32378, offset: 0x32378, size: 0x8, addend: 0x0, symName: __ZNSt3__1neB8ue170006ERKNS_20__map_const_iteratorINS_21__tree_const_iteratorINS_12__value_typeINS_12basic_stringIcNS_11char_traitsIcEENS_9allocatorIcEEEExEEPNS_11__tree_nodeIS9_PvEElEEEESH_, symObjAddr: 0x1C55C, symBinAddr: 0x10001F450, symSize: 0x30 }
  - { offsetInCU: 0x323B5, offset: 0x323B5, size: 0x8, addend: 0x0, symName: __ZNSt3__1neB8ue170006ERKNS_21__tree_const_iteratorINS_12__value_typeINS_12basic_stringIcNS_11char_traitsIcEENS_9allocatorIcEEEExEEPNS_11__tree_nodeIS8_PvEElEESF_, symObjAddr: 0x1C664, symBinAddr: 0x10001F558, symSize: 0x34 }
  - { offsetInCU: 0x323F2, offset: 0x323F2, size: 0x8, addend: 0x0, symName: __ZNSt3__1eqB8ue170006ERKNS_21__tree_const_iteratorINS_12__value_typeINS_12basic_stringIcNS_11char_traitsIcEENS_9allocatorIcEEEExEEPNS_11__tree_nodeIS8_PvEElEESF_, symObjAddr: 0x1C698, symBinAddr: 0x10001F58C, symSize: 0x30 }
  - { offsetInCU: 0x3242F, offset: 0x3242F, size: 0x8, addend: 0x0, symName: __ZNSt3__14nextB8ue170006INS_21__tree_const_iteratorINS_12__value_typeINS_12basic_stringIcNS_11char_traitsIcEENS_9allocatorIcEEEExEEPNS_11__tree_nodeIS9_PvEElEEEENS_9enable_ifIXsr29__has_input_iterator_categoryIT_EE5valueESG_E4typeESG_NS_15iterator_traitsISG_E15difference_typeE, symObjAddr: 0x1D1A0, symBinAddr: 0x100020094, symSize: 0x3C }
  - { offsetInCU: 0x32472, offset: 0x32472, size: 0x8, addend: 0x0, symName: __ZNSt3__19__advanceB8ue170006INS_21__tree_const_iteratorINS_12__value_typeINS_12basic_stringIcNS_11char_traitsIcEENS_9allocatorIcEEEExEEPNS_11__tree_nodeIS9_PvEElEEEEvRT_NS_15iterator_traitsISF_E15difference_typeENS_26bidirectional_iterator_tagE, symObjAddr: 0x1D388, symBinAddr: 0x10002027C, symSize: 0xA4 }
  - { offsetInCU: 0x32572, offset: 0x32572, size: 0x8, addend: 0x0, symName: __ZNSt3__118__constexpr_strlenB8ue170006EPKc, symObjAddr: 0x1F398, symBinAddr: 0x10002228C, symSize: 0x24 }
  - { offsetInCU: 0x325D5, offset: 0x325D5, size: 0x8, addend: 0x0, symName: __ZNSt3__116forward_as_tupleB8ue170006IJRKNS_12basic_stringIcNS_11char_traitsIcEENS_9allocatorIcEEEEEEENS_5tupleIJDpOT_EEESC_, symObjAddr: 0x1F4BC, symBinAddr: 0x1000223B0, symSize: 0x2C }
  - { offsetInCU: 0x3260E, offset: 0x3260E, size: 0x8, addend: 0x0, symName: __ZNSt3__116forward_as_tupleB8ue170006IJEEENS_5tupleIJDpOT_EEES4_, symObjAddr: 0x1F4E8, symBinAddr: 0x1000223DC, symSize: 0x4 }
  - { offsetInCU: 0x3265C, offset: 0x3265C, size: 0x8, addend: 0x0, symName: __ZNSt3__13getB8ue170006ILm0EJRKNS_12basic_stringIcNS_11char_traitsIcEENS_9allocatorIcEEEEEEERNS_13tuple_elementIXT_ENS_5tupleIJDpT0_EEEE4typeERSD_, symObjAddr: 0x20044, symBinAddr: 0x100022F38, symSize: 0x24 }
  - { offsetInCU: 0x326F6, offset: 0x326F6, size: 0x8, addend: 0x0, symName: __ZNSt3__116forward_as_tupleB8ue170006IJNS_12basic_stringIcNS_11char_traitsIcEENS_9allocatorIcEEEEEEENS_5tupleIJDpOT_EEESA_, symObjAddr: 0x20D74, symBinAddr: 0x100023C68, symSize: 0x2C }
  - { offsetInCU: 0x3274D, offset: 0x3274D, size: 0x8, addend: 0x0, symName: __ZNSt3__13getB8ue170006ILm0EJONS_12basic_stringIcNS_11char_traitsIcEENS_9allocatorIcEEEEEEERNS_13tuple_elementIXT_ENS_5tupleIJDpT0_EEEE4typeERSC_, symObjAddr: 0x2179C, symBinAddr: 0x100024690, symSize: 0x24 }
  - { offsetInCU: 0x327FD, offset: 0x327FD, size: 0x8, addend: 0x0, symName: __ZNSt3__112__to_addressB8ue170006I5ChainEEPT_S3_, symObjAddr: 0x22170, symBinAddr: 0x100025064, symSize: 0x14 }
  - { offsetInCU: 0x32833, offset: 0x32833, size: 0x8, addend: 0x0, symName: __ZNSt3__112__to_addressB8ue170006IN5boost6detail12adj_list_genINS1_14adjacency_listINS1_4vecSES5_NS1_14bidirectionalSE7Monomer8EdgeDataNS1_11no_propertyENS1_5listSEEES5_S5_S6_S7_S8_S9_SA_E6config13stored_vertexEEEPT_SG_, symObjAddr: 0x22724, symBinAddr: 0x100025618, symSize: 0x14 }
  - { offsetInCU: 0x32869, offset: 0x32869, size: 0x8, addend: 0x0, symName: __ZNSt3__112__to_addressB8ue170006IN5boost6detail16stored_edge_iterImNS_15__list_iteratorINS1_9list_edgeIm8EdgeDataEEPvEES6_EEEEPT_SC_, symObjAddr: 0x22B84, symBinAddr: 0x100025A78, symSize: 0x14 }
  - { offsetInCU: 0x328D2, offset: 0x328D2, size: 0x8, addend: 0x0, symName: __ZNSt3__112__to_addressB8ue170006I8ReactionEEPT_S3_, symObjAddr: 0x23B18, symBinAddr: 0x100026A0C, symSize: 0x14 }
  - { offsetInCU: 0x32908, offset: 0x32908, size: 0x8, addend: 0x0, symName: __ZNSt3__112__to_addressB8ue170006IlEEPT_S2_, symObjAddr: 0x23FD4, symBinAddr: 0x100026EC8, symSize: 0x14 }
  - { offsetInCU: 0x3293E, offset: 0x3293E, size: 0x8, addend: 0x0, symName: __ZNSt3__112__to_addressB8ue170006IdEEPT_S2_, symObjAddr: 0x244A0, symBinAddr: 0x100027394, symSize: 0x14 }
  - { offsetInCU: 0x32973, offset: 0x32973, size: 0x8, addend: 0x0, symName: __ZNSt3__122__make_exception_guardB8ue170006INS_6vectorI5ChainNS_9allocatorIS2_EEE16__destroy_vectorEEENS_28__exception_guard_exceptionsIT_EES8_, symObjAddr: 0x24858, symBinAddr: 0x10002774C, symSize: 0x40 }
  - { offsetInCU: 0x329A8, offset: 0x329A8, size: 0x8, addend: 0x0, symName: __ZNSt3__119__allocate_at_leastB8ue170006INS_9allocatorI5ChainEEEENS_19__allocation_resultINS_16allocator_traitsIT_E7pointerEEERS6_m, symObjAddr: 0x24AF4, symBinAddr: 0x1000279E8, symSize: 0x40 }
  - { offsetInCU: 0x329EB, offset: 0x329EB, size: 0x8, addend: 0x0, symName: __ZNSt3__130__uninitialized_allocator_copyB8ue170006INS_9allocatorI5ChainEEPS2_S4_S4_EET2_RT_T0_T1_S5_, symObjAddr: 0x24D30, symBinAddr: 0x100027C24, symSize: 0x80 }
  - { offsetInCU: 0x32A88, offset: 0x32A88, size: 0x8, addend: 0x0, symName: __ZNSt3__114__unwrap_rangeB8ue170006IP5ChainS2_EENS_4pairIT0_S4_EET_S6_, symObjAddr: 0x24E28, symBinAddr: 0x100027D1C, symSize: 0x60 }
  - { offsetInCU: 0x32AD4, offset: 0x32AD4, size: 0x8, addend: 0x0, symName: __ZNSt3__135__uninitialized_allocator_copy_implB8ue170006INS_9allocatorI5ChainEEPS2_S4_S4_EET2_RT_T0_T1_S5_, symObjAddr: 0x24E88, symBinAddr: 0x100027D7C, symSize: 0xF4 }
  - { offsetInCU: 0x32B72, offset: 0x32B72, size: 0x8, addend: 0x0, symName: __ZNSt3__113__unwrap_iterB8ue170006IP5ChainNS_18__unwrap_iter_implIS2_Lb1EEELi0EEEDTclsrT0_8__unwrapclsr3stdE7declvalIT_EEEES6_, symObjAddr: 0x24F7C, symBinAddr: 0x100027E70, symSize: 0x24 }
  - { offsetInCU: 0x32BB6, offset: 0x32BB6, size: 0x8, addend: 0x0, symName: __ZNSt3__113__rewrap_iterB8ue170006IP5ChainS2_NS_18__unwrap_iter_implIS2_Lb1EEEEET_S5_T0_, symObjAddr: 0x24FA0, symBinAddr: 0x100027E94, symSize: 0x3C }
  - { offsetInCU: 0x32C0B, offset: 0x32C0B, size: 0x8, addend: 0x0, symName: __ZNSt3__19make_pairB8ue170006IP5ChainS2_EENS_4pairINS_18__unwrap_ref_decayIT_E4typeENS4_IT0_E4typeEEEOS5_OS8_, symObjAddr: 0x24FDC, symBinAddr: 0x100027ED0, symSize: 0x38 }
  - { offsetInCU: 0x32D2E, offset: 0x32D2E, size: 0x8, addend: 0x0, symName: __ZNSt3__122__make_exception_guardB8ue170006INS_29_AllocatorDestroyRangeReverseINS_9allocatorI5ChainEEPS3_EEEENS_28__exception_guard_exceptionsIT_EES8_, symObjAddr: 0x25084, symBinAddr: 0x100027F78, symSize: 0x4C }
  - { offsetInCU: 0x32F0C, offset: 0x32F0C, size: 0x8, addend: 0x0, symName: __ZNSt3__13maxB8ue170006ImEERKT_S3_S3_, symObjAddr: 0x26D74, symBinAddr: 0x100029C68, symSize: 0x2C }
  - { offsetInCU: 0x32F4F, offset: 0x32F4F, size: 0x8, addend: 0x0, symName: __ZNSt3__13maxB8ue170006ImNS_6__lessIvvEEEERKT_S5_S5_T0_, symObjAddr: 0x26E44, symBinAddr: 0x100029D38, symSize: 0x54 }
  - { offsetInCU: 0x32FA9, offset: 0x32FA9, size: 0x8, addend: 0x0, symName: __ZNSt3__119__allocate_at_leastB8ue170006INS_9allocatorIN5boost6detail12adj_list_genINS2_14adjacency_listINS2_4vecSES6_NS2_14bidirectionalSE7Monomer8EdgeDataNS2_11no_propertyENS2_5listSEEES6_S6_S7_S8_S9_SA_SB_E6config13stored_vertexEEEEENS_19__allocation_resultINS_16allocator_traitsIT_E7pointerEEERSJ_m, symObjAddr: 0x26FB4, symBinAddr: 0x100029EA8, symSize: 0x40 }
  - { offsetInCU: 0x32FEC, offset: 0x32FEC, size: 0x8, addend: 0x0, symName: __ZNSt3__142__uninitialized_allocator_move_if_noexceptB8ue170006INS_9allocatorIN5boost6detail12adj_list_genINS2_14adjacency_listINS2_4vecSES6_NS2_14bidirectionalSE7Monomer8EdgeDataNS2_11no_propertyENS2_5listSEEES6_S6_S7_S8_S9_SA_SB_E6config13stored_vertexEEENS_16reverse_iteratorIPSF_EESJ_SJ_EET2_RT_T0_T1_SK_, symObjAddr: 0x27240, symBinAddr: 0x10002A134, symSize: 0x12C }
  - { offsetInCU: 0x3308D, offset: 0x3308D, size: 0x8, addend: 0x0, symName: __ZNSt3__14swapB8ue170006IPN5boost6detail12adj_list_genINS1_14adjacency_listINS1_4vecSES5_NS1_14bidirectionalSE7Monomer8EdgeDataNS1_11no_propertyENS1_5listSEEES5_S5_S6_S7_S8_S9_SA_E6config13stored_vertexEEENS_9enable_ifIXaasr21is_move_constructibleIT_EE5valuesr18is_move_assignableISH_EE5valueEvE4typeERSH_SK_, symObjAddr: 0x273B8, symBinAddr: 0x10002A2AC, symSize: 0x3C }
  - { offsetInCU: 0x330DE, offset: 0x330DE, size: 0x8, addend: 0x0, symName: __ZNSt3__122__make_exception_guardB8ue170006INS_29_AllocatorDestroyRangeReverseINS_9allocatorIN5boost6detail12adj_list_genINS3_14adjacency_listINS3_4vecSES7_NS3_14bidirectionalSE7Monomer8EdgeDataNS3_11no_propertyENS3_5listSEEES7_S7_S8_S9_SA_SB_SC_E6config13stored_vertexEEENS_16reverse_iteratorIPSG_EEEEEENS_28__exception_guard_exceptionsIT_EESN_, symObjAddr: 0x274BC, symBinAddr: 0x10002A3B0, symSize: 0x4C }
  - { offsetInCU: 0x33114, offset: 0x33114, size: 0x8, addend: 0x0, symName: __ZNSt3__1neB8ue170006IPN5boost6detail12adj_list_genINS1_14adjacency_listINS1_4vecSES5_NS1_14bidirectionalSE7Monomer8EdgeDataNS1_11no_propertyENS1_5listSEEES5_S5_S6_S7_S8_S9_SA_E6config13stored_vertexESF_EEbRKNS_16reverse_iteratorIT_EERKNSG_IT0_EE, symObjAddr: 0x2754C, symBinAddr: 0x10002A440, symSize: 0x48 }
  - { offsetInCU: 0x33160, offset: 0x33160, size: 0x8, addend: 0x0, symName: __ZNSt3__112__to_addressB8ue170006INS_16reverse_iteratorIPN5boost6detail12adj_list_genINS2_14adjacency_listINS2_4vecSES6_NS2_14bidirectionalSE7Monomer8EdgeDataNS2_11no_propertyENS2_5listSEEES6_S6_S7_S8_S9_SA_SB_E6config13stored_vertexEEEvEEu7__decayIDTclsr19__to_address_helperIT_EE6__callclsr3stdE7declvalIRKSI_EEEEESK_, symObjAddr: 0x275C8, symBinAddr: 0x10002A4BC, symSize: 0x24 }
  - { offsetInCU: 0x331C0, offset: 0x331C0, size: 0x8, addend: 0x0, symName: __ZNSt3__119__allocator_destroyB8ue170006INS_9allocatorIN5boost6detail12adj_list_genINS2_14adjacency_listINS2_4vecSES6_NS2_14bidirectionalSE7Monomer8EdgeDataNS2_11no_propertyENS2_5listSEEES6_S6_S7_S8_S9_SA_SB_E6config13stored_vertexEEENS_16reverse_iteratorINSH_IPSF_EEEESK_EEvRT_T0_T1_, symObjAddr: 0x27E34, symBinAddr: 0x10002AD28, symSize: 0x70 }
  - { offsetInCU: 0x33225, offset: 0x33225, size: 0x8, addend: 0x0, symName: __ZNSt3__1neB8ue170006INS_16reverse_iteratorIPN5boost6detail12adj_list_genINS2_14adjacency_listINS2_4vecSES6_NS2_14bidirectionalSE7Monomer8EdgeDataNS2_11no_propertyENS2_5listSEEES6_S6_S7_S8_S9_SA_SB_E6config13stored_vertexEEESH_EEbRKNS1_IT_EERKNS1_IT0_EE, symObjAddr: 0x27EE0, symBinAddr: 0x10002ADD4, symSize: 0x60 }
  - { offsetInCU: 0x33271, offset: 0x33271, size: 0x8, addend: 0x0, symName: __ZNSt3__112__to_addressB8ue170006INS_16reverse_iteratorINS1_IPN5boost6detail12adj_list_genINS2_14adjacency_listINS2_4vecSES6_NS2_14bidirectionalSE7Monomer8EdgeDataNS2_11no_propertyENS2_5listSEEES6_S6_S7_S8_S9_SA_SB_E6config13stored_vertexEEEEEvEEu7__decayIDTclsr19__to_address_helperIT_EE6__callclsr3stdE7declvalIRKSJ_EEEEESL_, symObjAddr: 0x27F40, symBinAddr: 0x10002AE34, symSize: 0x24 }
  - { offsetInCU: 0x332D0, offset: 0x332D0, size: 0x8, addend: 0x0, symName: __ZNSt3__1neB8ue170006ERKNS_21__tree_const_iteratorINS_12__value_typeINS_12basic_stringIcNS_11char_traitsIcEENS_9allocatorIcEEEElEEPNS_11__tree_nodeIS8_PvEElEESF_, symObjAddr: 0x28764, symBinAddr: 0x10002B658, symSize: 0x34 }
  - { offsetInCU: 0x3330D, offset: 0x3330D, size: 0x8, addend: 0x0, symName: __ZNSt3__1eqB8ue170006ERKNS_21__tree_const_iteratorINS_12__value_typeINS_12basic_stringIcNS_11char_traitsIcEENS_9allocatorIcEEEElEEPNS_11__tree_nodeIS8_PvEElEESF_, symObjAddr: 0x28A90, symBinAddr: 0x10002B984, symSize: 0x30 }
  - { offsetInCU: 0x3334B, offset: 0x3334B, size: 0x8, addend: 0x0, symName: __ZNSt3__111__tree_leafB8ue170006IPNS_16__tree_node_baseIPvEEEET_S5_, symObjAddr: 0x28F88, symBinAddr: 0x10002BE7C, symSize: 0x70 }
  - { offsetInCU: 0x3339E, offset: 0x3339E, size: 0x8, addend: 0x0, symName: __ZNSt3__19make_pairB8ue170006IN5boost6detail20undirected_edge_iterINS_15__list_iteratorINS1_9list_edgeIm8EdgeDataEEPvEENS2_14edge_desc_implINS1_17bidirectional_tagEmEElEESD_EENS_4pairINS_18__unwrap_ref_decayIT_E4typeENSF_IT0_E4typeEEEOSG_OSJ_, symObjAddr: 0x299B0, symBinAddr: 0x10002C8A4, symSize: 0x38 }
  - { offsetInCU: 0x333ED, offset: 0x333ED, size: 0x8, addend: 0x0, symName: __ZNSt3__1eqB8ue170006ERKNS_15__list_iteratorIN5boost9list_edgeIm8EdgeDataEEPvEES8_, symObjAddr: 0x29F24, symBinAddr: 0x10002CE18, symSize: 0x30 }
  - { offsetInCU: 0x334FE, offset: 0x334FE, size: 0x8, addend: 0x0, symName: __ZNSt3__19make_pairB8ue170006IN5boost6detail14edge_desc_implINS1_17bidirectional_tagEmEEbEENS_4pairINS_18__unwrap_ref_decayIT_E4typeENS7_IT0_E4typeEEEOS8_OSB_, symObjAddr: 0x2A62C, symBinAddr: 0x10002D520, symSize: 0x38 }
  - { offsetInCU: 0x3354D, offset: 0x3354D, size: 0x8, addend: 0x0, symName: __ZNSt3__19make_pairB8ue170006INS_15__list_iteratorIN5boost9list_edgeIm8EdgeDataEEPvEEbEENS_4pairINS_18__unwrap_ref_decayIT_E4typeENS9_IT0_E4typeEEEOSA_OSD_, symObjAddr: 0x2AB28, symBinAddr: 0x10002DA1C, symSize: 0x38 }
  - { offsetInCU: 0x3368E, offset: 0x3368E, size: 0x8, addend: 0x0, symName: __ZNSt3__19make_pairB8ue170006INS_11__wrap_iterIPN5boost6detail16stored_edge_iterImNS_15__list_iteratorINS2_9list_edgeIm8EdgeDataEEPvEES7_EEEEbEENS_4pairINS_18__unwrap_ref_decayIT_E4typeENSF_IT0_E4typeEEEOSG_OSJ_, symObjAddr: 0x2B5DC, symBinAddr: 0x10002E4D0, symSize: 0x38 }
  - { offsetInCU: 0x336DD, offset: 0x336DD, size: 0x8, addend: 0x0, symName: __ZNSt3__119__allocate_at_leastB8ue170006INS_9allocatorIN5boost6detail16stored_edge_iterImNS_15__list_iteratorINS2_9list_edgeIm8EdgeDataEEPvEES7_EEEEEENS_19__allocation_resultINS_16allocator_traitsIT_E7pointerEEERSF_m, symObjAddr: 0x2BD60, symBinAddr: 0x10002EC54, symSize: 0x40 }
  - { offsetInCU: 0x33720, offset: 0x33720, size: 0x8, addend: 0x0, symName: __ZNSt3__142__uninitialized_allocator_move_if_noexceptB8ue170006INS_9allocatorIN5boost6detail16stored_edge_iterImNS_15__list_iteratorINS2_9list_edgeIm8EdgeDataEEPvEES7_EEEENS_16reverse_iteratorIPSB_EESF_SB_vEET1_RT_T0_SJ_SG_, symObjAddr: 0x2BF14, symBinAddr: 0x10002EE08, symSize: 0x78 }
  - { offsetInCU: 0x3379E, offset: 0x3379E, size: 0x8, addend: 0x0, symName: __ZNSt3__14swapB8ue170006IPN5boost6detail16stored_edge_iterImNS_15__list_iteratorINS1_9list_edgeIm8EdgeDataEEPvEES6_EEEENS_9enable_ifIXaasr21is_move_constructibleIT_EE5valuesr18is_move_assignableISD_EE5valueEvE4typeERSD_SG_, symObjAddr: 0x2BFD8, symBinAddr: 0x10002EECC, symSize: 0x3C }
  - { offsetInCU: 0x337EF, offset: 0x337EF, size: 0x8, addend: 0x0, symName: __ZNSt3__14moveB8ue170006INS_16reverse_iteratorIPN5boost6detail16stored_edge_iterImNS_15__list_iteratorINS2_9list_edgeIm8EdgeDataEEPvEES7_EEEESD_EET0_T_SF_SE_, symObjAddr: 0x2C0C0, symBinAddr: 0x10002EFB4, symSize: 0x78 }
  - { offsetInCU: 0x33849, offset: 0x33849, size: 0x8, addend: 0x0, symName: __ZNSt3__16__moveB8ue170006INS_17_ClassicAlgPolicyENS_16reverse_iteratorIPN5boost6detail16stored_edge_iterImNS_15__list_iteratorINS3_9list_edgeIm8EdgeDataEEPvEES8_EEEESE_SE_EENS_4pairIT0_T2_EESG_T1_SH_, symObjAddr: 0x2C138, symBinAddr: 0x10002F02C, symSize: 0x64 }
  - { offsetInCU: 0x338B5, offset: 0x338B5, size: 0x8, addend: 0x0, symName: __ZNSt3__123__dispatch_copy_or_moveB8ue170006INS_17_ClassicAlgPolicyENS_11__move_loopIS1_EENS_14__move_trivialENS_16reverse_iteratorIPN5boost6detail16stored_edge_iterImNS_15__list_iteratorINS6_9list_edgeIm8EdgeDataEEPvEESB_EEEESH_SH_EENS_4pairIT2_T4_EESJ_T3_SK_, symObjAddr: 0x2C19C, symBinAddr: 0x10002F090, symSize: 0x64 }
  - { offsetInCU: 0x33933, offset: 0x33933, size: 0x8, addend: 0x0, symName: __ZNSt3__121__unwrap_and_dispatchB8ue170006INS_10__overloadINS_11__move_loopINS_17_ClassicAlgPolicyEEENS_14__move_trivialEEENS_16reverse_iteratorIPN5boost6detail16stored_edge_iterImNS_15__list_iteratorINS8_9list_edgeIm8EdgeDataEEPvEESD_EEEESJ_SJ_Li0EEENS_4pairIT0_T2_EESL_T1_SM_, symObjAddr: 0x2C200, symBinAddr: 0x10002F0F4, symSize: 0x12C }
  - { offsetInCU: 0x339C3, offset: 0x339C3, size: 0x8, addend: 0x0, symName: __ZNSt3__114__unwrap_rangeB8ue170006INS_16reverse_iteratorIPN5boost6detail16stored_edge_iterImNS_15__list_iteratorINS2_9list_edgeIm8EdgeDataEEPvEES7_EEEESD_EENS_4pairIT0_SF_EET_SH_, symObjAddr: 0x2C32C, symBinAddr: 0x10002F220, symSize: 0x84 }
  - { offsetInCU: 0x33B7D, offset: 0x33B7D, size: 0x8, addend: 0x0, symName: __ZNSt3__113__unwrap_iterB8ue170006INS_16reverse_iteratorIPN5boost6detail16stored_edge_iterImNS_15__list_iteratorINS2_9list_edgeIm8EdgeDataEEPvEES7_EEEENS_18__unwrap_iter_implISD_Lb0EEELi0EEEDTclsrT0_8__unwrapclsr3stdE7declvalIT_EEEESH_, symObjAddr: 0x2C450, symBinAddr: 0x10002F344, symSize: 0x44 }
  - { offsetInCU: 0x33BC1, offset: 0x33BC1, size: 0x8, addend: 0x0, symName: __ZNSt3__19make_pairB8ue170006INS_16reverse_iteratorIPN5boost6detail16stored_edge_iterImNS_15__list_iteratorINS2_9list_edgeIm8EdgeDataEEPvEES7_EEEESD_EENS_4pairINS_18__unwrap_ref_decayIT_E4typeENSF_IT0_E4typeEEEOSG_OSJ_, symObjAddr: 0x2C494, symBinAddr: 0x10002F388, symSize: 0x38 }
  - { offsetInCU: 0x33C10, offset: 0x33C10, size: 0x8, addend: 0x0, symName: __ZNSt3__114__rewrap_rangeB8ue170006INS_16reverse_iteratorIPN5boost6detail16stored_edge_iterImNS_15__list_iteratorINS2_9list_edgeIm8EdgeDataEEPvEES7_EEEESD_EET_SE_T0_, symObjAddr: 0x2C4CC, symBinAddr: 0x10002F3C0, symSize: 0x5C }
  - { offsetInCU: 0x33C5C, offset: 0x33C5C, size: 0x8, addend: 0x0, symName: __ZNSt3__113__rewrap_iterB8ue170006INS_16reverse_iteratorIPN5boost6detail16stored_edge_iterImNS_15__list_iteratorINS2_9list_edgeIm8EdgeDataEEPvEES7_EEEESD_NS_18__unwrap_iter_implISD_Lb0EEEEET_SG_T0_, symObjAddr: 0x2C528, symBinAddr: 0x10002F41C, symSize: 0x74 }
  - { offsetInCU: 0x33CB1, offset: 0x33CB1, size: 0x8, addend: 0x0, symName: __ZNSt3__1neB8ue170006IPN5boost6detail16stored_edge_iterImNS_15__list_iteratorINS1_9list_edgeIm8EdgeDataEEPvEES6_EESB_EEbRKNS_16reverse_iteratorIT_EERKNSC_IT0_EE, symObjAddr: 0x2C59C, symBinAddr: 0x10002F490, symSize: 0x48 }
  - { offsetInCU: 0x33E16, offset: 0x33E16, size: 0x8, addend: 0x0, symName: __ZNSt3__119__allocator_destroyB8ue170006INS_9allocatorI5ChainEENS_16reverse_iteratorIPS2_EES6_EEvRT_T0_T1_, symObjAddr: 0x2D3A0, symBinAddr: 0x100030294, symSize: 0x70 }
  - { offsetInCU: 0x33E79, offset: 0x33E79, size: 0x8, addend: 0x0, symName: __ZNSt3__1neB8ue170006IP5ChainS2_EEbRKNS_16reverse_iteratorIT_EERKNS3_IT0_EE, symObjAddr: 0x2D444, symBinAddr: 0x100030338, symSize: 0x48 }
  - { offsetInCU: 0x33EC5, offset: 0x33EC5, size: 0x8, addend: 0x0, symName: __ZNSt3__112__to_addressB8ue170006INS_16reverse_iteratorIP5ChainEEvEEu7__decayIDTclsr19__to_address_helperIT_EE6__callclsr3stdE7declvalIRKS5_EEEEES7_, symObjAddr: 0x2D48C, symBinAddr: 0x100030380, symSize: 0x24 }
  - { offsetInCU: 0x33F77, offset: 0x33F77, size: 0x8, addend: 0x0, symName: __ZNSt3__1neB8ue170006ERKNS_20__map_const_iteratorINS_21__tree_const_iteratorINS_12__value_typeINS_12basic_stringIcNS_11char_traitsIcEENS_9allocatorIcEEEElEEPNS_11__tree_nodeIS9_PvEElEEEESH_, symObjAddr: 0x2DA94, symBinAddr: 0x100030988, symSize: 0x30 }
  - { offsetInCU: 0x33FB4, offset: 0x33FB4, size: 0x8, addend: 0x0, symName: __ZNSt3__14nextB8ue170006INS_21__tree_const_iteratorINS_12__value_typeINS_12basic_stringIcNS_11char_traitsIcEENS_9allocatorIcEEEElEEPNS_11__tree_nodeIS9_PvEElEEEENS_9enable_ifIXsr29__has_input_iterator_categoryIT_EE5valueESG_E4typeESG_NS_15iterator_traitsISG_E15difference_typeE, symObjAddr: 0x2E32C, symBinAddr: 0x100031220, symSize: 0x3C }
  - { offsetInCU: 0x33FF7, offset: 0x33FF7, size: 0x8, addend: 0x0, symName: __ZNSt3__19__advanceB8ue170006INS_21__tree_const_iteratorINS_12__value_typeINS_12basic_stringIcNS_11char_traitsIcEENS_9allocatorIcEEEElEEPNS_11__tree_nodeIS9_PvEElEEEEvRT_NS_15iterator_traitsISF_E15difference_typeENS_26bidirectional_iterator_tagE, symObjAddr: 0x2E438, symBinAddr: 0x10003132C, symSize: 0xA4 }
  - { offsetInCU: 0x34073, offset: 0x34073, size: 0x8, addend: 0x0, symName: __ZNSt3__122__make_exception_guardB8ue170006INS_6vectorI8ReactionNS_9allocatorIS2_EEE16__destroy_vectorEEENS_28__exception_guard_exceptionsIT_EES8_, symObjAddr: 0x2E804, symBinAddr: 0x1000316F8, symSize: 0x40 }
  - { offsetInCU: 0x340A8, offset: 0x340A8, size: 0x8, addend: 0x0, symName: __ZNSt3__119__allocate_at_leastB8ue170006INS_9allocatorI8ReactionEEEENS_19__allocation_resultINS_16allocator_traitsIT_E7pointerEEERS6_m, symObjAddr: 0x2EAA0, symBinAddr: 0x100031994, symSize: 0x40 }
  - { offsetInCU: 0x340EB, offset: 0x340EB, size: 0x8, addend: 0x0, symName: __ZNSt3__130__uninitialized_allocator_copyB8ue170006INS_9allocatorI8ReactionEEPS2_S4_S4_EET2_RT_T0_T1_S5_, symObjAddr: 0x2ECE4, symBinAddr: 0x100031BD8, symSize: 0x80 }
  - { offsetInCU: 0x34188, offset: 0x34188, size: 0x8, addend: 0x0, symName: __ZNSt3__114__unwrap_rangeB8ue170006IP8ReactionS2_EENS_4pairIT0_S4_EET_S6_, symObjAddr: 0x2EDDC, symBinAddr: 0x100031CD0, symSize: 0x60 }
  - { offsetInCU: 0x341D4, offset: 0x341D4, size: 0x8, addend: 0x0, symName: __ZNSt3__135__uninitialized_allocator_copy_implB8ue170006INS_9allocatorI8ReactionEEPS2_S4_S4_EET2_RT_T0_T1_S5_, symObjAddr: 0x2EE3C, symBinAddr: 0x100031D30, symSize: 0xF4 }
  - { offsetInCU: 0x34272, offset: 0x34272, size: 0x8, addend: 0x0, symName: __ZNSt3__113__unwrap_iterB8ue170006IP8ReactionNS_18__unwrap_iter_implIS2_Lb1EEELi0EEEDTclsrT0_8__unwrapclsr3stdE7declvalIT_EEEES6_, symObjAddr: 0x2EF30, symBinAddr: 0x100031E24, symSize: 0x24 }
  - { offsetInCU: 0x342B6, offset: 0x342B6, size: 0x8, addend: 0x0, symName: __ZNSt3__113__rewrap_iterB8ue170006IP8ReactionS2_NS_18__unwrap_iter_implIS2_Lb1EEEEET_S5_T0_, symObjAddr: 0x2EF54, symBinAddr: 0x100031E48, symSize: 0x3C }
  - { offsetInCU: 0x3430B, offset: 0x3430B, size: 0x8, addend: 0x0, symName: __ZNSt3__19make_pairB8ue170006IP8ReactionS2_EENS_4pairINS_18__unwrap_ref_decayIT_E4typeENS4_IT0_E4typeEEEOS5_OS8_, symObjAddr: 0x2EF90, symBinAddr: 0x100031E84, symSize: 0x38 }
  - { offsetInCU: 0x3442E, offset: 0x3442E, size: 0x8, addend: 0x0, symName: __ZNSt3__122__make_exception_guardB8ue170006INS_29_AllocatorDestroyRangeReverseINS_9allocatorI8ReactionEEPS3_EEEENS_28__exception_guard_exceptionsIT_EES8_, symObjAddr: 0x2F038, symBinAddr: 0x100031F2C, symSize: 0x4C }
  - { offsetInCU: 0x34465, offset: 0x34465, size: 0x8, addend: 0x0, symName: __ZNSt3__119__allocator_destroyB8ue170006INS_9allocatorI8ReactionEENS_16reverse_iteratorIPS2_EES6_EEvRT_T0_T1_, symObjAddr: 0x2F2C8, symBinAddr: 0x1000321BC, symSize: 0x70 }
  - { offsetInCU: 0x344C8, offset: 0x344C8, size: 0x8, addend: 0x0, symName: __ZNSt3__1neB8ue170006IP8ReactionS2_EEbRKNS_16reverse_iteratorIT_EERKNS3_IT0_EE, symObjAddr: 0x2F36C, symBinAddr: 0x100032260, symSize: 0x48 }
  - { offsetInCU: 0x34514, offset: 0x34514, size: 0x8, addend: 0x0, symName: __ZNSt3__112__to_addressB8ue170006INS_16reverse_iteratorIP8ReactionEEvEEu7__decayIDTclsr19__to_address_helperIT_EE6__callclsr3stdE7declvalIRKS5_EEEEES7_, symObjAddr: 0x2F3B4, symBinAddr: 0x1000322A8, symSize: 0x24 }
  - { offsetInCU: 0x345C6, offset: 0x345C6, size: 0x8, addend: 0x0, symName: __ZNSt3__122__make_exception_guardB8ue170006INS_6vectorIlNS_9allocatorIlEEE16__destroy_vectorEEENS_28__exception_guard_exceptionsIT_EES7_, symObjAddr: 0x2F810, symBinAddr: 0x100032704, symSize: 0x40 }
  - { offsetInCU: 0x345FB, offset: 0x345FB, size: 0x8, addend: 0x0, symName: __ZNSt3__119__allocate_at_leastB8ue170006INS_9allocatorIlEEEENS_19__allocation_resultINS_16allocator_traitsIT_E7pointerEEERS5_m, symObjAddr: 0x2FAA4, symBinAddr: 0x100032998, symSize: 0x40 }
  - { offsetInCU: 0x3463E, offset: 0x3463E, size: 0x8, addend: 0x0, symName: __ZNSt3__130__uninitialized_allocator_copyB8ue170006INS_9allocatorIlEEPlS3_S3_EET2_RT_T0_T1_S4_, symObjAddr: 0x2FCBC, symBinAddr: 0x100032BB0, symSize: 0x80 }
  - { offsetInCU: 0x346DB, offset: 0x346DB, size: 0x8, addend: 0x0, symName: __ZNSt3__114__unwrap_rangeB8ue170006IPlS1_EENS_4pairIT0_S3_EET_S5_, symObjAddr: 0x2FDAC, symBinAddr: 0x100032CA0, symSize: 0x60 }
  - { offsetInCU: 0x34727, offset: 0x34727, size: 0x8, addend: 0x0, symName: __ZNSt3__135__uninitialized_allocator_copy_implB8ue170006INS_9allocatorIlEElllLPv0EEEPT2_RT_PT0_S9_S5_, symObjAddr: 0x2FE0C, symBinAddr: 0x100032D00, symSize: 0x38 }
  - { offsetInCU: 0x347A8, offset: 0x347A8, size: 0x8, addend: 0x0, symName: __ZNSt3__113__unwrap_iterB8ue170006IPlNS_18__unwrap_iter_implIS1_Lb1EEELi0EEEDTclsrT0_8__unwrapclsr3stdE7declvalIT_EEEES5_, symObjAddr: 0x2FE44, symBinAddr: 0x100032D38, symSize: 0x24 }
  - { offsetInCU: 0x347EC, offset: 0x347EC, size: 0x8, addend: 0x0, symName: __ZNSt3__113__rewrap_iterB8ue170006IPlS1_NS_18__unwrap_iter_implIS1_Lb1EEEEET_S4_T0_, symObjAddr: 0x2FE68, symBinAddr: 0x100032D5C, symSize: 0x3C }
  - { offsetInCU: 0x34841, offset: 0x34841, size: 0x8, addend: 0x0, symName: __ZNSt3__19make_pairB8ue170006IPlS1_EENS_4pairINS_18__unwrap_ref_decayIT_E4typeENS3_IT0_E4typeEEEOS4_OS7_, symObjAddr: 0x2FEA4, symBinAddr: 0x100032D98, symSize: 0x38 }
  - { offsetInCU: 0x34993, offset: 0x34993, size: 0x8, addend: 0x0, symName: __ZNSt3__14copyB8ue170006IPlS1_EET0_T_S3_S2_, symObjAddr: 0x2FF4C, symBinAddr: 0x100032E40, symSize: 0x40 }
  - { offsetInCU: 0x349ED, offset: 0x349ED, size: 0x8, addend: 0x0, symName: __ZNSt3__16__copyB8ue170006INS_17_ClassicAlgPolicyEPlS2_S2_EENS_4pairIT0_T2_EES4_T1_S5_, symObjAddr: 0x2FF8C, symBinAddr: 0x100032E80, symSize: 0x44 }
  - { offsetInCU: 0x34A59, offset: 0x34A59, size: 0x8, addend: 0x0, symName: __ZNSt3__123__dispatch_copy_or_moveB8ue170006INS_17_ClassicAlgPolicyENS_11__copy_loopIS1_EENS_14__copy_trivialEPlS5_S5_EENS_4pairIT2_T4_EES7_T3_S8_, symObjAddr: 0x2FFD0, symBinAddr: 0x100032EC4, symSize: 0x44 }
  - { offsetInCU: 0x34AD7, offset: 0x34AD7, size: 0x8, addend: 0x0, symName: __ZNSt3__121__unwrap_and_dispatchB8ue170006INS_10__overloadINS_11__copy_loopINS_17_ClassicAlgPolicyEEENS_14__copy_trivialEEEPlS7_S7_Li0EEENS_4pairIT0_T2_EES9_T1_SA_, symObjAddr: 0x30014, symBinAddr: 0x100032F08, symSize: 0xB4 }
  - { offsetInCU: 0x34C5F, offset: 0x34C5F, size: 0x8, addend: 0x0, symName: __ZNSt3__114__rewrap_rangeB8ue170006IPlS1_EET_S2_T0_, symObjAddr: 0x30110, symBinAddr: 0x100033004, symSize: 0x2C }
  - { offsetInCU: 0x34CAB, offset: 0x34CAB, size: 0x8, addend: 0x0, symName: __ZNSt3__119__copy_trivial_implB8ue170006IllEENS_4pairIPT_PT0_EES3_S3_S5_, symObjAddr: 0x3013C, symBinAddr: 0x100033030, symSize: 0x80 }
  - { offsetInCU: 0x34D13, offset: 0x34D13, size: 0x8, addend: 0x0, symName: __ZNSt3__119__constexpr_memmoveB8ue170006IllLi0EEEPT_S2_PT0_NS_15__element_countE, symObjAddr: 0x301BC, symBinAddr: 0x1000330B0, symSize: 0x64 }
  - { offsetInCU: 0x34D81, offset: 0x34D81, size: 0x8, addend: 0x0, symName: __ZNSt3__19make_pairB8ue170006IRPlS1_EENS_4pairINS_18__unwrap_ref_decayIT_E4typeENS4_IT0_E4typeEEEOS5_OS8_, symObjAddr: 0x30220, symBinAddr: 0x100033114, symSize: 0x38 }
  - { offsetInCU: 0x34E23, offset: 0x34E23, size: 0x8, addend: 0x0, symName: __ZNSt3__122__make_exception_guardB8ue170006INS_6vectorIdNS_9allocatorIdEEE16__destroy_vectorEEENS_28__exception_guard_exceptionsIT_EES7_, symObjAddr: 0x3061C, symBinAddr: 0x100033510, symSize: 0x40 }
  - { offsetInCU: 0x34E58, offset: 0x34E58, size: 0x8, addend: 0x0, symName: __ZNSt3__119__allocate_at_leastB8ue170006INS_9allocatorIdEEEENS_19__allocation_resultINS_16allocator_traitsIT_E7pointerEEERS5_m, symObjAddr: 0x309BC, symBinAddr: 0x1000338B0, symSize: 0x40 }
  - { offsetInCU: 0x34E9B, offset: 0x34E9B, size: 0x8, addend: 0x0, symName: __ZNSt3__142__uninitialized_allocator_move_if_noexceptB8ue170006INS_9allocatorIlEENS_16reverse_iteratorIPlEES5_lvEET1_RT_T0_S9_S6_, symObjAddr: 0x3166C, symBinAddr: 0x100034560, symSize: 0x78 }
  - { offsetInCU: 0x34F19, offset: 0x34F19, size: 0x8, addend: 0x0, symName: __ZNSt3__14swapB8ue170006IPlEENS_9enable_ifIXaasr21is_move_constructibleIT_EE5valuesr18is_move_assignableIS3_EE5valueEvE4typeERS3_S6_, symObjAddr: 0x31730, symBinAddr: 0x100034624, symSize: 0x3C }
  - { offsetInCU: 0x34F6A, offset: 0x34F6A, size: 0x8, addend: 0x0, symName: __ZNSt3__14moveB8ue170006INS_16reverse_iteratorIPlEES3_EET0_T_S5_S4_, symObjAddr: 0x3176C, symBinAddr: 0x100034660, symSize: 0x78 }
  - { offsetInCU: 0x34FC4, offset: 0x34FC4, size: 0x8, addend: 0x0, symName: __ZNSt3__16__moveB8ue170006INS_17_ClassicAlgPolicyENS_16reverse_iteratorIPlEES4_S4_EENS_4pairIT0_T2_EES6_T1_S7_, symObjAddr: 0x317E4, symBinAddr: 0x1000346D8, symSize: 0x64 }
  - { offsetInCU: 0x35030, offset: 0x35030, size: 0x8, addend: 0x0, symName: __ZNSt3__123__dispatch_copy_or_moveB8ue170006INS_17_ClassicAlgPolicyENS_11__move_loopIS1_EENS_14__move_trivialENS_16reverse_iteratorIPlEES7_S7_EENS_4pairIT2_T4_EES9_T3_SA_, symObjAddr: 0x31848, symBinAddr: 0x10003473C, symSize: 0x64 }
  - { offsetInCU: 0x350AE, offset: 0x350AE, size: 0x8, addend: 0x0, symName: __ZNSt3__121__unwrap_and_dispatchB8ue170006INS_10__overloadINS_11__move_loopINS_17_ClassicAlgPolicyEEENS_14__move_trivialEEENS_16reverse_iteratorIPlEES9_S9_Li0EEENS_4pairIT0_T2_EESB_T1_SC_, symObjAddr: 0x318AC, symBinAddr: 0x1000347A0, symSize: 0x12C }
  - { offsetInCU: 0x3513E, offset: 0x3513E, size: 0x8, addend: 0x0, symName: __ZNSt3__114__unwrap_rangeB8ue170006INS_16reverse_iteratorIPlEES3_EENS_4pairIT0_S5_EET_S7_, symObjAddr: 0x319D8, symBinAddr: 0x1000348CC, symSize: 0x84 }
  - { offsetInCU: 0x3525E, offset: 0x3525E, size: 0x8, addend: 0x0, symName: __ZNSt3__113__unwrap_iterB8ue170006INS_16reverse_iteratorIPlEENS_18__unwrap_iter_implIS3_Lb0EEELi0EEEDTclsrT0_8__unwrapclsr3stdE7declvalIT_EEEES7_, symObjAddr: 0x31AFC, symBinAddr: 0x1000349F0, symSize: 0x44 }
  - { offsetInCU: 0x352A2, offset: 0x352A2, size: 0x8, addend: 0x0, symName: __ZNSt3__19make_pairB8ue170006INS_16reverse_iteratorIPlEES3_EENS_4pairINS_18__unwrap_ref_decayIT_E4typeENS5_IT0_E4typeEEEOS6_OS9_, symObjAddr: 0x31B40, symBinAddr: 0x100034A34, symSize: 0x38 }
  - { offsetInCU: 0x352F1, offset: 0x352F1, size: 0x8, addend: 0x0, symName: __ZNSt3__114__rewrap_rangeB8ue170006INS_16reverse_iteratorIPlEES3_EET_S4_T0_, symObjAddr: 0x31B78, symBinAddr: 0x100034A6C, symSize: 0x5C }
  - { offsetInCU: 0x3533D, offset: 0x3533D, size: 0x8, addend: 0x0, symName: __ZNSt3__113__rewrap_iterB8ue170006INS_16reverse_iteratorIPlEES3_NS_18__unwrap_iter_implIS3_Lb0EEEEET_S6_T0_, symObjAddr: 0x31BD4, symBinAddr: 0x100034AC8, symSize: 0x74 }
  - { offsetInCU: 0x35392, offset: 0x35392, size: 0x8, addend: 0x0, symName: __ZNSt3__1neB8ue170006IPlS1_EEbRKNS_16reverse_iteratorIT_EERKNS2_IT0_EE, symObjAddr: 0x31C48, symBinAddr: 0x100034B3C, symSize: 0x48 }
  - { offsetInCU: 0x3544B, offset: 0x3544B, size: 0x8, addend: 0x0, symName: __ZNSt3__112__to_addressB8ue170006INS_12basic_stringIcNS_11char_traitsIcEENS_9allocatorIcEEEEEEPT_S8_, symObjAddr: 0x32404, symBinAddr: 0x1000352F8, symSize: 0x14 }
  - { offsetInCU: 0x35480, offset: 0x35480, size: 0x8, addend: 0x0, symName: __ZNSt3__18distanceB8ue170006IPNS_3mapINS_12basic_stringIcNS_11char_traitsIcEENS_9allocatorIcEEEElNS_4lessIS7_EENS5_INS_4pairIKS7_lEEEEEEEENS_15iterator_traitsIT_E15difference_typeESH_SH_, symObjAddr: 0x32FA8, symBinAddr: 0x100035E9C, symSize: 0x2C }
  - { offsetInCU: 0x354C3, offset: 0x354C3, size: 0x8, addend: 0x0, symName: __ZNSt3__14nextB8ue170006IPNS_3mapINS_12basic_stringIcNS_11char_traitsIcEENS_9allocatorIcEEEElNS_4lessIS7_EENS5_INS_4pairIKS7_lEEEEEEEENS_9enable_ifIXsr29__has_input_iterator_categoryIT_EE5valueESH_E4typeESH_NS_15iterator_traitsISH_E15difference_typeE, symObjAddr: 0x32FD4, symBinAddr: 0x100035EC8, symSize: 0x34 }
  - { offsetInCU: 0x35506, offset: 0x35506, size: 0x8, addend: 0x0, symName: __ZNSt3__14copyB8ue170006IPNS_3mapINS_12basic_stringIcNS_11char_traitsIcEENS_9allocatorIcEEEElNS_4lessIS7_EENS5_INS_4pairIKS7_lEEEEEESF_EET0_T_SH_SG_, symObjAddr: 0x33008, symBinAddr: 0x100035EFC, symSize: 0x40 }
  - { offsetInCU: 0x35560, offset: 0x35560, size: 0x8, addend: 0x0, symName: __ZNSt3__16__copyB8ue170006INS_17_ClassicAlgPolicyEPNS_3mapINS_12basic_stringIcNS_11char_traitsIcEENS_9allocatorIcEEEElNS_4lessIS8_EENS6_INS_4pairIKS8_lEEEEEESG_SG_EENSB_IT0_T2_EESH_T1_SI_, symObjAddr: 0x33048, symBinAddr: 0x100035F3C, symSize: 0x44 }
  - { offsetInCU: 0x355CD, offset: 0x355CD, size: 0x8, addend: 0x0, symName: __ZNSt3__19__advanceB8ue170006IPNS_3mapINS_12basic_stringIcNS_11char_traitsIcEENS_9allocatorIcEEEElNS_4lessIS7_EENS5_INS_4pairIKS7_lEEEEEEEEvRT_NS_15iterator_traitsISG_E15difference_typeENS_26random_access_iterator_tagE, symObjAddr: 0x33258, symBinAddr: 0x10003614C, symSize: 0x30 }
  - { offsetInCU: 0x35616, offset: 0x35616, size: 0x8, addend: 0x0, symName: __ZNSt3__123__dispatch_copy_or_moveB8ue170006INS_17_ClassicAlgPolicyENS_11__copy_loopIS1_EENS_14__copy_trivialEPNS_3mapINS_12basic_stringIcNS_11char_traitsIcEENS_9allocatorIcEEEElNS_4lessISB_EENS9_INS_4pairIKSB_lEEEEEESJ_SJ_EENSE_IT2_T4_EESK_T3_SL_, symObjAddr: 0x33288, symBinAddr: 0x10003617C, symSize: 0x44 }
  - { offsetInCU: 0x35694, offset: 0x35694, size: 0x8, addend: 0x0, symName: __ZNSt3__121__unwrap_and_dispatchB8ue170006INS_10__overloadINS_11__copy_loopINS_17_ClassicAlgPolicyEEENS_14__copy_trivialEEEPNS_3mapINS_12basic_stringIcNS_11char_traitsIcEENS_9allocatorIcEEEElNS_4lessISD_EENSB_INS_4pairIKSD_lEEEEEESL_SL_Li0EEENSG_IT0_T2_EESM_T1_SN_, symObjAddr: 0x332CC, symBinAddr: 0x1000361C0, symSize: 0xB4 }
  - { offsetInCU: 0x35774, offset: 0x35774, size: 0x8, addend: 0x0, symName: __ZNSt3__114__rewrap_rangeB8ue170006IPNS_3mapINS_12basic_stringIcNS_11char_traitsIcEENS_9allocatorIcEEEElNS_4lessIS7_EENS5_INS_4pairIKS7_lEEEEEESF_EET_SG_T0_, symObjAddr: 0x33408, symBinAddr: 0x1000362FC, symSize: 0x2C }
  - { offsetInCU: 0x357C1, offset: 0x357C1, size: 0x8, addend: 0x0, symName: __ZNSt3__110__distanceB8ue170006IPNS_3mapINS_12basic_stringIcNS_11char_traitsIcEENS_9allocatorIcEEEElNS_4lessIS7_EENS5_INS_4pairIKS7_lEEEEEEEENS_15iterator_traitsIT_E15difference_typeESH_SH_NS_26random_access_iterator_tagE, symObjAddr: 0x33548, symBinAddr: 0x10003643C, symSize: 0x28 }
  - { offsetInCU: 0x3580E, offset: 0x3580E, size: 0x8, addend: 0x0, symName: __ZNSt3__116__pad_and_outputB8ue170006IcNS_11char_traitsIcEEEENS_19ostreambuf_iteratorIT_T0_EES6_PKS4_S8_S8_RNS_8ios_baseES4_, symObjAddr: 0x33778, symBinAddr: 0x10003666C, symSize: 0x240 }
  - { offsetInCU: 0x358DD, offset: 0x358DD, size: 0x8, addend: 0x0, symName: __ZNSt3__19use_facetB8ue170006INS_5ctypeIcEEEERKT_RKNS_6localeE, symObjAddr: 0x33CFC, symBinAddr: 0x100036BF0, symSize: 0x2C }
  - { offsetInCU: 0x35DAA, offset: 0x35DAA, size: 0x8, addend: 0x0, symName: __ZNSt3__122__make_exception_guardB8ue170006INS_6vectorINS_3mapINS_12basic_stringIcNS_11char_traitsIcEENS_9allocatorIcEEEEdNS_4lessIS8_EENS6_INS_4pairIKS8_dEEEEEENS6_ISF_EEE16__destroy_vectorEEENS_28__exception_guard_exceptionsIT_EESK_, symObjAddr: 0x348B0, symBinAddr: 0x1000377A4, symSize: 0x40 }
  - { offsetInCU: 0x35DDF, offset: 0x35DDF, size: 0x8, addend: 0x0, symName: __ZNSt3__119__allocate_at_leastB8ue170006INS_9allocatorINS_3mapINS_12basic_stringIcNS_11char_traitsIcEENS1_IcEEEEdNS_4lessIS7_EENS1_INS_4pairIKS7_dEEEEEEEEEENS_19__allocation_resultINS_16allocator_traitsIT_E7pointerEEERSI_m, symObjAddr: 0x34CAC, symBinAddr: 0x100037BA0, symSize: 0x40 }
  - { offsetInCU: 0x35E23, offset: 0x35E23, size: 0x8, addend: 0x0, symName: __ZNSt3__112__to_addressB8ue170006INS_3mapINS_12basic_stringIcNS_11char_traitsIcEENS_9allocatorIcEEEEdNS_4lessIS7_EENS5_INS_4pairIKS7_dEEEEEEEEPT_SG_, symObjAddr: 0x34FF4, symBinAddr: 0x100037EE8, symSize: 0x14 }
  - { offsetInCU: 0x35E58, offset: 0x35E58, size: 0x8, addend: 0x0, symName: __ZNSt3__1neB8ue170006ERKNS_20__map_const_iteratorINS_21__tree_const_iteratorINS_12__value_typeINS_12basic_stringIcNS_11char_traitsIcEENS_9allocatorIcEEEEdEEPNS_11__tree_nodeIS9_PvEElEEEESH_, symObjAddr: 0x35598, symBinAddr: 0x10003848C, symSize: 0x30 }
  - { offsetInCU: 0x35E95, offset: 0x35E95, size: 0x8, addend: 0x0, symName: __ZNSt3__1neB8ue170006ERKNS_21__tree_const_iteratorINS_12__value_typeINS_12basic_stringIcNS_11char_traitsIcEENS_9allocatorIcEEEEdEEPNS_11__tree_nodeIS8_PvEElEESF_, symObjAddr: 0x356A0, symBinAddr: 0x100038594, symSize: 0x34 }
  - { offsetInCU: 0x35ED2, offset: 0x35ED2, size: 0x8, addend: 0x0, symName: __ZNSt3__1eqB8ue170006ERKNS_21__tree_const_iteratorINS_12__value_typeINS_12basic_stringIcNS_11char_traitsIcEENS_9allocatorIcEEEEdEEPNS_11__tree_nodeIS8_PvEElEESF_, symObjAddr: 0x356D4, symBinAddr: 0x1000385C8, symSize: 0x30 }
  - { offsetInCU: 0x35F0F, offset: 0x35F0F, size: 0x8, addend: 0x0, symName: __ZNSt3__14nextB8ue170006INS_21__tree_const_iteratorINS_12__value_typeINS_12basic_stringIcNS_11char_traitsIcEENS_9allocatorIcEEEEdEEPNS_11__tree_nodeIS9_PvEElEEEENS_9enable_ifIXsr29__has_input_iterator_categoryIT_EE5valueESG_E4typeESG_NS_15iterator_traitsISG_E15difference_typeE, symObjAddr: 0x35DC4, symBinAddr: 0x100038CB8, symSize: 0x3C }
  - { offsetInCU: 0x35F52, offset: 0x35F52, size: 0x8, addend: 0x0, symName: __ZNSt3__19__advanceB8ue170006INS_21__tree_const_iteratorINS_12__value_typeINS_12basic_stringIcNS_11char_traitsIcEENS_9allocatorIcEEEEdEEPNS_11__tree_nodeIS9_PvEElEEEEvRT_NS_15iterator_traitsISF_E15difference_typeENS_26bidirectional_iterator_tagE, symObjAddr: 0x35EC4, symBinAddr: 0x100038DB8, symSize: 0xA4 }
  - { offsetInCU: 0x35FCE, offset: 0x35FCE, size: 0x8, addend: 0x0, symName: __ZNSt3__1neB8ue170006ERKNS_15__tree_iteratorINS_12__value_typeINS_12basic_stringIcNS_11char_traitsIcEENS_9allocatorIcEEEElEEPNS_11__tree_nodeIS8_PvEElEESF_, symObjAddr: 0x3655C, symBinAddr: 0x100039450, symSize: 0x34 }
  - { offsetInCU: 0x3600B, offset: 0x3600B, size: 0x8, addend: 0x0, symName: __ZNSt3__1eqB8ue170006ERKNS_15__tree_iteratorINS_12__value_typeINS_12basic_stringIcNS_11char_traitsIcEENS_9allocatorIcEEEElEEPNS_11__tree_nodeIS8_PvEElEESF_, symObjAddr: 0x36590, symBinAddr: 0x100039484, symSize: 0x30 }
  - { offsetInCU: 0x360FF, offset: 0x360FF, size: 0x8, addend: 0x0, symName: __ZNSt3__130__uninitialized_allocator_copyB8ue170006INS_9allocatorIdEEPKdS4_PdEET2_RT_T0_T1_S6_, symObjAddr: 0x380D4, symBinAddr: 0x10003AFC8, symSize: 0x80 }
  - { offsetInCU: 0x3619C, offset: 0x3619C, size: 0x8, addend: 0x0, symName: __ZNSt3__114__unwrap_rangeB8ue170006IPKdS2_EENS_4pairIT0_S4_EET_S6_, symObjAddr: 0x38154, symBinAddr: 0x10003B048, symSize: 0x60 }
  - { offsetInCU: 0x361E8, offset: 0x361E8, size: 0x8, addend: 0x0, symName: __ZNSt3__135__uninitialized_allocator_copy_implB8ue170006INS_9allocatorIdEEKdddLPv0EEEPT2_RT_PT0_SA_S6_, symObjAddr: 0x381B4, symBinAddr: 0x10003B0A8, symSize: 0x38 }
  - { offsetInCU: 0x36269, offset: 0x36269, size: 0x8, addend: 0x0, symName: __ZNSt3__113__unwrap_iterB8ue170006IPdNS_18__unwrap_iter_implIS1_Lb1EEELi0EEEDTclsrT0_8__unwrapclsr3stdE7declvalIT_EEEES5_, symObjAddr: 0x381EC, symBinAddr: 0x10003B0E0, symSize: 0x24 }
  - { offsetInCU: 0x362AD, offset: 0x362AD, size: 0x8, addend: 0x0, symName: __ZNSt3__113__rewrap_iterB8ue170006IPdS1_NS_18__unwrap_iter_implIS1_Lb1EEEEET_S4_T0_, symObjAddr: 0x38210, symBinAddr: 0x10003B104, symSize: 0x3C }
  - { offsetInCU: 0x36302, offset: 0x36302, size: 0x8, addend: 0x0, symName: __ZNSt3__19make_pairB8ue170006IPKdS2_EENS_4pairINS_18__unwrap_ref_decayIT_E4typeENS4_IT0_E4typeEEEOS5_OS8_, symObjAddr: 0x3824C, symBinAddr: 0x10003B140, symSize: 0x38 }
  - { offsetInCU: 0x36351, offset: 0x36351, size: 0x8, addend: 0x0, symName: __ZNSt3__113__unwrap_iterB8ue170006IPKdNS_18__unwrap_iter_implIS2_Lb1EEELi0EEEDTclsrT0_8__unwrapclsr3stdE7declvalIT_EEEES6_, symObjAddr: 0x38284, symBinAddr: 0x10003B178, symSize: 0x24 }
  - { offsetInCU: 0x364BD, offset: 0x364BD, size: 0x8, addend: 0x0, symName: __ZNSt3__112__to_addressB8ue170006IKdEEPT_S3_, symObjAddr: 0x3833C, symBinAddr: 0x10003B230, symSize: 0x14 }
  - { offsetInCU: 0x364F2, offset: 0x364F2, size: 0x8, addend: 0x0, symName: __ZNSt3__14copyB8ue170006IPKdPdEET0_T_S5_S4_, symObjAddr: 0x38350, symBinAddr: 0x10003B244, symSize: 0x40 }
  - { offsetInCU: 0x3654C, offset: 0x3654C, size: 0x8, addend: 0x0, symName: __ZNSt3__16__copyB8ue170006INS_17_ClassicAlgPolicyEPKdS3_PdEENS_4pairIT0_T2_EES6_T1_S7_, symObjAddr: 0x38390, symBinAddr: 0x10003B284, symSize: 0x44 }
  - { offsetInCU: 0x365B8, offset: 0x365B8, size: 0x8, addend: 0x0, symName: __ZNSt3__123__dispatch_copy_or_moveB8ue170006INS_17_ClassicAlgPolicyENS_11__copy_loopIS1_EENS_14__copy_trivialEPKdS6_PdEENS_4pairIT2_T4_EES9_T3_SA_, symObjAddr: 0x383D4, symBinAddr: 0x10003B2C8, symSize: 0x44 }
  - { offsetInCU: 0x36636, offset: 0x36636, size: 0x8, addend: 0x0, symName: __ZNSt3__121__unwrap_and_dispatchB8ue170006INS_10__overloadINS_11__copy_loopINS_17_ClassicAlgPolicyEEENS_14__copy_trivialEEEPKdS8_PdLi0EEENS_4pairIT0_T2_EESB_T1_SC_, symObjAddr: 0x38418, symBinAddr: 0x10003B30C, symSize: 0xB4 }
  - { offsetInCU: 0x367C7, offset: 0x367C7, size: 0x8, addend: 0x0, symName: __ZNSt3__19make_pairB8ue170006IPKdPdEENS_4pairINS_18__unwrap_ref_decayIT_E4typeENS5_IT0_E4typeEEEOS6_OS9_, symObjAddr: 0x38514, symBinAddr: 0x10003B408, symSize: 0x38 }
  - { offsetInCU: 0x36816, offset: 0x36816, size: 0x8, addend: 0x0, symName: __ZNSt3__114__rewrap_rangeB8ue170006IPKdS2_EET_S3_T0_, symObjAddr: 0x3854C, symBinAddr: 0x10003B440, symSize: 0x2C }
  - { offsetInCU: 0x36862, offset: 0x36862, size: 0x8, addend: 0x0, symName: __ZNSt3__119__copy_trivial_implB8ue170006IKddEENS_4pairIPT_PT0_EES4_S4_S6_, symObjAddr: 0x38578, symBinAddr: 0x10003B46C, symSize: 0x80 }
  - { offsetInCU: 0x368CA, offset: 0x368CA, size: 0x8, addend: 0x0, symName: __ZNSt3__119__constexpr_memmoveB8ue170006IdKdLi0EEEPT_S3_PT0_NS_15__element_countE, symObjAddr: 0x385F8, symBinAddr: 0x10003B4EC, symSize: 0x64 }
  - { offsetInCU: 0x36938, offset: 0x36938, size: 0x8, addend: 0x0, symName: __ZNSt3__19make_pairB8ue170006IRPKdPdEENS_4pairINS_18__unwrap_ref_decayIT_E4typeENS6_IT0_E4typeEEEOS7_OSA_, symObjAddr: 0x3865C, symBinAddr: 0x10003B550, symSize: 0x38 }
  - { offsetInCU: 0x36987, offset: 0x36987, size: 0x8, addend: 0x0, symName: __ZNSt3__113__rewrap_iterB8ue170006IPKdS2_NS_18__unwrap_iter_implIS2_Lb1EEEEET_S5_T0_, symObjAddr: 0x38774, symBinAddr: 0x10003B668, symSize: 0x3C }
  - { offsetInCU: 0x36A30, offset: 0x36A30, size: 0x8, addend: 0x0, symName: __ZNSt3__112__to_addressB8ue170006IcEEPT_S2_, symObjAddr: 0x38C54, symBinAddr: 0x10003BB48, symSize: 0x14 }
  - { offsetInCU: 0x36C67, offset: 0x36C67, size: 0x8, addend: 0x0, symName: __ZNSt3__14copyB8ue170006IPKcPcEET0_T_S5_S4_, symObjAddr: 0x392D8, symBinAddr: 0x10003C1CC, symSize: 0x40 }
  - { offsetInCU: 0x36CC1, offset: 0x36CC1, size: 0x8, addend: 0x0, symName: __ZNSt3__16__copyB8ue170006INS_17_ClassicAlgPolicyEPKcS3_PcEENS_4pairIT0_T2_EES6_T1_S7_, symObjAddr: 0x39318, symBinAddr: 0x10003C20C, symSize: 0x44 }
  - { offsetInCU: 0x36D2D, offset: 0x36D2D, size: 0x8, addend: 0x0, symName: __ZNSt3__123__dispatch_copy_or_moveB8ue170006INS_17_ClassicAlgPolicyENS_11__copy_loopIS1_EENS_14__copy_trivialEPKcS6_PcEENS_4pairIT2_T4_EES9_T3_SA_, symObjAddr: 0x3935C, symBinAddr: 0x10003C250, symSize: 0x44 }
  - { offsetInCU: 0x36DAB, offset: 0x36DAB, size: 0x8, addend: 0x0, symName: __ZNSt3__121__unwrap_and_dispatchB8ue170006INS_10__overloadINS_11__copy_loopINS_17_ClassicAlgPolicyEEENS_14__copy_trivialEEEPKcS8_PcLi0EEENS_4pairIT0_T2_EESB_T1_SC_, symObjAddr: 0x393A0, symBinAddr: 0x10003C294, symSize: 0xB4 }
  - { offsetInCU: 0x36E39, offset: 0x36E39, size: 0x8, addend: 0x0, symName: __ZNSt3__114__unwrap_rangeB8ue170006IPKcS2_EENS_4pairIT0_S4_EET_S6_, symObjAddr: 0x39454, symBinAddr: 0x10003C348, symSize: 0x60 }
  - { offsetInCU: 0x36F88, offset: 0x36F88, size: 0x8, addend: 0x0, symName: __ZNSt3__113__unwrap_iterB8ue170006IPcNS_18__unwrap_iter_implIS1_Lb1EEELi0EEEDTclsrT0_8__unwrapclsr3stdE7declvalIT_EEEES5_, symObjAddr: 0x394FC, symBinAddr: 0x10003C3F0, symSize: 0x24 }
  - { offsetInCU: 0x36FCC, offset: 0x36FCC, size: 0x8, addend: 0x0, symName: __ZNSt3__19make_pairB8ue170006IPKcPcEENS_4pairINS_18__unwrap_ref_decayIT_E4typeENS5_IT0_E4typeEEEOS6_OS9_, symObjAddr: 0x39520, symBinAddr: 0x10003C414, symSize: 0x38 }
  - { offsetInCU: 0x3701B, offset: 0x3701B, size: 0x8, addend: 0x0, symName: __ZNSt3__114__rewrap_rangeB8ue170006IPKcS2_EET_S3_T0_, symObjAddr: 0x39558, symBinAddr: 0x10003C44C, symSize: 0x2C }
  - { offsetInCU: 0x37067, offset: 0x37067, size: 0x8, addend: 0x0, symName: __ZNSt3__113__rewrap_iterB8ue170006IPcS1_NS_18__unwrap_iter_implIS1_Lb1EEEEET_S4_T0_, symObjAddr: 0x39584, symBinAddr: 0x10003C478, symSize: 0x3C }
  - { offsetInCU: 0x370BC, offset: 0x370BC, size: 0x8, addend: 0x0, symName: __ZNSt3__19make_pairB8ue170006IPKcS2_EENS_4pairINS_18__unwrap_ref_decayIT_E4typeENS4_IT0_E4typeEEEOS5_OS8_, symObjAddr: 0x395C0, symBinAddr: 0x10003C4B4, symSize: 0x38 }
  - { offsetInCU: 0x3710B, offset: 0x3710B, size: 0x8, addend: 0x0, symName: __ZNSt3__113__unwrap_iterB8ue170006IPKcNS_18__unwrap_iter_implIS2_Lb1EEELi0EEEDTclsrT0_8__unwrapclsr3stdE7declvalIT_EEEES6_, symObjAddr: 0x395F8, symBinAddr: 0x10003C4EC, symSize: 0x24 }
  - { offsetInCU: 0x37276, offset: 0x37276, size: 0x8, addend: 0x0, symName: __ZNSt3__119__copy_trivial_implB8ue170006IKccEENS_4pairIPT_PT0_EES4_S4_S6_, symObjAddr: 0x396B0, symBinAddr: 0x10003C5A4, symSize: 0x78 }
  - { offsetInCU: 0x372DE, offset: 0x372DE, size: 0x8, addend: 0x0, symName: __ZNSt3__119__constexpr_memmoveB8ue170006IcKcLi0EEEPT_S3_PT0_NS_15__element_countE, symObjAddr: 0x39728, symBinAddr: 0x10003C61C, symSize: 0x64 }
  - { offsetInCU: 0x3734C, offset: 0x3734C, size: 0x8, addend: 0x0, symName: __ZNSt3__19make_pairB8ue170006IRPKcPcEENS_4pairINS_18__unwrap_ref_decayIT_E4typeENS6_IT0_E4typeEEEOS7_OSA_, symObjAddr: 0x3978C, symBinAddr: 0x10003C680, symSize: 0x38 }
  - { offsetInCU: 0x373EE, offset: 0x373EE, size: 0x8, addend: 0x0, symName: __ZNSt3__113__rewrap_iterB8ue170006IPKcS2_NS_18__unwrap_iter_implIS2_Lb1EEEEET_S5_T0_, symObjAddr: 0x398C8, symBinAddr: 0x10003C7BC, symSize: 0x3C }
  - { offsetInCU: 0x37443, offset: 0x37443, size: 0x8, addend: 0x0, symName: __ZNSt3__16fill_nB8ue170006IPcmcEET_S2_T0_RKT1_, symObjAddr: 0x39994, symBinAddr: 0x10003C888, symSize: 0x44 }
  - { offsetInCU: 0x374A7, offset: 0x374A7, size: 0x8, addend: 0x0, symName: __ZNSt3__18__fill_nB8ue170006IPcmcEET_S2_T0_RKT1_, symObjAddr: 0x399D8, symBinAddr: 0x10003C8CC, symSize: 0x64 }
  - { offsetInCU: 0x3750B, offset: 0x3750B, size: 0x8, addend: 0x0, symName: __ZNSt3__121__convert_to_integralB8ue170006Em, symObjAddr: 0x39A3C, symBinAddr: 0x10003C930, symSize: 0x14 }
  - { offsetInCU: 0x37537, offset: 0x37537, size: 0x8, addend: 0x0, symName: __ZNSt3__118generate_canonicalB8ue170006IdLm53ENS_23mersenne_twister_engineIjLm32ELm624ELm397ELm31ELj2567483615ELm11ELj4294967295ELm7ELj2636928640ELm15ELj4022730752ELm18ELj1812433253EEEEET_RT1_, symObjAddr: 0x39CB0, symBinAddr: 0x10003CBA4, symSize: 0x114 }
  - { offsetInCU: 0x375FE, offset: 0x375FE, size: 0x8, addend: 0x0, symName: __ZNSt3__130__uninitialized_allocator_copyB8ue170006INS_9allocatorIdEEPdS3_S3_EET2_RT_T0_T1_S4_, symObjAddr: 0x3A26C, symBinAddr: 0x10003D160, symSize: 0x80 }
  - { offsetInCU: 0x3769B, offset: 0x3769B, size: 0x8, addend: 0x0, symName: __ZNSt3__114__unwrap_rangeB8ue170006IPdS1_EENS_4pairIT0_S3_EET_S5_, symObjAddr: 0x3A2EC, symBinAddr: 0x10003D1E0, symSize: 0x60 }
  - { offsetInCU: 0x376E7, offset: 0x376E7, size: 0x8, addend: 0x0, symName: __ZNSt3__135__uninitialized_allocator_copy_implB8ue170006INS_9allocatorIdEEdddLPv0EEEPT2_RT_PT0_S9_S5_, symObjAddr: 0x3A34C, symBinAddr: 0x10003D240, symSize: 0x38 }
  - { offsetInCU: 0x37768, offset: 0x37768, size: 0x8, addend: 0x0, symName: __ZNSt3__19make_pairB8ue170006IPdS1_EENS_4pairINS_18__unwrap_ref_decayIT_E4typeENS3_IT0_E4typeEEEOS4_OS7_, symObjAddr: 0x3A384, symBinAddr: 0x10003D278, symSize: 0x38 }
  - { offsetInCU: 0x378BA, offset: 0x378BA, size: 0x8, addend: 0x0, symName: __ZNSt3__14copyB8ue170006IPdS1_EET0_T_S3_S2_, symObjAddr: 0x3A42C, symBinAddr: 0x10003D320, symSize: 0x40 }
  - { offsetInCU: 0x37914, offset: 0x37914, size: 0x8, addend: 0x0, symName: __ZNSt3__16__copyB8ue170006INS_17_ClassicAlgPolicyEPdS2_S2_EENS_4pairIT0_T2_EES4_T1_S5_, symObjAddr: 0x3A46C, symBinAddr: 0x10003D360, symSize: 0x44 }
  - { offsetInCU: 0x37980, offset: 0x37980, size: 0x8, addend: 0x0, symName: __ZNSt3__123__dispatch_copy_or_moveB8ue170006INS_17_ClassicAlgPolicyENS_11__copy_loopIS1_EENS_14__copy_trivialEPdS5_S5_EENS_4pairIT2_T4_EES7_T3_S8_, symObjAddr: 0x3A4B0, symBinAddr: 0x10003D3A4, symSize: 0x44 }
  - { offsetInCU: 0x379FE, offset: 0x379FE, size: 0x8, addend: 0x0, symName: __ZNSt3__121__unwrap_and_dispatchB8ue170006INS_10__overloadINS_11__copy_loopINS_17_ClassicAlgPolicyEEENS_14__copy_trivialEEEPdS7_S7_Li0EEENS_4pairIT0_T2_EES9_T1_SA_, symObjAddr: 0x3A4F4, symBinAddr: 0x10003D3E8, symSize: 0xB4 }
  - { offsetInCU: 0x37A8C, offset: 0x37A8C, size: 0x8, addend: 0x0, symName: __ZNSt3__114__rewrap_rangeB8ue170006IPdS1_EET_S2_T0_, symObjAddr: 0x3A5F0, symBinAddr: 0x10003D4E4, symSize: 0x2C }
  - { offsetInCU: 0x37AD8, offset: 0x37AD8, size: 0x8, addend: 0x0, symName: __ZNSt3__119__copy_trivial_implB8ue170006IddEENS_4pairIPT_PT0_EES3_S3_S5_, symObjAddr: 0x3A61C, symBinAddr: 0x10003D510, symSize: 0x80 }
  - { offsetInCU: 0x37B40, offset: 0x37B40, size: 0x8, addend: 0x0, symName: __ZNSt3__119__constexpr_memmoveB8ue170006IddLi0EEEPT_S2_PT0_NS_15__element_countE, symObjAddr: 0x3A69C, symBinAddr: 0x10003D590, symSize: 0x64 }
  - { offsetInCU: 0x37BAE, offset: 0x37BAE, size: 0x8, addend: 0x0, symName: __ZNSt3__19make_pairB8ue170006IRPdS1_EENS_4pairINS_18__unwrap_ref_decayIT_E4typeENS4_IT0_E4typeEEEOS5_OS8_, symObjAddr: 0x3A700, symBinAddr: 0x10003D5F4, symSize: 0x38 }
  - { offsetInCU: 0x37BFD, offset: 0x37BFD, size: 0x8, addend: 0x0, symName: __ZNSt3__130__uninitialized_allocator_copyB8ue170006INS_9allocatorINS_3mapINS_12basic_stringIcNS_11char_traitsIcEENS1_IcEEEEdNS_4lessIS7_EENS1_INS_4pairIKS7_dEEEEEEEEPSE_SG_SG_EET2_RT_T0_T1_SH_, symObjAddr: 0x3AA28, symBinAddr: 0x10003D91C, symSize: 0x80 }
  - { offsetInCU: 0x37C9A, offset: 0x37C9A, size: 0x8, addend: 0x0, symName: __ZNSt3__114__unwrap_rangeB8ue170006IPNS_3mapINS_12basic_stringIcNS_11char_traitsIcEENS_9allocatorIcEEEEdNS_4lessIS7_EENS5_INS_4pairIKS7_dEEEEEESF_EENSA_IT0_SG_EET_SI_, symObjAddr: 0x3AAA8, symBinAddr: 0x10003D99C, symSize: 0x60 }
  - { offsetInCU: 0x37CE6, offset: 0x37CE6, size: 0x8, addend: 0x0, symName: __ZNSt3__135__uninitialized_allocator_copy_implB8ue170006INS_9allocatorINS_3mapINS_12basic_stringIcNS_11char_traitsIcEENS1_IcEEEEdNS_4lessIS7_EENS1_INS_4pairIKS7_dEEEEEEEEPSE_SG_SG_EET2_RT_T0_T1_SH_, symObjAddr: 0x3AB08, symBinAddr: 0x10003D9FC, symSize: 0xF4 }
  - { offsetInCU: 0x37D84, offset: 0x37D84, size: 0x8, addend: 0x0, symName: __ZNSt3__113__unwrap_iterB8ue170006IPNS_3mapINS_12basic_stringIcNS_11char_traitsIcEENS_9allocatorIcEEEEdNS_4lessIS7_EENS5_INS_4pairIKS7_dEEEEEENS_18__unwrap_iter_implISF_Lb1EEELi0EEEDTclsrT0_8__unwrapclsr3stdE7declvalIT_EEEESJ_, symObjAddr: 0x3ABFC, symBinAddr: 0x10003DAF0, symSize: 0x24 }
  - { offsetInCU: 0x37DC8, offset: 0x37DC8, size: 0x8, addend: 0x0, symName: __ZNSt3__113__rewrap_iterB8ue170006IPNS_3mapINS_12basic_stringIcNS_11char_traitsIcEENS_9allocatorIcEEEEdNS_4lessIS7_EENS5_INS_4pairIKS7_dEEEEEESF_NS_18__unwrap_iter_implISF_Lb1EEEEET_SI_T0_, symObjAddr: 0x3AC20, symBinAddr: 0x10003DB14, symSize: 0x3C }
  - { offsetInCU: 0x37E1D, offset: 0x37E1D, size: 0x8, addend: 0x0, symName: __ZNSt3__19make_pairB8ue170006IPNS_3mapINS_12basic_stringIcNS_11char_traitsIcEENS_9allocatorIcEEEEdNS_4lessIS7_EENS5_INS_4pairIKS7_dEEEEEESF_EENSA_INS_18__unwrap_ref_decayIT_E4typeENSG_IT0_E4typeEEEOSH_OSK_, symObjAddr: 0x3AC5C, symBinAddr: 0x10003DB50, symSize: 0x38 }
  - { offsetInCU: 0x37F40, offset: 0x37F40, size: 0x8, addend: 0x0, symName: __ZNSt3__122__make_exception_guardB8ue170006INS_29_AllocatorDestroyRangeReverseINS_9allocatorINS_3mapINS_12basic_stringIcNS_11char_traitsIcEENS2_IcEEEEdNS_4lessIS8_EENS2_INS_4pairIKS8_dEEEEEEEEPSF_EEEENS_28__exception_guard_exceptionsIT_EESK_, symObjAddr: 0x3AD04, symBinAddr: 0x10003DBF8, symSize: 0x4C }
  - { offsetInCU: 0x37F77, offset: 0x37F77, size: 0x8, addend: 0x0, symName: __ZNSt3__119__allocator_destroyB8ue170006INS_9allocatorINS_3mapINS_12basic_stringIcNS_11char_traitsIcEENS1_IcEEEEdNS_4lessIS7_EENS1_INS_4pairIKS7_dEEEEEEEENS_16reverse_iteratorIPSE_EESI_EEvRT_T0_T1_, symObjAddr: 0x3AF94, symBinAddr: 0x10003DE88, symSize: 0x70 }
  - { offsetInCU: 0x37FDA, offset: 0x37FDA, size: 0x8, addend: 0x0, symName: __ZNSt3__1neB8ue170006IPNS_3mapINS_12basic_stringIcNS_11char_traitsIcEENS_9allocatorIcEEEEdNS_4lessIS7_EENS5_INS_4pairIKS7_dEEEEEESF_EEbRKNS_16reverse_iteratorIT_EERKNSG_IT0_EE, symObjAddr: 0x3B038, symBinAddr: 0x10003DF2C, symSize: 0x48 }
  - { offsetInCU: 0x38026, offset: 0x38026, size: 0x8, addend: 0x0, symName: __ZNSt3__112__to_addressB8ue170006INS_16reverse_iteratorIPNS_3mapINS_12basic_stringIcNS_11char_traitsIcEENS_9allocatorIcEEEEdNS_4lessIS8_EENS6_INS_4pairIKS8_dEEEEEEEEvEEu7__decayIDTclsr19__to_address_helperIT_EE6__callclsr3stdE7declvalIRKSI_EEEEESK_, symObjAddr: 0x3B080, symBinAddr: 0x10003DF74, symSize: 0x24 }
  - { offsetInCU: 0x380D8, offset: 0x380D8, size: 0x8, addend: 0x0, symName: __ZNSt3__122__make_exception_guardB8ue170006INS_6vectorINS_12basic_stringIcNS_11char_traitsIcEENS_9allocatorIcEEEENS5_IS7_EEE16__destroy_vectorEEENS_28__exception_guard_exceptionsIT_EESC_, symObjAddr: 0x3B474, symBinAddr: 0x10003E368, symSize: 0x40 }
  - { offsetInCU: 0x3810D, offset: 0x3810D, size: 0x8, addend: 0x0, symName: __ZNSt3__119__allocate_at_leastB8ue170006INS_9allocatorINS_12basic_stringIcNS_11char_traitsIcEENS1_IcEEEEEEEENS_19__allocation_resultINS_16allocator_traitsIT_E7pointerEEERSA_m, symObjAddr: 0x3B710, symBinAddr: 0x10003E604, symSize: 0x40 }
  - { offsetInCU: 0x38150, offset: 0x38150, size: 0x8, addend: 0x0, symName: __ZNSt3__130__uninitialized_allocator_copyB8ue170006INS_9allocatorINS_12basic_stringIcNS_11char_traitsIcEENS1_IcEEEEEEPS6_S8_S8_EET2_RT_T0_T1_S9_, symObjAddr: 0x3B94C, symBinAddr: 0x10003E840, symSize: 0x80 }
  - { offsetInCU: 0x381ED, offset: 0x381ED, size: 0x8, addend: 0x0, symName: __ZNSt3__114__unwrap_rangeB8ue170006IPNS_12basic_stringIcNS_11char_traitsIcEENS_9allocatorIcEEEES7_EENS_4pairIT0_S9_EET_SB_, symObjAddr: 0x3BA44, symBinAddr: 0x10003E938, symSize: 0x60 }
  - { offsetInCU: 0x38239, offset: 0x38239, size: 0x8, addend: 0x0, symName: __ZNSt3__135__uninitialized_allocator_copy_implB8ue170006INS_9allocatorINS_12basic_stringIcNS_11char_traitsIcEENS1_IcEEEEEEPS6_S8_S8_EET2_RT_T0_T1_S9_, symObjAddr: 0x3BAA4, symBinAddr: 0x10003E998, symSize: 0xF4 }
  - { offsetInCU: 0x382D7, offset: 0x382D7, size: 0x8, addend: 0x0, symName: __ZNSt3__113__unwrap_iterB8ue170006IPNS_12basic_stringIcNS_11char_traitsIcEENS_9allocatorIcEEEENS_18__unwrap_iter_implIS7_Lb1EEELi0EEEDTclsrT0_8__unwrapclsr3stdE7declvalIT_EEEESB_, symObjAddr: 0x3BB98, symBinAddr: 0x10003EA8C, symSize: 0x24 }
  - { offsetInCU: 0x3831B, offset: 0x3831B, size: 0x8, addend: 0x0, symName: __ZNSt3__113__rewrap_iterB8ue170006IPNS_12basic_stringIcNS_11char_traitsIcEENS_9allocatorIcEEEES7_NS_18__unwrap_iter_implIS7_Lb1EEEEET_SA_T0_, symObjAddr: 0x3BBBC, symBinAddr: 0x10003EAB0, symSize: 0x3C }
  - { offsetInCU: 0x38370, offset: 0x38370, size: 0x8, addend: 0x0, symName: __ZNSt3__19make_pairB8ue170006IPNS_12basic_stringIcNS_11char_traitsIcEENS_9allocatorIcEEEES7_EENS_4pairINS_18__unwrap_ref_decayIT_E4typeENS9_IT0_E4typeEEEOSA_OSD_, symObjAddr: 0x3BBF8, symBinAddr: 0x10003EAEC, symSize: 0x38 }
  - { offsetInCU: 0x38493, offset: 0x38493, size: 0x8, addend: 0x0, symName: __ZNSt3__122__make_exception_guardB8ue170006INS_29_AllocatorDestroyRangeReverseINS_9allocatorINS_12basic_stringIcNS_11char_traitsIcEENS2_IcEEEEEEPS7_EEEENS_28__exception_guard_exceptionsIT_EESC_, symObjAddr: 0x3BCA0, symBinAddr: 0x10003EB94, symSize: 0x4C }
  - { offsetInCU: 0x384CA, offset: 0x384CA, size: 0x8, addend: 0x0, symName: __ZNSt3__119__allocator_destroyB8ue170006INS_9allocatorINS_12basic_stringIcNS_11char_traitsIcEENS1_IcEEEEEENS_16reverse_iteratorIPS6_EESA_EEvRT_T0_T1_, symObjAddr: 0x3BF30, symBinAddr: 0x10003EE24, symSize: 0x70 }
  - { offsetInCU: 0x3852D, offset: 0x3852D, size: 0x8, addend: 0x0, symName: __ZNSt3__1neB8ue170006IPNS_12basic_stringIcNS_11char_traitsIcEENS_9allocatorIcEEEES7_EEbRKNS_16reverse_iteratorIT_EERKNS8_IT0_EE, symObjAddr: 0x3BFD4, symBinAddr: 0x10003EEC8, symSize: 0x48 }
  - { offsetInCU: 0x38579, offset: 0x38579, size: 0x8, addend: 0x0, symName: __ZNSt3__112__to_addressB8ue170006INS_16reverse_iteratorIPNS_12basic_stringIcNS_11char_traitsIcEENS_9allocatorIcEEEEEEvEEu7__decayIDTclsr19__to_address_helperIT_EE6__callclsr3stdE7declvalIRKSA_EEEEESC_, symObjAddr: 0x3C01C, symBinAddr: 0x10003EF10, symSize: 0x24 }
  - { offsetInCU: 0x3862B, offset: 0x3862B, size: 0x8, addend: 0x0, symName: __ZNSt3__1neB8ue170006ERKNS_15__tree_iteratorINS_12__value_typeINS_12basic_stringIcNS_11char_traitsIcEENS_9allocatorIcEEEEbEEPNS_11__tree_nodeIS8_PvEElEESF_, symObjAddr: 0x3C3D8, symBinAddr: 0x10003F2CC, symSize: 0x34 }
  - { offsetInCU: 0x38668, offset: 0x38668, size: 0x8, addend: 0x0, symName: __ZNSt3__1eqB8ue170006ERKNS_15__tree_iteratorINS_12__value_typeINS_12basic_stringIcNS_11char_traitsIcEENS_9allocatorIcEEEEbEEPNS_11__tree_nodeIS8_PvEElEESF_, symObjAddr: 0x3C590, symBinAddr: 0x10003F484, symSize: 0x30 }
  - { offsetInCU: 0x39524, offset: 0x39524, size: 0x8, addend: 0x0, symName: __ZSt28__throw_bad_array_new_lengthB8ue170006v, symObjAddr: 0x14F50, symBinAddr: 0x100017E44, symSize: 0x34 }
  - { offsetInCU: 0x398E9, offset: 0x398E9, size: 0x8, addend: 0x0, symName: __ZNK5boost17integral_constantIbLb1EEcvRKN4mpl_5bool_ILb1EEEEv, symObjAddr: 0x26238, symBinAddr: 0x10002912C, symSize: 0x1C }
  - { offsetInCU: 0x3990D, offset: 0x3990D, size: 0x8, addend: 0x0, symName: __ZZNK5boost17integral_constantIbLb1EEcvRKN4mpl_5bool_ILb1EEEEvE4data, symObjAddr: 0x3FF31, symBinAddr: 0x10008C399, symSize: 0x0 }
  - { offsetInCU: 0x39923, offset: 0x39923, size: 0x8, addend: 0x0, symName: __ZZNK5boost17integral_constantIbLb1EEcvRKN4mpl_5bool_ILb1EEEEvE5pdata, symObjAddr: 0x40090, symBinAddr: 0x10009C000, symSize: 0x0 }
  - { offsetInCU: 0x3B377, offset: 0x3B377, size: 0x8, addend: 0x0, symName: __ZNKSt3__16chrono15__duration_castINS0_8durationIxNS_5ratioILl1ELl1000000000EEEEENS2_IdNS3_ILl1ELl1EEEEES4_Lb1ELb0EEclB8ue170006ERKS5_, symObjAddr: 0x1E58C, symBinAddr: 0x100021480, symSize: 0x50 }
  - { offsetInCU: 0x3B3B5, offset: 0x3B3B5, size: 0x8, addend: 0x0, symName: __Z3powB8ue170006IidENSt3__19enable_ifIXaasr3std13is_arithmeticIT_EE5valuesr3std13is_arithmeticIT0_EE5valueENS0_9__promoteIS2_S3_vEEE4type4typeES2_S3_, symObjAddr: 0x1D0, symBinAddr: 0x1000030C4, symSize: 0x38 }
  - { offsetInCU: 0x3CE55, offset: 0x3CE55, size: 0x8, addend: 0x0, symName: __ZNSt3__16vectorIN5boost6detail12adj_list_genINS1_14adjacency_listINS1_4vecSES5_NS1_14bidirectionalSE7Monomer8EdgeDataNS1_11no_propertyENS1_5listSEEES5_S5_S6_S7_S8_S9_SA_E6config13stored_vertexENS_9allocatorISE_EEE26__swap_out_circular_bufferERNS_14__split_bufferISE_RSG_EE, symObjAddr: 0x26770, symBinAddr: 0x100029664, symSize: 0x110 }
  - { offsetInCU: 0x3CF46, offset: 0x3CF46, size: 0x8, addend: 0x0, symName: __ZNSt3__16vectorIN5boost6detail16stored_edge_iterImNS_15__list_iteratorINS1_9list_edgeIm8EdgeDataEEPvEES6_EENS_9allocatorISA_EEE26__swap_out_circular_bufferERNS_14__split_bufferISA_RSC_EE, symObjAddr: 0x2BA00, symBinAddr: 0x10002E8F4, symSize: 0x110 }
  - { offsetInCU: 0x3D061, offset: 0x3D061, size: 0x8, addend: 0x0, symName: __ZNSt3__16vectorIlNS_9allocatorIlEEE26__swap_out_circular_bufferERNS_14__split_bufferIlRS2_EE, symObjAddr: 0x311DC, symBinAddr: 0x1000340D0, symSize: 0x110 }
  - { offsetInCU: 0x3FD18, offset: 0x3FD18, size: 0x8, addend: 0x0, symName: __ZN5boost6detail11multi_array10extent_genILm0EEC1Ev, symObjAddr: 0x0, symBinAddr: 0x100002EF4, symSize: 0x2C }
  - { offsetInCU: 0x3FD42, offset: 0x3FD42, size: 0x8, addend: 0x0, symName: __ZN5boost6detail11multi_array9index_genILi0ELi0EEC1Ev, symObjAddr: 0x2C, symBinAddr: 0x100002F20, symSize: 0x2C }
  - { offsetInCU: 0x3FD6C, offset: 0x3FD6C, size: 0x8, addend: 0x0, symName: __ZN5boost11optional_ns15in_place_init_tC1ENS1_8init_tagE, symObjAddr: 0x58, symBinAddr: 0x100002F4C, symSize: 0x2C }
  - { offsetInCU: 0x3FDA0, offset: 0x3FDA0, size: 0x8, addend: 0x0, symName: __ZN5boost11optional_ns18in_place_init_if_tC1ENS1_8init_tagE, symObjAddr: 0x84, symBinAddr: 0x100002F78, symSize: 0x2C }
  - { offsetInCU: 0x3FDD4, offset: 0x3FDD4, size: 0x8, addend: 0x0, symName: __ZN5boost6detail35make_property_map_from_arg_pack_genINS_5graph8keywords3tag9color_mapENS_18default_color_typeEEC1ES6_, symObjAddr: 0xB0, symBinAddr: 0x100002FA4, symSize: 0x34 }
  - { offsetInCU: 0x3FE0C, offset: 0x3FE0C, size: 0x8, addend: 0x0, symName: __Z21chainLengthDependentkiid, symObjAddr: 0xE4, symBinAddr: 0x100002FD8, symSize: 0xC8 }
  - { offsetInCU: 0x3FE8C, offset: 0x3FE8C, size: 0x8, addend: 0x0, symName: __Z4sqrtB8ue170006IiENSt3__19enable_ifIXsr3std11is_integralIT_EE5valueEdE4typeES2_, symObjAddr: 0x1AC, symBinAddr: 0x1000030A0, symSize: 0x24 }
  - { offsetInCU: 0x3FEC3, offset: 0x3FEC3, size: 0x8, addend: 0x0, symName: __Z27approxChainLengthDependentki, symObjAddr: 0x208, symBinAddr: 0x1000030FC, symSize: 0x74 }
  - { offsetInCU: 0x3FF27, offset: 0x3FF27, size: 0x8, addend: 0x0, symName: __Z21selectReactionChannelNSt3__16vectorIdNS_9allocatorIdEEEES3_NS0_INS_3mapINS_12basic_stringIcNS_11char_traitsIcEENS1_IcEEEEdNS_4lessIS9_EENS1_INS_4pairIKS9_dEEEEEENS1_ISG_EEEEddNS0_I8ReactionNS1_ISJ_EEEE, symObjAddr: 0x27C, symBinAddr: 0x100003170, symSize: 0x738 }
  - { offsetInCU: 0x4008A, offset: 0x4008A, size: 0x8, addend: 0x0, symName: __ZN21chosenReactionChannelC1Ev, symObjAddr: 0x9B4, symBinAddr: 0x1000038A8, symSize: 0x2C }
  - { offsetInCU: 0x400B6, offset: 0x400B6, size: 0x8, addend: 0x0, symName: __ZNKSt3__16vectorIdNS_9allocatorIdEEE4sizeB8ue170006Ev, symObjAddr: 0x9E0, symBinAddr: 0x1000038D4, symSize: 0x28 }
  - { offsetInCU: 0x400DC, offset: 0x400DC, size: 0x8, addend: 0x0, symName: __ZNSt3__16vectorIdNS_9allocatorIdEEEixB8ue170006Em, symObjAddr: 0xA08, symBinAddr: 0x1000038FC, symSize: 0x24 }
  - { offsetInCU: 0x40119, offset: 0x40119, size: 0x8, addend: 0x0, symName: __ZNSt3__112basic_stringIcNS_11char_traitsIcEENS_9allocatorIcEEEC1B8ue170006ILi0EEEPKc, symObjAddr: 0xA2C, symBinAddr: 0x100003920, symSize: 0x34 }
  - { offsetInCU: 0x40158, offset: 0x40158, size: 0x8, addend: 0x0, symName: __ZNSt3__112basic_stringIcNS_11char_traitsIcEENS_9allocatorIcEEEaSB8ue170006EPKc, symObjAddr: 0xA60, symBinAddr: 0x100003954, symSize: 0x2C }
  - { offsetInCU: 0x4018D, offset: 0x4018D, size: 0x8, addend: 0x0, symName: __ZNKSt3__16vectorINS_3mapINS_12basic_stringIcNS_11char_traitsIcEENS_9allocatorIcEEEEdNS_4lessIS7_EENS5_INS_4pairIKS7_dEEEEEENS5_ISE_EEE4sizeB8ue170006Ev, symObjAddr: 0xA8C, symBinAddr: 0x100003980, symSize: 0x28 }
  - { offsetInCU: 0x401B3, offset: 0x401B3, size: 0x8, addend: 0x0, symName: __ZNSt3__16vectorINS_3mapINS_12basic_stringIcNS_11char_traitsIcEENS_9allocatorIcEEEEdNS_4lessIS7_EENS5_INS_4pairIKS7_dEEEEEENS5_ISE_EEEixB8ue170006Em, symObjAddr: 0xAB4, symBinAddr: 0x1000039A8, symSize: 0x2C }
  - { offsetInCU: 0x401EA, offset: 0x401EA, size: 0x8, addend: 0x0, symName: __ZNSt3__13mapINS_12basic_stringIcNS_11char_traitsIcEENS_9allocatorIcEEEEdNS_4lessIS6_EENS4_INS_4pairIKS6_dEEEEEixERSA_, symObjAddr: 0xAE0, symBinAddr: 0x1000039D4, symSize: 0x80 }
  - { offsetInCU: 0x40221, offset: 0x40221, size: 0x8, addend: 0x0, symName: __ZNSt3__16vectorI8ReactionNS_9allocatorIS1_EEEixB8ue170006Em, symObjAddr: 0xB60, symBinAddr: 0x100003A54, symSize: 0x2C }
  - { offsetInCU: 0x40258, offset: 0x40258, size: 0x8, addend: 0x0, symName: __ZN21chosenReactionChannelD1Ev, symObjAddr: 0xC6C, symBinAddr: 0x100003B60, symSize: 0x2C }
  - { offsetInCU: 0x40284, offset: 0x40284, size: 0x8, addend: 0x0, symName: _main, symObjAddr: 0xC98, symBinAddr: 0x100003B8C, symSize: 0x11DB0 }
  - { offsetInCU: 0x40BD4, offset: 0x40BD4, size: 0x8, addend: 0x0, symName: __ZNSt3__16chrono10time_pointINS0_12steady_clockENS0_8durationIxNS_5ratioILl1ELl1000000000EEEEEEC1B8ue170006Ev, symObjAddr: 0x12A48, symBinAddr: 0x10001593C, symSize: 0x2C }
  - { offsetInCU: 0x40BFE, offset: 0x40BFE, size: 0x8, addend: 0x0, symName: __ZNSt3__13mapINS_12basic_stringIcNS_11char_traitsIcEENS_9allocatorIcEEEENS_6chrono8durationIdNS_5ratioILl1ELl1EEEEENS_4lessIS6_EENS4_INS_4pairIKS6_SB_EEEEEC1B8ue170006Ev, symObjAddr: 0x12A74, symBinAddr: 0x100015968, symSize: 0x2C }
  - { offsetInCU: 0x40C28, offset: 0x40C28, size: 0x8, addend: 0x0, symName: __ZNSt3__13mapINS_12basic_stringIcNS_11char_traitsIcEENS_9allocatorIcEEEENS_6chrono8durationIdNS_5ratioILl1ELl1EEEEENS_4lessIS6_EENS4_INS_4pairIKS6_SB_EEEEEixEOS6_, symObjAddr: 0x12AA0, symBinAddr: 0x100015994, symSize: 0x80 }
  - { offsetInCU: 0x40C7D, offset: 0x40C7D, size: 0x8, addend: 0x0, symName: __ZNSt3__113random_deviceC1B8ue170006Ev, symObjAddr: 0x12B20, symBinAddr: 0x100015A14, symSize: 0x74 }
  - { offsetInCU: 0x40CA7, offset: 0x40CA7, size: 0x8, addend: 0x0, symName: __ZNSt3__123mersenne_twister_engineIjLm32ELm624ELm397ELm31ELj2567483615ELm11ELj4294967295ELm7ELj2636928640ELm15ELj4022730752ELm18ELj1812433253EEC1B8ue170006Ej, symObjAddr: 0x12B94, symBinAddr: 0x100015A88, symSize: 0x34 }
  - { offsetInCU: 0x40D09, offset: 0x40D09, size: 0x8, addend: 0x0, symName: __ZNSt3__125uniform_real_distributionIdEC1B8ue170006Edd, symObjAddr: 0x12BC8, symBinAddr: 0x100015ABC, symSize: 0x3C }
  - { offsetInCU: 0x41238, offset: 0x41238, size: 0x8, addend: 0x0, symName: __ZN15SystemVariablesC1ERKS_, symObjAddr: 0x12C04, symBinAddr: 0x100015AF8, symSize: 0x34 }
  - { offsetInCU: 0x4126D, offset: 0x4126D, size: 0x8, addend: 0x0, symName: __ZNSt3__16vectorI8ReactionNS_9allocatorIS1_EEEC1ERKS4_, symObjAddr: 0x12C38, symBinAddr: 0x100015B2C, symSize: 0x34 }
  - { offsetInCU: 0x41350, offset: 0x41350, size: 0x8, addend: 0x0, symName: __ZNSt3__114basic_ofstreamIcNS_11char_traitsIcEEEC1Ev, symObjAddr: 0x12D30, symBinAddr: 0x100015C24, symSize: 0xE8 }
  - { offsetInCU: 0x4137C, offset: 0x4137C, size: 0x8, addend: 0x0, symName: __ZNKSt3__16vectorI8ReactionNS_9allocatorIS1_EEE4sizeB8ue170006Ev, symObjAddr: 0x12E58, symBinAddr: 0x100015D4C, symSize: 0x28 }
  - { offsetInCU: 0x413A2, offset: 0x413A2, size: 0x8, addend: 0x0, symName: __ZNSt3__16vectorIdNS_9allocatorIdEEEC1EmRKd, symObjAddr: 0x12E80, symBinAddr: 0x100015D74, symSize: 0x3C }
  - { offsetInCU: 0x413F2, offset: 0x413F2, size: 0x8, addend: 0x0, symName: __ZNSt3__16chrono8durationIdNS_5ratioILl1ELl1EEEEC1B8ue170006IxNS2_ILl1ELl1000000000EEEEERKNS1_IT_T0_EEPNS_9enable_ifIXaasr13__no_overflowIS8_S3_EE5valueooL_ZNS_17integral_constantIbLb1EE5valueEEaaeqsr13__no_overflowIS8_S3_E4typeE3denLi1Entsr23treat_as_floating_pointIS7_EE5valueEvE4typeE, symObjAddr: 0x12F14, symBinAddr: 0x100015E08, symSize: 0x3C }
  - { offsetInCU: 0x41448, offset: 0x41448, size: 0x8, addend: 0x0, symName: __ZNSt3__16vectorIlNS_9allocatorIlEEE6resizeEmRKl, symObjAddr: 0x12F50, symBinAddr: 0x100015E44, symSize: 0x9C }
  - { offsetInCU: 0x4149D, offset: 0x4149D, size: 0x8, addend: 0x0, symName: __ZNSt3__16vectorI8ReactionNS_9allocatorIS1_EEED1B8ue170006Ev, symObjAddr: 0x12FEC, symBinAddr: 0x100015EE0, symSize: 0x2C }
  - { offsetInCU: 0x414C7, offset: 0x414C7, size: 0x8, addend: 0x0, symName: __ZNSt3__13mapINS_12basic_stringIcNS_11char_traitsIcEENS_9allocatorIcEEEElNS_4lessIS6_EENS4_INS_4pairIKS6_lEEEEEC1B8ue170006Ev, symObjAddr: 0x13018, symBinAddr: 0x100015F0C, symSize: 0x2C }
  - { offsetInCU: 0x414F1, offset: 0x414F1, size: 0x8, addend: 0x0, symName: __ZNSt3__16vectorINS_3mapINS_12basic_stringIcNS_11char_traitsIcEENS_9allocatorIcEEEElNS_4lessIS7_EENS5_INS_4pairIKS7_lEEEEEENS5_ISE_EEEC1EmRKSE_, symObjAddr: 0x13044, symBinAddr: 0x100015F38, symSize: 0x3C }
  - { offsetInCU: 0x4153B, offset: 0x4153B, size: 0x8, addend: 0x0, symName: __ZNSt3__13mapINS_12basic_stringIcNS_11char_traitsIcEENS_9allocatorIcEEEElNS_4lessIS6_EENS4_INS_4pairIKS6_lEEEEED1B8ue170006Ev, symObjAddr: 0x13080, symBinAddr: 0x100015F74, symSize: 0x2C }
  - { offsetInCU: 0x41565, offset: 0x41565, size: 0x8, addend: 0x0, symName: __ZNSt3__16vectorINS_3mapINS_12basic_stringIcNS_11char_traitsIcEENS_9allocatorIcEEEElNS_4lessIS7_EENS5_INS_4pairIKS7_lEEEEEENS5_ISE_EEEaSB8ue170006ERKSG_, symObjAddr: 0x130AC, symBinAddr: 0x100015FA0, symSize: 0x68 }
  - { offsetInCU: 0x4159C, offset: 0x4159C, size: 0x8, addend: 0x0, symName: __ZNSt3__13mapINS_12basic_stringIcNS_11char_traitsIcEENS_9allocatorIcEEEEbNS_4lessIS6_EENS4_INS_4pairIKS6_bEEEEEC1B8ue170006Ev, symObjAddr: 0x1315C, symBinAddr: 0x100016050, symSize: 0x2C }
  - { offsetInCU: 0x415C6, offset: 0x415C6, size: 0x8, addend: 0x0, symName: __ZNSt3__113basic_ostreamIcNS_11char_traitsIcEEElsB8ue170006EPFRS3_S4_E, symObjAddr: 0x13188, symBinAddr: 0x10001607C, symSize: 0x2C }
  - { offsetInCU: 0x415FA, offset: 0x415FA, size: 0x8, addend: 0x0, symName: __ZNKSt3__16vectorI5ChainNS_9allocatorIS1_EEE4sizeB8ue170006Ev, symObjAddr: 0x1320C, symBinAddr: 0x100016100, symSize: 0x28 }
  - { offsetInCU: 0x41620, offset: 0x41620, size: 0x8, addend: 0x0, symName: __ZNSt3__13mapINS_12basic_stringIcNS_11char_traitsIcEENS_9allocatorIcEEEEdNS_4lessIS6_EENS4_INS_4pairIKS6_dEEEEEC1B8ue170006Ev, symObjAddr: 0x13234, symBinAddr: 0x100016128, symSize: 0x2C }
  - { offsetInCU: 0x4164A, offset: 0x4164A, size: 0x8, addend: 0x0, symName: __ZNSt3__16vectorINS_3mapINS_12basic_stringIcNS_11char_traitsIcEENS_9allocatorIcEEEEdNS_4lessIS7_EENS5_INS_4pairIKS7_dEEEEEENS5_ISE_EEEC1EmRKSE_, symObjAddr: 0x13260, symBinAddr: 0x100016154, symSize: 0x3C }
  - { offsetInCU: 0x41694, offset: 0x41694, size: 0x8, addend: 0x0, symName: __ZNSt3__13mapINS_12basic_stringIcNS_11char_traitsIcEENS_9allocatorIcEEEEdNS_4lessIS6_EENS4_INS_4pairIKS6_dEEEEED1B8ue170006Ev, symObjAddr: 0x1329C, symBinAddr: 0x100016190, symSize: 0x2C }
  - { offsetInCU: 0x416BE, offset: 0x416BE, size: 0x8, addend: 0x0, symName: __ZNSt3__16vectorINS_3mapINS_12basic_stringIcNS_11char_traitsIcEENS_9allocatorIcEEEElNS_4lessIS7_EENS5_INS_4pairIKS7_lEEEEEENS5_ISE_EEEixB8ue170006Em, symObjAddr: 0x132C8, symBinAddr: 0x1000161BC, symSize: 0x2C }
  - { offsetInCU: 0x416F5, offset: 0x416F5, size: 0x8, addend: 0x0, symName: __ZNSt3__13mapINS_12basic_stringIcNS_11char_traitsIcEENS_9allocatorIcEEEElNS_4lessIS6_EENS4_INS_4pairIKS6_lEEEEE5beginB8ue170006Ev, symObjAddr: 0x132F4, symBinAddr: 0x1000161E8, symSize: 0x38 }
  - { offsetInCU: 0x4171B, offset: 0x4171B, size: 0x8, addend: 0x0, symName: __ZNSt3__13mapINS_12basic_stringIcNS_11char_traitsIcEENS_9allocatorIcEEEElNS_4lessIS6_EENS4_INS_4pairIKS6_lEEEEE3endB8ue170006Ev, symObjAddr: 0x1335C, symBinAddr: 0x100016250, symSize: 0x38 }
  - { offsetInCU: 0x41741, offset: 0x41741, size: 0x8, addend: 0x0, symName: __ZNKSt3__114__map_iteratorINS_15__tree_iteratorINS_12__value_typeINS_12basic_stringIcNS_11char_traitsIcEENS_9allocatorIcEEEElEEPNS_11__tree_nodeIS9_PvEElEEEptB8ue170006Ev, symObjAddr: 0x13394, symBinAddr: 0x100016288, symSize: 0x2C }
  - { offsetInCU: 0x41767, offset: 0x41767, size: 0x8, addend: 0x0, symName: __ZNSt3__13mapINS_12basic_stringIcNS_11char_traitsIcEENS_9allocatorIcEEEElNS_4lessIS6_EENS4_INS_4pairIKS6_lEEEEEixERSA_, symObjAddr: 0x133C0, symBinAddr: 0x1000162B4, symSize: 0x80 }
  - { offsetInCU: 0x4179E, offset: 0x4179E, size: 0x8, addend: 0x0, symName: __ZNSt3__114__map_iteratorINS_15__tree_iteratorINS_12__value_typeINS_12basic_stringIcNS_11char_traitsIcEENS_9allocatorIcEEEElEEPNS_11__tree_nodeIS9_PvEElEEEppB8ue170006Ev, symObjAddr: 0x13440, symBinAddr: 0x100016334, symSize: 0x2C }
  - { offsetInCU: 0x417C4, offset: 0x417C4, size: 0x8, addend: 0x0, symName: __ZNSt3__16chrono8durationIdNS_5ratioILl1ELl1EEEEpLB8ue170006ERKS4_, symObjAddr: 0x1346C, symBinAddr: 0x100016360, symSize: 0x44 }
  - { offsetInCU: 0x418A7, offset: 0x418A7, size: 0x8, addend: 0x0, symName: __ZNSt3__13mapINS_12basic_stringIcNS_11char_traitsIcEENS_9allocatorIcEEEENS0_IS6_dNS_4lessIS6_EENS4_INS_4pairIKS6_dEEEEEES8_NS4_INS9_ISA_SD_EEEEEixEOS6_, symObjAddr: 0x134B0, symBinAddr: 0x1000163A4, symSize: 0x80 }
  - { offsetInCU: 0x418DE, offset: 0x418DE, size: 0x8, addend: 0x0, symName: __ZNSt3__13mapINS_12basic_stringIcNS_11char_traitsIcEENS_9allocatorIcEEEEdNS_4lessIS6_EENS4_INS_4pairIKS6_dEEEEEixEOS6_, symObjAddr: 0x13530, symBinAddr: 0x100016424, symSize: 0x80 }
  - { offsetInCU: 0x41915, offset: 0x41915, size: 0x8, addend: 0x0, symName: __ZNSt3__13mapINS_12basic_stringIcNS_11char_traitsIcEENS_9allocatorIcEEEElNS_4lessIS6_EENS4_INS_4pairIKS6_lEEEEEixEOS6_, symObjAddr: 0x135B0, symBinAddr: 0x1000164A4, symSize: 0x80 }
  - { offsetInCU: 0x4194C, offset: 0x4194C, size: 0x8, addend: 0x0, symName: __ZNSt3__16vectorIdNS_9allocatorIdEEEC1B8ue170006ESt16initializer_listIdE, symObjAddr: 0x13630, symBinAddr: 0x100016524, symSize: 0x3C }
  - { offsetInCU: 0x41987, offset: 0x41987, size: 0x8, addend: 0x0, symName: __ZNKSt3__16vectorINS_12basic_stringIcNS_11char_traitsIcEENS_9allocatorIcEEEENS4_IS6_EEE4sizeB8ue170006Ev, symObjAddr: 0x1366C, symBinAddr: 0x100016560, symSize: 0x28 }
  - { offsetInCU: 0x419AD, offset: 0x419AD, size: 0x8, addend: 0x0, symName: __ZNSt3__13mapINS_12basic_stringIcNS_11char_traitsIcEENS_9allocatorIcEEEENS0_IS6_dNS_4lessIS6_EENS4_INS_4pairIKS6_dEEEEEES8_NS4_INS9_ISA_SD_EEEEEixERSA_, symObjAddr: 0x13694, symBinAddr: 0x100016588, symSize: 0x80 }
  - { offsetInCU: 0x419E4, offset: 0x419E4, size: 0x8, addend: 0x0, symName: __ZNSt3__16vectorINS_12basic_stringIcNS_11char_traitsIcEENS_9allocatorIcEEEENS4_IS6_EEEixB8ue170006Em, symObjAddr: 0x13714, symBinAddr: 0x100016608, symSize: 0x2C }
  - { offsetInCU: 0x41A1B, offset: 0x41A1B, size: 0x8, addend: 0x0, symName: __ZNSt3__13mapINS_12basic_stringIcNS_11char_traitsIcEENS_9allocatorIcEEEElNS_4lessIS6_EENS4_INS_4pairIKS6_lEEEEE4findB8ue170006ERSA_, symObjAddr: 0x139A4, symBinAddr: 0x100016898, symSize: 0x40 }
  - { offsetInCU: 0x41A56, offset: 0x41A56, size: 0x8, addend: 0x0, symName: __ZNSt3__125uniform_real_distributionIdEclB8ue170006INS_23mersenne_twister_engineIjLm32ELm624ELm397ELm31ELj2567483615ELm11ELj4294967295ELm7ELj2636928640ELm15ELj4022730752ELm18ELj1812433253EEEEEdRT_, symObjAddr: 0x139E4, symBinAddr: 0x1000168D8, symSize: 0x30 }
  - { offsetInCU: 0x41A93, offset: 0x41A93, size: 0x8, addend: 0x0, symName: __ZNSt3__16vectorIdNS_9allocatorIdEEEC1B8ue170006Ev, symObjAddr: 0x13A14, symBinAddr: 0x100016908, symSize: 0x2C }
  - { offsetInCU: 0x41ABD, offset: 0x41ABD, size: 0x8, addend: 0x0, symName: __ZNSt3__16vectorIdNS_9allocatorIdEEEC1ERKS3_, symObjAddr: 0x13A40, symBinAddr: 0x100016934, symSize: 0x34 }
  - { offsetInCU: 0x41AF8, offset: 0x41AF8, size: 0x8, addend: 0x0, symName: __ZNSt3__16vectorINS_3mapINS_12basic_stringIcNS_11char_traitsIcEENS_9allocatorIcEEEEdNS_4lessIS7_EENS5_INS_4pairIKS7_dEEEEEENS5_ISE_EEEC1ERKSG_, symObjAddr: 0x13A74, symBinAddr: 0x100016968, symSize: 0x34 }
  - { offsetInCU: 0x41B33, offset: 0x41B33, size: 0x8, addend: 0x0, symName: __ZNSt3__16vectorINS_3mapINS_12basic_stringIcNS_11char_traitsIcEENS_9allocatorIcEEEEdNS_4lessIS7_EENS5_INS_4pairIKS7_dEEEEEENS5_ISE_EEED1B8ue170006Ev, symObjAddr: 0x13AA8, symBinAddr: 0x10001699C, symSize: 0x2C }
  - { offsetInCU: 0x41B5D, offset: 0x41B5D, size: 0x8, addend: 0x0, symName: __ZNSt3__16vectorIdNS_9allocatorIdEEED1B8ue170006Ev, symObjAddr: 0x13AD4, symBinAddr: 0x1000169C8, symSize: 0x2C }
  - { offsetInCU: 0x41B8D, offset: 0x41B8D, size: 0x8, addend: 0x0, symName: __ZN8ReactionC1ERKS_, symObjAddr: 0x13B00, symBinAddr: 0x1000169F4, symSize: 0x34 }
  - { offsetInCU: 0x41BCE, offset: 0x41BCE, size: 0x8, addend: 0x0, symName: __ZN21chosenReactionChannelC1ERKS_, symObjAddr: 0x13B34, symBinAddr: 0x100016A28, symSize: 0x34 }
  - { offsetInCU: 0x41C03, offset: 0x41C03, size: 0x8, addend: 0x0, symName: __ZN8ReactionD1Ev, symObjAddr: 0x13B68, symBinAddr: 0x100016A5C, symSize: 0x2C }
  - { offsetInCU: 0x41C41, offset: 0x41C41, size: 0x8, addend: 0x0, symName: __ZN14MolWtVariablesC1ERKS_, symObjAddr: 0x13B94, symBinAddr: 0x100016A88, symSize: 0x34 }
  - { offsetInCU: 0x41C82, offset: 0x41C82, size: 0x8, addend: 0x0, symName: __ZN14MolWtVariablesaSEOS_, symObjAddr: 0x13BC8, symBinAddr: 0x100016ABC, symSize: 0x4C }
  - { offsetInCU: 0x41CB3, offset: 0x41CB3, size: 0x8, addend: 0x0, symName: __ZN14MolWtVariablesD1Ev, symObjAddr: 0x13C14, symBinAddr: 0x100016B08, symSize: 0x2C }
  - { offsetInCU: 0x41CDF, offset: 0x41CDF, size: 0x8, addend: 0x0, symName: __ZNSt3__13mapINS_12basic_stringIcNS_11char_traitsIcEENS_9allocatorIcEEEElNS_4lessIS6_EENS4_INS_4pairIKS6_lEEEEEC1B8ue170006ERKSD_, symObjAddr: 0x13C40, symBinAddr: 0x100016B34, symSize: 0x34 }
  - { offsetInCU: 0x41D18, offset: 0x41D18, size: 0x8, addend: 0x0, symName: __ZNSt3__16vectorINS_12basic_stringIcNS_11char_traitsIcEENS_9allocatorIcEEEENS4_IS6_EEEC1ERKS8_, symObjAddr: 0x13C74, symBinAddr: 0x100016B68, symSize: 0x34 }
  - { offsetInCU: 0x41D53, offset: 0x41D53, size: 0x8, addend: 0x0, symName: __ZNSt3__16vectorINS_12basic_stringIcNS_11char_traitsIcEENS_9allocatorIcEEEENS4_IS6_EEED1B8ue170006Ev, symObjAddr: 0x13CA8, symBinAddr: 0x100016B9C, symSize: 0x2C }
  - { offsetInCU: 0x41D7D, offset: 0x41D7D, size: 0x8, addend: 0x0, symName: __ZNSt3__13mapINS_12basic_stringIcNS_11char_traitsIcEENS_9allocatorIcEEEEbNS_4lessIS6_EENS4_INS_4pairIKS6_bEEEEE4findB8ue170006ERSA_, symObjAddr: 0x13D2C, symBinAddr: 0x100016C20, symSize: 0x40 }
  - { offsetInCU: 0x41DB2, offset: 0x41DB2, size: 0x8, addend: 0x0, symName: __ZNSt3__13mapINS_12basic_stringIcNS_11char_traitsIcEENS_9allocatorIcEEEEbNS_4lessIS6_EENS4_INS_4pairIKS6_bEEEEE3endB8ue170006Ev, symObjAddr: 0x13D6C, symBinAddr: 0x100016C60, symSize: 0x38 }
  - { offsetInCU: 0x41DD8, offset: 0x41DD8, size: 0x8, addend: 0x0, symName: __ZNSt3__16vectorI5ChainNS_9allocatorIS1_EEEC1ERKS4_, symObjAddr: 0x13DA4, symBinAddr: 0x100016C98, symSize: 0x34 }
  - { offsetInCU: 0x41E13, offset: 0x41E13, size: 0x8, addend: 0x0, symName: __ZNSt3__16vectorI5ChainNS_9allocatorIS1_EEED1B8ue170006Ev, symObjAddr: 0x13DD8, symBinAddr: 0x100016CCC, symSize: 0x2C }
  - { offsetInCU: 0x41E3D, offset: 0x41E3D, size: 0x8, addend: 0x0, symName: __ZNSt3__13mapINS_12basic_stringIcNS_11char_traitsIcEENS_9allocatorIcEEEEbNS_4lessIS6_EENS4_INS_4pairIKS6_bEEEEEixEOS6_, symObjAddr: 0x13E04, symBinAddr: 0x100016CF8, symSize: 0x80 }
  - { offsetInCU: 0x41E74, offset: 0x41E74, size: 0x8, addend: 0x0, symName: __ZNSt3__16vectorINS_3mapINS_12basic_stringIcNS_11char_traitsIcEENS_9allocatorIcEEEElNS_4lessIS7_EENS5_INS_4pairIKS7_lEEEEEENS5_ISE_EEED1B8ue170006Ev, symObjAddr: 0x13E84, symBinAddr: 0x100016D78, symSize: 0x2C }
  - { offsetInCU: 0x41E9E, offset: 0x41E9E, size: 0x8, addend: 0x0, symName: __ZNSt3__16vectorIlNS_9allocatorIlEEEC1ERKS3_, symObjAddr: 0x13EB0, symBinAddr: 0x100016DA4, symSize: 0x34 }
  - { offsetInCU: 0x41ED9, offset: 0x41ED9, size: 0x8, addend: 0x0, symName: __ZNSt3__16vectorIlNS_9allocatorIlEEED1B8ue170006Ev, symObjAddr: 0x13EE4, symBinAddr: 0x100016DD8, symSize: 0x2C }
  - { offsetInCU: 0x41F03, offset: 0x41F03, size: 0x8, addend: 0x0, symName: __ZNSt3__114basic_ofstreamIcNS_11char_traitsIcEEE5closeEv, symObjAddr: 0x13F10, symBinAddr: 0x100016E04, symSize: 0x58 }
  - { offsetInCU: 0x41F2B, offset: 0x41F2B, size: 0x8, addend: 0x0, symName: __ZNSt3__16vectorIlNS_9allocatorIlEEEixB8ue170006Em, symObjAddr: 0x13FB4, symBinAddr: 0x100016EA8, symSize: 0x24 }
  - { offsetInCU: 0x41F62, offset: 0x41F62, size: 0x8, addend: 0x0, symName: __ZNKSt3__16chrono8durationIdNS_5ratioILl1ELl1EEEE5countB8ue170006Ev, symObjAddr: 0x13FD8, symBinAddr: 0x100016ECC, symSize: 0x18 }
  - { offsetInCU: 0x41F8E, offset: 0x41F8E, size: 0x8, addend: 0x0, symName: __ZNSt3__114basic_ofstreamIcNS_11char_traitsIcEEED1Ev, symObjAddr: 0x13FF0, symBinAddr: 0x100016EE4, symSize: 0x40 }
  - { offsetInCU: 0x41FBB, offset: 0x41FBB, size: 0x8, addend: 0x0, symName: __ZNSt3__13mapINS_12basic_stringIcNS_11char_traitsIcEENS_9allocatorIcEEEEbNS_4lessIS6_EENS4_INS_4pairIKS6_bEEEEED1B8ue170006Ev, symObjAddr: 0x14030, symBinAddr: 0x100016F24, symSize: 0x2C }
  - { offsetInCU: 0x41FE5, offset: 0x41FE5, size: 0x8, addend: 0x0, symName: __ZNSt3__13mapINS_12basic_stringIcNS_11char_traitsIcEENS_9allocatorIcEEEENS0_IS6_dNS_4lessIS6_EENS4_INS_4pairIKS6_dEEEEEES8_NS4_INS9_ISA_SD_EEEEED1B8ue170006Ev, symObjAddr: 0x1405C, symBinAddr: 0x100016F50, symSize: 0x2C }
  - { offsetInCU: 0x4200F, offset: 0x4200F, size: 0x8, addend: 0x0, symName: __ZN15SystemVariablesD1Ev, symObjAddr: 0x14088, symBinAddr: 0x100016F7C, symSize: 0x2C }
  - { offsetInCU: 0x420B1, offset: 0x420B1, size: 0x8, addend: 0x0, symName: __ZN17InitialConditionsD1Ev, symObjAddr: 0x140B4, symBinAddr: 0x100016FA8, symSize: 0x2C }
  - { offsetInCU: 0x420DD, offset: 0x420DD, size: 0x8, addend: 0x0, symName: __ZNSt3__13mapINS_12basic_stringIcNS_11char_traitsIcEENS_9allocatorIcEEEENS_6chrono8durationIdNS_5ratioILl1ELl1EEEEENS_4lessIS6_EENS4_INS_4pairIKS6_SB_EEEEED1B8ue170006Ev, symObjAddr: 0x140E0, symBinAddr: 0x100016FD4, symSize: 0x2C }
  - { offsetInCU: 0x42107, offset: 0x42107, size: 0x8, addend: 0x0, symName: __ZN5boost11optional_ns15in_place_init_tC2ENS1_8init_tagE, symObjAddr: 0x1410C, symBinAddr: 0x100017000, symSize: 0x14 }
  - { offsetInCU: 0x4213B, offset: 0x4213B, size: 0x8, addend: 0x0, symName: __ZN5boost11optional_ns18in_place_init_if_tC2ENS1_8init_tagE, symObjAddr: 0x14120, symBinAddr: 0x100017014, symSize: 0x14 }
  - { offsetInCU: 0x4216F, offset: 0x4216F, size: 0x8, addend: 0x0, symName: __ZN21chosenReactionChannelC2Ev, symObjAddr: 0x14134, symBinAddr: 0x100017028, symSize: 0x7C }
  - { offsetInCU: 0x4219B, offset: 0x4219B, size: 0x8, addend: 0x0, symName: __ZN21chosenReactionChannelD2Ev, symObjAddr: 0x141B0, symBinAddr: 0x1000170A4, symSize: 0x3C }
  - { offsetInCU: 0x421C7, offset: 0x421C7, size: 0x8, addend: 0x0, symName: __ZN15SystemVariablesC2ERKS_, symObjAddr: 0x141EC, symBinAddr: 0x1000170E0, symSize: 0x2D8 }
  - { offsetInCU: 0x421FC, offset: 0x421FC, size: 0x8, addend: 0x0, symName: __ZNSt3__16vectorINS_3mapINS_12basic_stringIcNS_11char_traitsIcEENS_9allocatorIcEEEElNS_4lessIS7_EENS5_INS_4pairIKS7_lEEEEEENS5_ISE_EEEC1ERKSG_, symObjAddr: 0x144C4, symBinAddr: 0x1000173B8, symSize: 0x34 }
  - { offsetInCU: 0x42237, offset: 0x42237, size: 0x8, addend: 0x0, symName: __ZNSt3__13mapINS_12basic_stringIcNS_11char_traitsIcEENS_9allocatorIcEEEE7MonomerNS_4lessIS6_EENS4_INS_4pairIKS6_S7_EEEEEC1B8ue170006ERKSE_, symObjAddr: 0x144F8, symBinAddr: 0x1000173EC, symSize: 0x34 }
  - { offsetInCU: 0x42270, offset: 0x42270, size: 0x8, addend: 0x0, symName: __ZNSt3__13mapINS_12basic_stringIcNS_11char_traitsIcEENS_9allocatorIcEEEENS_6vectorIS6_NS4_IS6_EEEENS_4lessIS6_EENS4_INS_4pairIKS6_S9_EEEEEC1B8ue170006ERKSG_, symObjAddr: 0x1452C, symBinAddr: 0x100017420, symSize: 0x34 }
  - { offsetInCU: 0x422A9, offset: 0x422A9, size: 0x8, addend: 0x0, symName: __ZNSt3__13mapINS_12basic_stringIcNS_11char_traitsIcEENS_9allocatorIcEEEENS0_IS6_xNS_4lessIS6_EENS4_INS_4pairIKS6_xEEEEEES8_NS4_INS9_ISA_SD_EEEEEC1B8ue170006ERKSG_, symObjAddr: 0x14560, symBinAddr: 0x100017454, symSize: 0x34 }
  - { offsetInCU: 0x422E2, offset: 0x422E2, size: 0x8, addend: 0x0, symName: __ZNSt3__13mapINS_12basic_stringIcNS_11char_traitsIcEENS_9allocatorIcEEEENS0_IS6_xNS_4lessIS6_EENS4_INS_4pairIKS6_xEEEEEES8_NS4_INS9_ISA_SD_EEEEED1B8ue170006Ev, symObjAddr: 0x14594, symBinAddr: 0x100017488, symSize: 0x2C }
  - { offsetInCU: 0x4230C, offset: 0x4230C, size: 0x8, addend: 0x0, symName: __ZNSt3__13mapINS_12basic_stringIcNS_11char_traitsIcEENS_9allocatorIcEEEENS_6vectorIS6_NS4_IS6_EEEENS_4lessIS6_EENS4_INS_4pairIKS6_S9_EEEEED1B8ue170006Ev, symObjAddr: 0x145C0, symBinAddr: 0x1000174B4, symSize: 0x2C }
  - { offsetInCU: 0x42336, offset: 0x42336, size: 0x8, addend: 0x0, symName: __ZNSt3__13mapINS_12basic_stringIcNS_11char_traitsIcEENS_9allocatorIcEEEE7MonomerNS_4lessIS6_EENS4_INS_4pairIKS6_S7_EEEEED1B8ue170006Ev, symObjAddr: 0x145EC, symBinAddr: 0x1000174E0, symSize: 0x2C }
  - { offsetInCU: 0x42360, offset: 0x42360, size: 0x8, addend: 0x0, symName: __ZNSt3__16vectorINS_3mapINS_12basic_stringIcNS_11char_traitsIcEENS_9allocatorIcEEEElNS_4lessIS7_EENS5_INS_4pairIKS7_lEEEEEENS5_ISE_EEEC2ERKSG_, symObjAddr: 0x14618, symBinAddr: 0x10001750C, symSize: 0x94 }
  - { offsetInCU: 0x423A7, offset: 0x423A7, size: 0x8, addend: 0x0, symName: __ZNSt3__116allocator_traitsINS_9allocatorINS_3mapINS_12basic_stringIcNS_11char_traitsIcEENS1_IcEEEElNS_4lessIS7_EENS1_INS_4pairIKS7_lEEEEEEEEE37select_on_container_copy_constructionB8ue170006ISF_vvEESF_RKSF_, symObjAddr: 0x146AC, symBinAddr: 0x1000175A0, symSize: 0x10 }
  - { offsetInCU: 0x423D6, offset: 0x423D6, size: 0x8, addend: 0x0, symName: __ZNKSt3__16vectorINS_3mapINS_12basic_stringIcNS_11char_traitsIcEENS_9allocatorIcEEEElNS_4lessIS7_EENS5_INS_4pairIKS7_lEEEEEENS5_ISE_EEE7__allocB8ue170006Ev, symObjAddr: 0x146BC, symBinAddr: 0x1000175B0, symSize: 0x28 }
  - { offsetInCU: 0x42408, offset: 0x42408, size: 0x8, addend: 0x0, symName: __ZNSt3__117__compressed_pairIPNS_3mapINS_12basic_stringIcNS_11char_traitsIcEENS_9allocatorIcEEEElNS_4lessIS7_EENS5_INS_4pairIKS7_lEEEEEENS5_ISE_EEEC1B8ue170006IDnSG_EEOT_OT0_, symObjAddr: 0x146E4, symBinAddr: 0x1000175D8, symSize: 0x3C }
  - { offsetInCU: 0x42460, offset: 0x42460, size: 0x8, addend: 0x0, symName: __ZNSt3__16vectorINS_3mapINS_12basic_stringIcNS_11char_traitsIcEENS_9allocatorIcEEEElNS_4lessIS7_EENS5_INS_4pairIKS7_lEEEEEENS5_ISE_EEE16__init_with_sizeB8ue170006IPSE_SI_EEvT_T0_m, symObjAddr: 0x14720, symBinAddr: 0x100017614, symSize: 0xB8 }
  - { offsetInCU: 0x424D4, offset: 0x424D4, size: 0x8, addend: 0x0, symName: __ZNKSt3__16vectorINS_3mapINS_12basic_stringIcNS_11char_traitsIcEENS_9allocatorIcEEEElNS_4lessIS7_EENS5_INS_4pairIKS7_lEEEEEENS5_ISE_EEE4sizeB8ue170006Ev, symObjAddr: 0x147D8, symBinAddr: 0x1000176CC, symSize: 0x28 }
  - { offsetInCU: 0x424FA, offset: 0x424FA, size: 0x8, addend: 0x0, symName: __ZNKSt3__117__compressed_pairIPNS_3mapINS_12basic_stringIcNS_11char_traitsIcEENS_9allocatorIcEEEElNS_4lessIS7_EENS5_INS_4pairIKS7_lEEEEEENS5_ISE_EEE6secondB8ue170006Ev, symObjAddr: 0x14800, symBinAddr: 0x1000176F4, symSize: 0x24 }
  - { offsetInCU: 0x42520, offset: 0x42520, size: 0x8, addend: 0x0, symName: __ZNKSt3__122__compressed_pair_elemINS_9allocatorINS_3mapINS_12basic_stringIcNS_11char_traitsIcEENS1_IcEEEElNS_4lessIS7_EENS1_INS_4pairIKS7_lEEEEEEEELi1ELb1EE5__getB8ue170006Ev, symObjAddr: 0x14824, symBinAddr: 0x100017718, symSize: 0x14 }
  - { offsetInCU: 0x42546, offset: 0x42546, size: 0x8, addend: 0x0, symName: __ZNSt3__117__compressed_pairIPNS_3mapINS_12basic_stringIcNS_11char_traitsIcEENS_9allocatorIcEEEElNS_4lessIS7_EENS5_INS_4pairIKS7_lEEEEEENS5_ISE_EEEC2B8ue170006IDnSG_EEOT_OT0_, symObjAddr: 0x14838, symBinAddr: 0x10001772C, symSize: 0x44 }
  - { offsetInCU: 0x4259E, offset: 0x4259E, size: 0x8, addend: 0x0, symName: __ZNSt3__122__compressed_pair_elemIPNS_3mapINS_12basic_stringIcNS_11char_traitsIcEENS_9allocatorIcEEEElNS_4lessIS7_EENS5_INS_4pairIKS7_lEEEEEELi0ELb0EEC2B8ue170006IDnvEEOT_, symObjAddr: 0x1487C, symBinAddr: 0x100017770, symSize: 0x1C }
  - { offsetInCU: 0x425E0, offset: 0x425E0, size: 0x8, addend: 0x0, symName: __ZNSt3__122__compressed_pair_elemINS_9allocatorINS_3mapINS_12basic_stringIcNS_11char_traitsIcEENS1_IcEEEElNS_4lessIS7_EENS1_INS_4pairIKS7_lEEEEEEEELi1ELb1EEC2B8ue170006ISF_vEEOT_, symObjAddr: 0x14898, symBinAddr: 0x10001778C, symSize: 0x18 }
  - { offsetInCU: 0x42622, offset: 0x42622, size: 0x8, addend: 0x0, symName: __ZNSt3__16vectorINS_3mapINS_12basic_stringIcNS_11char_traitsIcEENS_9allocatorIcEEEElNS_4lessIS7_EENS5_INS_4pairIKS7_lEEEEEENS5_ISE_EEE16__destroy_vectorC1B8ue170006ERSG_, symObjAddr: 0x148F0, symBinAddr: 0x1000177E4, symSize: 0x34 }
  - { offsetInCU: 0x4265B, offset: 0x4265B, size: 0x8, addend: 0x0, symName: __ZNSt3__16vectorINS_3mapINS_12basic_stringIcNS_11char_traitsIcEENS_9allocatorIcEEEElNS_4lessIS7_EENS5_INS_4pairIKS7_lEEEEEENS5_ISE_EEE11__vallocateB8ue170006Em, symObjAddr: 0x14924, symBinAddr: 0x100017818, symSize: 0xB4 }
  - { offsetInCU: 0x4269F, offset: 0x4269F, size: 0x8, addend: 0x0, symName: __ZNSt3__16vectorINS_3mapINS_12basic_stringIcNS_11char_traitsIcEENS_9allocatorIcEEEElNS_4lessIS7_EENS5_INS_4pairIKS7_lEEEEEENS5_ISE_EEE18__construct_at_endIPSE_SI_EEvT_T0_m, symObjAddr: 0x149D8, symBinAddr: 0x1000178CC, symSize: 0x8C }
  - { offsetInCU: 0x42715, offset: 0x42715, size: 0x8, addend: 0x0, symName: __ZNSt3__128__exception_guard_exceptionsINS_6vectorINS_3mapINS_12basic_stringIcNS_11char_traitsIcEENS_9allocatorIcEEEElNS_4lessIS8_EENS6_INS_4pairIKS8_lEEEEEENS6_ISF_EEE16__destroy_vectorEE10__completeB8ue170006Ev, symObjAddr: 0x14A64, symBinAddr: 0x100017958, symSize: 0x1C }
  - { offsetInCU: 0x4273B, offset: 0x4273B, size: 0x8, addend: 0x0, symName: __ZNSt3__128__exception_guard_exceptionsINS_6vectorINS_3mapINS_12basic_stringIcNS_11char_traitsIcEENS_9allocatorIcEEEElNS_4lessIS8_EENS6_INS_4pairIKS8_lEEEEEENS6_ISF_EEE16__destroy_vectorEED1B8ue170006Ev, symObjAddr: 0x14A80, symBinAddr: 0x100017974, symSize: 0x2C }
  - { offsetInCU: 0x42765, offset: 0x42765, size: 0x8, addend: 0x0, symName: __ZNSt3__128__exception_guard_exceptionsINS_6vectorINS_3mapINS_12basic_stringIcNS_11char_traitsIcEENS_9allocatorIcEEEElNS_4lessIS8_EENS6_INS_4pairIKS8_lEEEEEENS6_ISF_EEE16__destroy_vectorEEC1B8ue170006ESI_, symObjAddr: 0x14AAC, symBinAddr: 0x1000179A0, symSize: 0x34 }
  - { offsetInCU: 0x4279D, offset: 0x4279D, size: 0x8, addend: 0x0, symName: __ZNSt3__128__exception_guard_exceptionsINS_6vectorINS_3mapINS_12basic_stringIcNS_11char_traitsIcEENS_9allocatorIcEEEElNS_4lessIS8_EENS6_INS_4pairIKS8_lEEEEEENS6_ISF_EEE16__destroy_vectorEEC2B8ue170006ESI_, symObjAddr: 0x14AE0, symBinAddr: 0x1000179D4, symSize: 0x24 }
  - { offsetInCU: 0x427D5, offset: 0x427D5, size: 0x8, addend: 0x0, symName: __ZNSt3__16vectorINS_3mapINS_12basic_stringIcNS_11char_traitsIcEENS_9allocatorIcEEEElNS_4lessIS7_EENS5_INS_4pairIKS7_lEEEEEENS5_ISE_EEE16__destroy_vectorC2B8ue170006ERSG_, symObjAddr: 0x14B04, symBinAddr: 0x1000179F8, symSize: 0x20 }
  - { offsetInCU: 0x4280E, offset: 0x4280E, size: 0x8, addend: 0x0, symName: __ZNKSt3__16vectorINS_3mapINS_12basic_stringIcNS_11char_traitsIcEENS_9allocatorIcEEEElNS_4lessIS7_EENS5_INS_4pairIKS7_lEEEEEENS5_ISE_EEE8max_sizeEv, symObjAddr: 0x14B24, symBinAddr: 0x100017A18, symSize: 0x60 }
  - { offsetInCU: 0x42836, offset: 0x42836, size: 0x8, addend: 0x0, symName: __ZNKSt3__16vectorINS_3mapINS_12basic_stringIcNS_11char_traitsIcEENS_9allocatorIcEEEElNS_4lessIS7_EENS5_INS_4pairIKS7_lEEEEEENS5_ISE_EEE20__throw_length_errorB8ue170006Ev, symObjAddr: 0x14B84, symBinAddr: 0x100017A78, symSize: 0x1C }
  - { offsetInCU: 0x4285C, offset: 0x4285C, size: 0x8, addend: 0x0, symName: __ZNSt3__16vectorINS_3mapINS_12basic_stringIcNS_11char_traitsIcEENS_9allocatorIcEEEElNS_4lessIS7_EENS5_INS_4pairIKS7_lEEEEEENS5_ISE_EEE7__allocB8ue170006Ev, symObjAddr: 0x14BE0, symBinAddr: 0x100017AD4, symSize: 0x28 }
  - { offsetInCU: 0x42882, offset: 0x42882, size: 0x8, addend: 0x0, symName: __ZNSt3__16vectorINS_3mapINS_12basic_stringIcNS_11char_traitsIcEENS_9allocatorIcEEEElNS_4lessIS7_EENS5_INS_4pairIKS7_lEEEEEENS5_ISE_EEE9__end_capB8ue170006Ev, symObjAddr: 0x14C08, symBinAddr: 0x100017AFC, symSize: 0x28 }
  - { offsetInCU: 0x428A8, offset: 0x428A8, size: 0x8, addend: 0x0, symName: __ZNKSt3__16vectorINS_3mapINS_12basic_stringIcNS_11char_traitsIcEENS_9allocatorIcEEEElNS_4lessIS7_EENS5_INS_4pairIKS7_lEEEEEENS5_ISE_EEE14__annotate_newB8ue170006Em, symObjAddr: 0x14C30, symBinAddr: 0x100017B24, symSize: 0xC8 }
  - { offsetInCU: 0x428DD, offset: 0x428DD, size: 0x8, addend: 0x0, symName: __ZNSt3__116allocator_traitsINS_9allocatorINS_3mapINS_12basic_stringIcNS_11char_traitsIcEENS1_IcEEEElNS_4lessIS7_EENS1_INS_4pairIKS7_lEEEEEEEEE8max_sizeB8ue170006ISF_vEEmRKSF_, symObjAddr: 0x14D24, symBinAddr: 0x100017C18, symSize: 0x24 }
  - { offsetInCU: 0x4290B, offset: 0x4290B, size: 0x8, addend: 0x0, symName: __ZNSt3__114numeric_limitsIlE3maxB8ue170006Ev, symObjAddr: 0x14D48, symBinAddr: 0x100017C3C, symSize: 0x14 }
  - { offsetInCU: 0x4292B, offset: 0x4292B, size: 0x8, addend: 0x0, symName: __ZNKSt3__16__lessIvvEclB8ue170006ImmEEbRKT_RKT0_, symObjAddr: 0x14DBC, symBinAddr: 0x100017CB0, symSize: 0x34 }
  - { offsetInCU: 0x4297F, offset: 0x4297F, size: 0x8, addend: 0x0, symName: __ZNKSt3__19allocatorINS_3mapINS_12basic_stringIcNS_11char_traitsIcEENS0_IcEEEElNS_4lessIS6_EENS0_INS_4pairIKS6_lEEEEEEE8max_sizeB8ue170006Ev, symObjAddr: 0x14DF0, symBinAddr: 0x100017CE4, symSize: 0x18 }
  - { offsetInCU: 0x429A5, offset: 0x429A5, size: 0x8, addend: 0x0, symName: __ZNSt3__123__libcpp_numeric_limitsIlLb1EE3maxB8ue170006Ev, symObjAddr: 0x14E08, symBinAddr: 0x100017CFC, symSize: 0x8 }
  - { offsetInCU: 0x429B9, offset: 0x429B9, size: 0x8, addend: 0x0, symName: __ZNSt12length_errorC1B8ue170006EPKc, symObjAddr: 0x14E74, symBinAddr: 0x100017D68, symSize: 0x34 }
  - { offsetInCU: 0x429F1, offset: 0x429F1, size: 0x8, addend: 0x0, symName: __ZNSt12length_errorC2B8ue170006EPKc, symObjAddr: 0x14EA8, symBinAddr: 0x100017D9C, symSize: 0x4C }
  - { offsetInCU: 0x42A29, offset: 0x42A29, size: 0x8, addend: 0x0, symName: __ZNSt3__19allocatorINS_3mapINS_12basic_stringIcNS_11char_traitsIcEENS0_IcEEEElNS_4lessIS6_EENS0_INS_4pairIKS6_lEEEEEEE8allocateB8ue170006Em, symObjAddr: 0x14EF4, symBinAddr: 0x100017DE8, symSize: 0x5C }
  - { offsetInCU: 0x42A5D, offset: 0x42A5D, size: 0x8, addend: 0x0, symName: __ZNSt3__117__compressed_pairIPNS_3mapINS_12basic_stringIcNS_11char_traitsIcEENS_9allocatorIcEEEElNS_4lessIS7_EENS5_INS_4pairIKS7_lEEEEEENS5_ISE_EEE6secondB8ue170006Ev, symObjAddr: 0x14FD0, symBinAddr: 0x100017EC4, symSize: 0x24 }
  - { offsetInCU: 0x42A83, offset: 0x42A83, size: 0x8, addend: 0x0, symName: __ZNSt3__122__compressed_pair_elemINS_9allocatorINS_3mapINS_12basic_stringIcNS_11char_traitsIcEENS1_IcEEEElNS_4lessIS7_EENS1_INS_4pairIKS7_lEEEEEEEELi1ELb1EE5__getB8ue170006Ev, symObjAddr: 0x14FF4, symBinAddr: 0x100017EE8, symSize: 0x14 }
  - { offsetInCU: 0x42AA9, offset: 0x42AA9, size: 0x8, addend: 0x0, symName: __ZNSt3__117__compressed_pairIPNS_3mapINS_12basic_stringIcNS_11char_traitsIcEENS_9allocatorIcEEEElNS_4lessIS7_EENS5_INS_4pairIKS7_lEEEEEENS5_ISE_EEE5firstB8ue170006Ev, symObjAddr: 0x15008, symBinAddr: 0x100017EFC, symSize: 0x24 }
  - { offsetInCU: 0x42ACF, offset: 0x42ACF, size: 0x8, addend: 0x0, symName: __ZNSt3__122__compressed_pair_elemIPNS_3mapINS_12basic_stringIcNS_11char_traitsIcEENS_9allocatorIcEEEElNS_4lessIS7_EENS5_INS_4pairIKS7_lEEEEEELi0ELb0EE5__getB8ue170006Ev, symObjAddr: 0x1502C, symBinAddr: 0x100017F20, symSize: 0x14 }
  - { offsetInCU: 0x42AF5, offset: 0x42AF5, size: 0x8, addend: 0x0, symName: __ZNKSt3__16vectorINS_3mapINS_12basic_stringIcNS_11char_traitsIcEENS_9allocatorIcEEEElNS_4lessIS7_EENS5_INS_4pairIKS7_lEEEEEENS5_ISE_EEE31__annotate_contiguous_containerB8ue170006EPKvSI_SI_SI_, symObjAddr: 0x15040, symBinAddr: 0x100017F34, symSize: 0x20 }
  - { offsetInCU: 0x42B47, offset: 0x42B47, size: 0x8, addend: 0x0, symName: __ZNKSt3__16vectorINS_3mapINS_12basic_stringIcNS_11char_traitsIcEENS_9allocatorIcEEEElNS_4lessIS7_EENS5_INS_4pairIKS7_lEEEEEENS5_ISE_EEE4dataB8ue170006Ev, symObjAddr: 0x15060, symBinAddr: 0x100017F54, symSize: 0x28 }
  - { offsetInCU: 0x42B6D, offset: 0x42B6D, size: 0x8, addend: 0x0, symName: __ZNKSt3__16vectorINS_3mapINS_12basic_stringIcNS_11char_traitsIcEENS_9allocatorIcEEEElNS_4lessIS7_EENS5_INS_4pairIKS7_lEEEEEENS5_ISE_EEE8capacityB8ue170006Ev, symObjAddr: 0x15088, symBinAddr: 0x100017F7C, symSize: 0x40 }
  - { offsetInCU: 0x42B93, offset: 0x42B93, size: 0x8, addend: 0x0, symName: __ZNKSt3__16vectorINS_3mapINS_12basic_stringIcNS_11char_traitsIcEENS_9allocatorIcEEEElNS_4lessIS7_EENS5_INS_4pairIKS7_lEEEEEENS5_ISE_EEE9__end_capB8ue170006Ev, symObjAddr: 0x150DC, symBinAddr: 0x100017FD0, symSize: 0x28 }
  - { offsetInCU: 0x42BB9, offset: 0x42BB9, size: 0x8, addend: 0x0, symName: __ZNKSt3__117__compressed_pairIPNS_3mapINS_12basic_stringIcNS_11char_traitsIcEENS_9allocatorIcEEEElNS_4lessIS7_EENS5_INS_4pairIKS7_lEEEEEENS5_ISE_EEE5firstB8ue170006Ev, symObjAddr: 0x15104, symBinAddr: 0x100017FF8, symSize: 0x24 }
  - { offsetInCU: 0x42BDF, offset: 0x42BDF, size: 0x8, addend: 0x0, symName: __ZNKSt3__122__compressed_pair_elemIPNS_3mapINS_12basic_stringIcNS_11char_traitsIcEENS_9allocatorIcEEEElNS_4lessIS7_EENS5_INS_4pairIKS7_lEEEEEELi0ELb0EE5__getB8ue170006Ev, symObjAddr: 0x15128, symBinAddr: 0x10001801C, symSize: 0x14 }
  - { offsetInCU: 0x42C23, offset: 0x42C23, size: 0x8, addend: 0x0, symName: __ZNSt3__16vectorINS_3mapINS_12basic_stringIcNS_11char_traitsIcEENS_9allocatorIcEEEElNS_4lessIS7_EENS5_INS_4pairIKS7_lEEEEEENS5_ISE_EEE21_ConstructTransactionC1B8ue170006ERSG_m, symObjAddr: 0x1513C, symBinAddr: 0x100018030, symSize: 0x3C }
  - { offsetInCU: 0x42C6B, offset: 0x42C6B, size: 0x8, addend: 0x0, symName: __ZNSt3__16vectorINS_3mapINS_12basic_stringIcNS_11char_traitsIcEENS_9allocatorIcEEEElNS_4lessIS7_EENS5_INS_4pairIKS7_lEEEEEENS5_ISE_EEE21_ConstructTransactionD1B8ue170006Ev, symObjAddr: 0x151F8, symBinAddr: 0x1000180EC, symSize: 0x2C }
  - { offsetInCU: 0x42C95, offset: 0x42C95, size: 0x8, addend: 0x0, symName: __ZNSt3__16vectorINS_3mapINS_12basic_stringIcNS_11char_traitsIcEENS_9allocatorIcEEEElNS_4lessIS7_EENS5_INS_4pairIKS7_lEEEEEENS5_ISE_EEE21_ConstructTransactionC2B8ue170006ERSG_m, symObjAddr: 0x15224, symBinAddr: 0x100018118, symSize: 0x4C }
  - { offsetInCU: 0x42D01, offset: 0x42D01, size: 0x8, addend: 0x0, symName: __ZNSt3__14pairIPNS_3mapINS_12basic_stringIcNS_11char_traitsIcEENS_9allocatorIcEEEElNS_4lessIS7_EENS5_INS0_IKS7_lEEEEEESE_EC1B8ue170006ISE_SE_LPv0EEEOT_OT0_, symObjAddr: 0x1545C, symBinAddr: 0x100018350, symSize: 0x3C }
  - { offsetInCU: 0x42D5F, offset: 0x42D5F, size: 0x8, addend: 0x0, symName: __ZNSt3__14pairIPNS_3mapINS_12basic_stringIcNS_11char_traitsIcEENS_9allocatorIcEEEElNS_4lessIS7_EENS5_INS0_IKS7_lEEEEEESE_EC2B8ue170006ISE_SE_LPv0EEEOT_OT0_, symObjAddr: 0x15498, symBinAddr: 0x10001838C, symSize: 0x34 }
  - { offsetInCU: 0x42DBD, offset: 0x42DBD, size: 0x8, addend: 0x0, symName: __ZNSt3__129_AllocatorDestroyRangeReverseINS_9allocatorINS_3mapINS_12basic_stringIcNS_11char_traitsIcEENS1_IcEEEElNS_4lessIS7_EENS1_INS_4pairIKS7_lEEEEEEEEPSE_EC1B8ue170006ERSF_RSG_SJ_, symObjAddr: 0x15518, symBinAddr: 0x10001840C, symSize: 0x44 }
  - { offsetInCU: 0x42E14, offset: 0x42E14, size: 0x8, addend: 0x0, symName: __ZNSt3__116allocator_traitsINS_9allocatorINS_3mapINS_12basic_stringIcNS_11char_traitsIcEENS1_IcEEEElNS_4lessIS7_EENS1_INS_4pairIKS7_lEEEEEEEEE9constructB8ue170006ISE_JRSE_EvEEvRSF_PT_DpOT0_, symObjAddr: 0x1555C, symBinAddr: 0x100018450, symSize: 0x34 }
  - { offsetInCU: 0x42E6B, offset: 0x42E6B, size: 0x8, addend: 0x0, symName: __ZNSt3__128__exception_guard_exceptionsINS_29_AllocatorDestroyRangeReverseINS_9allocatorINS_3mapINS_12basic_stringIcNS_11char_traitsIcEENS2_IcEEEElNS_4lessIS8_EENS2_INS_4pairIKS8_lEEEEEEEEPSF_EEE10__completeB8ue170006Ev, symObjAddr: 0x15590, symBinAddr: 0x100018484, symSize: 0x1C }
  - { offsetInCU: 0x42E91, offset: 0x42E91, size: 0x8, addend: 0x0, symName: __ZNSt3__128__exception_guard_exceptionsINS_29_AllocatorDestroyRangeReverseINS_9allocatorINS_3mapINS_12basic_stringIcNS_11char_traitsIcEENS2_IcEEEElNS_4lessIS8_EENS2_INS_4pairIKS8_lEEEEEEEEPSF_EEED1B8ue170006Ev, symObjAddr: 0x155AC, symBinAddr: 0x1000184A0, symSize: 0x2C }
  - { offsetInCU: 0x42EBB, offset: 0x42EBB, size: 0x8, addend: 0x0, symName: __ZNSt3__128__exception_guard_exceptionsINS_29_AllocatorDestroyRangeReverseINS_9allocatorINS_3mapINS_12basic_stringIcNS_11char_traitsIcEENS2_IcEEEElNS_4lessIS8_EENS2_INS_4pairIKS8_lEEEEEEEEPSF_EEEC1B8ue170006ESI_, symObjAddr: 0x155D8, symBinAddr: 0x1000184CC, symSize: 0x34 }
  - { offsetInCU: 0x42EF4, offset: 0x42EF4, size: 0x8, addend: 0x0, symName: __ZNSt3__128__exception_guard_exceptionsINS_29_AllocatorDestroyRangeReverseINS_9allocatorINS_3mapINS_12basic_stringIcNS_11char_traitsIcEENS2_IcEEEElNS_4lessIS8_EENS2_INS_4pairIKS8_lEEEEEEEEPSF_EEEC2B8ue170006ESI_, symObjAddr: 0x1560C, symBinAddr: 0x100018500, symSize: 0x30 }
  - { offsetInCU: 0x42F2D, offset: 0x42F2D, size: 0x8, addend: 0x0, symName: __ZNSt3__129_AllocatorDestroyRangeReverseINS_9allocatorINS_3mapINS_12basic_stringIcNS_11char_traitsIcEENS1_IcEEEElNS_4lessIS7_EENS1_INS_4pairIKS7_lEEEEEEEEPSE_EC2B8ue170006ERSF_RSG_SJ_, symObjAddr: 0x1563C, symBinAddr: 0x100018530, symSize: 0x38 }
  - { offsetInCU: 0x42F84, offset: 0x42F84, size: 0x8, addend: 0x0, symName: __ZNSt3__19allocatorINS_3mapINS_12basic_stringIcNS_11char_traitsIcEENS0_IcEEEElNS_4lessIS6_EENS0_INS_4pairIKS6_lEEEEEEE9constructB8ue170006ISD_JRSD_EEEvPT_DpOT0_, symObjAddr: 0x15674, symBinAddr: 0x100018568, symSize: 0x30 }
  - { offsetInCU: 0x42FDA, offset: 0x42FDA, size: 0x8, addend: 0x0, symName: __ZNSt3__128__exception_guard_exceptionsINS_29_AllocatorDestroyRangeReverseINS_9allocatorINS_3mapINS_12basic_stringIcNS_11char_traitsIcEENS2_IcEEEElNS_4lessIS8_EENS2_INS_4pairIKS8_lEEEEEEEEPSF_EEED2B8ue170006Ev, symObjAddr: 0x156A4, symBinAddr: 0x100018598, symSize: 0x50 }
  - { offsetInCU: 0x43004, offset: 0x43004, size: 0x8, addend: 0x0, symName: __ZNKSt3__129_AllocatorDestroyRangeReverseINS_9allocatorINS_3mapINS_12basic_stringIcNS_11char_traitsIcEENS1_IcEEEElNS_4lessIS7_EENS1_INS_4pairIKS7_lEEEEEEEEPSE_EclB8ue170006Ev, symObjAddr: 0x156F4, symBinAddr: 0x1000185E8, symSize: 0x68 }
  - { offsetInCU: 0x4302A, offset: 0x4302A, size: 0x8, addend: 0x0, symName: __ZNSt3__116reverse_iteratorIPNS_3mapINS_12basic_stringIcNS_11char_traitsIcEENS_9allocatorIcEEEElNS_4lessIS7_EENS5_INS_4pairIKS7_lEEEEEEEC1B8ue170006ESF_, symObjAddr: 0x157CC, symBinAddr: 0x1000186C0, symSize: 0x34 }
  - { offsetInCU: 0x43062, offset: 0x43062, size: 0x8, addend: 0x0, symName: __ZNSt3__116allocator_traitsINS_9allocatorINS_3mapINS_12basic_stringIcNS_11char_traitsIcEENS1_IcEEEElNS_4lessIS7_EENS1_INS_4pairIKS7_lEEEEEEEEE7destroyB8ue170006ISE_vEEvRSF_PT_, symObjAddr: 0x15848, symBinAddr: 0x10001873C, symSize: 0x2C }
  - { offsetInCU: 0x4309F, offset: 0x4309F, size: 0x8, addend: 0x0, symName: __ZNSt3__116reverse_iteratorIPNS_3mapINS_12basic_stringIcNS_11char_traitsIcEENS_9allocatorIcEEEElNS_4lessIS7_EENS5_INS_4pairIKS7_lEEEEEEEppB8ue170006Ev, symObjAddr: 0x15898, symBinAddr: 0x10001878C, symSize: 0x20 }
  - { offsetInCU: 0x430C5, offset: 0x430C5, size: 0x8, addend: 0x0, symName: __ZNKSt3__116reverse_iteratorIPNS_3mapINS_12basic_stringIcNS_11char_traitsIcEENS_9allocatorIcEEEElNS_4lessIS7_EENS5_INS_4pairIKS7_lEEEEEEE4baseB8ue170006Ev, symObjAddr: 0x158B8, symBinAddr: 0x1000187AC, symSize: 0x18 }
  - { offsetInCU: 0x430EB, offset: 0x430EB, size: 0x8, addend: 0x0, symName: __ZNSt3__19allocatorINS_3mapINS_12basic_stringIcNS_11char_traitsIcEENS0_IcEEEElNS_4lessIS6_EENS0_INS_4pairIKS6_lEEEEEEE7destroyB8ue170006EPSD_, symObjAddr: 0x158D0, symBinAddr: 0x1000187C4, symSize: 0x28 }
  - { offsetInCU: 0x43125, offset: 0x43125, size: 0x8, addend: 0x0, symName: __ZNSt3__119__to_address_helperINS_16reverse_iteratorIPNS_3mapINS_12basic_stringIcNS_11char_traitsIcEENS_9allocatorIcEEEElNS_4lessIS8_EENS6_INS_4pairIKS8_lEEEEEEEEvE6__callB8ue170006ERKSH_, symObjAddr: 0x158F8, symBinAddr: 0x1000187EC, symSize: 0x38 }
  - { offsetInCU: 0x43148, offset: 0x43148, size: 0x8, addend: 0x0, symName: __ZNKSt3__116reverse_iteratorIPNS_3mapINS_12basic_stringIcNS_11char_traitsIcEENS_9allocatorIcEEEElNS_4lessIS7_EENS5_INS_4pairIKS7_lEEEEEEEptB8ue170006Ev, symObjAddr: 0x15930, symBinAddr: 0x100018824, symSize: 0x24 }
  - { offsetInCU: 0x4316E, offset: 0x4316E, size: 0x8, addend: 0x0, symName: __ZNKSt3__116reverse_iteratorIPNS_3mapINS_12basic_stringIcNS_11char_traitsIcEENS_9allocatorIcEEEElNS_4lessIS7_EENS5_INS_4pairIKS7_lEEEEEEEdeB8ue170006Ev, symObjAddr: 0x15954, symBinAddr: 0x100018848, symSize: 0x28 }
  - { offsetInCU: 0x431A2, offset: 0x431A2, size: 0x8, addend: 0x0, symName: __ZNSt3__116reverse_iteratorIPNS_3mapINS_12basic_stringIcNS_11char_traitsIcEENS_9allocatorIcEEEElNS_4lessIS7_EENS5_INS_4pairIKS7_lEEEEEEEC2B8ue170006ESF_, symObjAddr: 0x1597C, symBinAddr: 0x100018870, symSize: 0x28 }
  - { offsetInCU: 0x431DA, offset: 0x431DA, size: 0x8, addend: 0x0, symName: __ZNSt3__118__unwrap_iter_implIPNS_3mapINS_12basic_stringIcNS_11char_traitsIcEENS_9allocatorIcEEEElNS_4lessIS7_EENS5_INS_4pairIKS7_lEEEEEELb1EE8__unwrapB8ue170006ESF_, symObjAddr: 0x159A4, symBinAddr: 0x100018898, symSize: 0x24 }
  - { offsetInCU: 0x431FD, offset: 0x431FD, size: 0x8, addend: 0x0, symName: __ZNSt3__118__unwrap_iter_implIPNS_3mapINS_12basic_stringIcNS_11char_traitsIcEENS_9allocatorIcEEEElNS_4lessIS7_EENS5_INS_4pairIKS7_lEEEEEELb1EE8__rewrapB8ue170006ESF_SF_, symObjAddr: 0x159C8, symBinAddr: 0x1000188BC, symSize: 0x58 }
  - { offsetInCU: 0x4322E, offset: 0x4322E, size: 0x8, addend: 0x0, symName: __ZNSt3__16vectorINS_3mapINS_12basic_stringIcNS_11char_traitsIcEENS_9allocatorIcEEEElNS_4lessIS7_EENS5_INS_4pairIKS7_lEEEEEENS5_ISE_EEE21_ConstructTransactionD2B8ue170006Ev, symObjAddr: 0x15A20, symBinAddr: 0x100018914, symSize: 0x20 }
  - { offsetInCU: 0x43258, offset: 0x43258, size: 0x8, addend: 0x0, symName: __ZNSt3__128__exception_guard_exceptionsINS_6vectorINS_3mapINS_12basic_stringIcNS_11char_traitsIcEENS_9allocatorIcEEEElNS_4lessIS8_EENS6_INS_4pairIKS8_lEEEEEENS6_ISF_EEE16__destroy_vectorEED2B8ue170006Ev, symObjAddr: 0x15A40, symBinAddr: 0x100018934, symSize: 0x50 }
  - { offsetInCU: 0x43282, offset: 0x43282, size: 0x8, addend: 0x0, symName: __ZNSt3__16vectorINS_3mapINS_12basic_stringIcNS_11char_traitsIcEENS_9allocatorIcEEEElNS_4lessIS7_EENS5_INS_4pairIKS7_lEEEEEENS5_ISE_EEE16__destroy_vectorclB8ue170006Ev, symObjAddr: 0x15A90, symBinAddr: 0x100018984, symSize: 0x90 }
  - { offsetInCU: 0x432A8, offset: 0x432A8, size: 0x8, addend: 0x0, symName: __ZNSt3__16vectorINS_3mapINS_12basic_stringIcNS_11char_traitsIcEENS_9allocatorIcEEEElNS_4lessIS7_EENS5_INS_4pairIKS7_lEEEEEENS5_ISE_EEE7__clearB8ue170006Ev, symObjAddr: 0x15B20, symBinAddr: 0x100018A14, symSize: 0x28 }
  - { offsetInCU: 0x432CE, offset: 0x432CE, size: 0x8, addend: 0x0, symName: __ZNKSt3__16vectorINS_3mapINS_12basic_stringIcNS_11char_traitsIcEENS_9allocatorIcEEEElNS_4lessIS7_EENS5_INS_4pairIKS7_lEEEEEENS5_ISE_EEE17__annotate_deleteB8ue170006Ev, symObjAddr: 0x15B48, symBinAddr: 0x100018A3C, symSize: 0xD4 }
  - { offsetInCU: 0x432F4, offset: 0x432F4, size: 0x8, addend: 0x0, symName: __ZNSt3__116allocator_traitsINS_9allocatorINS_3mapINS_12basic_stringIcNS_11char_traitsIcEENS1_IcEEEElNS_4lessIS7_EENS1_INS_4pairIKS7_lEEEEEEEEE10deallocateB8ue170006ERSF_PSE_m, symObjAddr: 0x15C1C, symBinAddr: 0x100018B10, symSize: 0x34 }
  - { offsetInCU: 0x43336, offset: 0x43336, size: 0x8, addend: 0x0, symName: __ZNSt3__16vectorINS_3mapINS_12basic_stringIcNS_11char_traitsIcEENS_9allocatorIcEEEElNS_4lessIS7_EENS5_INS_4pairIKS7_lEEEEEENS5_ISE_EEE22__base_destruct_at_endB8ue170006EPSE_, symObjAddr: 0x15C50, symBinAddr: 0x100018B44, symSize: 0x8C }
  - { offsetInCU: 0x4337A, offset: 0x4337A, size: 0x8, addend: 0x0, symName: __ZNSt3__19allocatorINS_3mapINS_12basic_stringIcNS_11char_traitsIcEENS0_IcEEEElNS_4lessIS6_EENS0_INS_4pairIKS6_lEEEEEEE10deallocateB8ue170006EPSD_m, symObjAddr: 0x15CDC, symBinAddr: 0x100018BD0, symSize: 0x44 }
  - { offsetInCU: 0x433BC, offset: 0x433BC, size: 0x8, addend: 0x0, symName: __ZNSt3__13mapINS_12basic_stringIcNS_11char_traitsIcEENS_9allocatorIcEEEE7MonomerNS_4lessIS6_EENS4_INS_4pairIKS6_S7_EEEEEC2B8ue170006ERKSE_, symObjAddr: 0x15D9C, symBinAddr: 0x100018C90, symSize: 0x88 }
  - { offsetInCU: 0x433F5, offset: 0x433F5, size: 0x8, addend: 0x0, symName: __ZNSt3__16__treeINS_12__value_typeINS_12basic_stringIcNS_11char_traitsIcEENS_9allocatorIcEEEE7MonomerEENS_19__map_value_compareIS7_S9_NS_4lessIS7_EELb1EEENS5_IS9_EEEC1ERKSF_, symObjAddr: 0x15E24, symBinAddr: 0x100018D18, symSize: 0x34 }
  - { offsetInCU: 0x43430, offset: 0x43430, size: 0x8, addend: 0x0, symName: __ZNSt3__13mapINS_12basic_stringIcNS_11char_traitsIcEENS_9allocatorIcEEEE7MonomerNS_4lessIS6_EENS4_INS_4pairIKS6_S7_EEEEE6insertB8ue170006INS_20__map_const_iteratorINS_21__tree_const_iteratorINS_12__value_typeIS6_S7_EEPNS_11__tree_nodeISJ_PvEElEEEEEEvT_SQ_, symObjAddr: 0x15E58, symBinAddr: 0x100018D4C, symSize: 0x8C }
  - { offsetInCU: 0x4349B, offset: 0x4349B, size: 0x8, addend: 0x0, symName: __ZNKSt3__13mapINS_12basic_stringIcNS_11char_traitsIcEENS_9allocatorIcEEEE7MonomerNS_4lessIS6_EENS4_INS_4pairIKS6_S7_EEEEE5beginB8ue170006Ev, symObjAddr: 0x15EE4, symBinAddr: 0x100018DD8, symSize: 0x38 }
  - { offsetInCU: 0x434C1, offset: 0x434C1, size: 0x8, addend: 0x0, symName: __ZNKSt3__13mapINS_12basic_stringIcNS_11char_traitsIcEENS_9allocatorIcEEEE7MonomerNS_4lessIS6_EENS4_INS_4pairIKS6_S7_EEEEE3endB8ue170006Ev, symObjAddr: 0x15F1C, symBinAddr: 0x100018E10, symSize: 0x38 }
  - { offsetInCU: 0x434E7, offset: 0x434E7, size: 0x8, addend: 0x0, symName: __ZNSt3__16__treeINS_12__value_typeINS_12basic_stringIcNS_11char_traitsIcEENS_9allocatorIcEEEE7MonomerEENS_19__map_value_compareIS7_S9_NS_4lessIS7_EELb1EEENS5_IS9_EEED1Ev, symObjAddr: 0x15F54, symBinAddr: 0x100018E48, symSize: 0x2C }
  - { offsetInCU: 0x43513, offset: 0x43513, size: 0x8, addend: 0x0, symName: __ZNSt3__16__treeINS_12__value_typeINS_12basic_stringIcNS_11char_traitsIcEENS_9allocatorIcEEEE7MonomerEENS_19__map_value_compareIS7_S9_NS_4lessIS7_EELb1EEENS5_IS9_EEEC2ERKSF_, symObjAddr: 0x15F80, symBinAddr: 0x100018E74, symSize: 0x9C }
  - { offsetInCU: 0x4355A, offset: 0x4355A, size: 0x8, addend: 0x0, symName: __ZNSt3__116allocator_traitsINS_9allocatorINS_11__tree_nodeINS_12__value_typeINS_12basic_stringIcNS_11char_traitsIcEENS1_IcEEEE7MonomerEEPvEEEEE37select_on_container_copy_constructionB8ue170006ISD_vvEESD_RKSD_, symObjAddr: 0x1601C, symBinAddr: 0x100018F10, symSize: 0x10 }
  - { offsetInCU: 0x43589, offset: 0x43589, size: 0x8, addend: 0x0, symName: __ZNKSt3__16__treeINS_12__value_typeINS_12basic_stringIcNS_11char_traitsIcEENS_9allocatorIcEEEE7MonomerEENS_19__map_value_compareIS7_S9_NS_4lessIS7_EELb1EEENS5_IS9_EEE12__node_allocB8ue170006Ev, symObjAddr: 0x1602C, symBinAddr: 0x100018F20, symSize: 0x28 }
  - { offsetInCU: 0x435BB, offset: 0x435BB, size: 0x8, addend: 0x0, symName: __ZNSt3__117__compressed_pairINS_15__tree_end_nodeIPNS_16__tree_node_baseIPvEEEENS_9allocatorINS_11__tree_nodeINS_12__value_typeINS_12basic_stringIcNS_11char_traitsIcEENS7_IcEEEE7MonomerEES3_EEEEEC1B8ue170006INS_18__default_init_tagESI_EEOT_OT0_, symObjAddr: 0x16054, symBinAddr: 0x100018F48, symSize: 0x3C }
  - { offsetInCU: 0x43613, offset: 0x43613, size: 0x8, addend: 0x0, symName: __ZNKSt3__16__treeINS_12__value_typeINS_12basic_stringIcNS_11char_traitsIcEENS_9allocatorIcEEEE7MonomerEENS_19__map_value_compareIS7_S9_NS_4lessIS7_EELb1EEENS5_IS9_EEE10value_compB8ue170006Ev, symObjAddr: 0x16090, symBinAddr: 0x100018F84, symSize: 0x28 }
  - { offsetInCU: 0x4363F, offset: 0x4363F, size: 0x8, addend: 0x0, symName: __ZNSt3__117__compressed_pairImNS_19__map_value_compareINS_12basic_stringIcNS_11char_traitsIcEENS_9allocatorIcEEEENS_12__value_typeIS7_7MonomerEENS_4lessIS7_EELb1EEEEC1B8ue170006IiRKSD_EEOT_OT0_, symObjAddr: 0x160B8, symBinAddr: 0x100018FAC, symSize: 0x3C }
  - { offsetInCU: 0x43697, offset: 0x43697, size: 0x8, addend: 0x0, symName: __ZNSt3__16__treeINS_12__value_typeINS_12basic_stringIcNS_11char_traitsIcEENS_9allocatorIcEEEE7MonomerEENS_19__map_value_compareIS7_S9_NS_4lessIS7_EELb1EEENS5_IS9_EEE10__end_nodeB8ue170006Ev, symObjAddr: 0x160F4, symBinAddr: 0x100018FE8, symSize: 0x2C }
  - { offsetInCU: 0x436BD, offset: 0x436BD, size: 0x8, addend: 0x0, symName: __ZNSt3__16__treeINS_12__value_typeINS_12basic_stringIcNS_11char_traitsIcEENS_9allocatorIcEEEE7MonomerEENS_19__map_value_compareIS7_S9_NS_4lessIS7_EELb1EEENS5_IS9_EEE12__begin_nodeB8ue170006Ev, symObjAddr: 0x16120, symBinAddr: 0x100019014, symSize: 0x14 }
  - { offsetInCU: 0x436E3, offset: 0x436E3, size: 0x8, addend: 0x0, symName: __ZNKSt3__117__compressed_pairINS_15__tree_end_nodeIPNS_16__tree_node_baseIPvEEEENS_9allocatorINS_11__tree_nodeINS_12__value_typeINS_12basic_stringIcNS_11char_traitsIcEENS7_IcEEEE7MonomerEES3_EEEEE6secondB8ue170006Ev, symObjAddr: 0x16134, symBinAddr: 0x100019028, symSize: 0x24 }
  - { offsetInCU: 0x43709, offset: 0x43709, size: 0x8, addend: 0x0, symName: __ZNKSt3__122__compressed_pair_elemINS_9allocatorINS_11__tree_nodeINS_12__value_typeINS_12basic_stringIcNS_11char_traitsIcEENS1_IcEEEE7MonomerEEPvEEEELi1ELb1EE5__getB8ue170006Ev, symObjAddr: 0x16158, symBinAddr: 0x10001904C, symSize: 0x14 }
  - { offsetInCU: 0x4372F, offset: 0x4372F, size: 0x8, addend: 0x0, symName: __ZNSt3__117__compressed_pairINS_15__tree_end_nodeIPNS_16__tree_node_baseIPvEEEENS_9allocatorINS_11__tree_nodeINS_12__value_typeINS_12basic_stringIcNS_11char_traitsIcEENS7_IcEEEE7MonomerEES3_EEEEEC2B8ue170006INS_18__default_init_tagESI_EEOT_OT0_, symObjAddr: 0x1616C, symBinAddr: 0x100019060, symSize: 0x40 }
  - { offsetInCU: 0x43787, offset: 0x43787, size: 0x8, addend: 0x0, symName: __ZNSt3__122__compressed_pair_elemINS_15__tree_end_nodeIPNS_16__tree_node_baseIPvEEEELi0ELb0EEC2B8ue170006ENS_18__default_init_tagE, symObjAddr: 0x161AC, symBinAddr: 0x1000190A0, symSize: 0x2C }
  - { offsetInCU: 0x437BB, offset: 0x437BB, size: 0x8, addend: 0x0, symName: __ZNSt3__122__compressed_pair_elemINS_9allocatorINS_11__tree_nodeINS_12__value_typeINS_12basic_stringIcNS_11char_traitsIcEENS1_IcEEEE7MonomerEEPvEEEELi1ELb1EEC2B8ue170006ISD_vEEOT_, symObjAddr: 0x161D8, symBinAddr: 0x1000190CC, symSize: 0x18 }
  - { offsetInCU: 0x437FD, offset: 0x437FD, size: 0x8, addend: 0x0, symName: __ZNSt3__115__tree_end_nodeIPNS_16__tree_node_baseIPvEEEC1B8ue170006Ev, symObjAddr: 0x161F0, symBinAddr: 0x1000190E4, symSize: 0x2C }
  - { offsetInCU: 0x43827, offset: 0x43827, size: 0x8, addend: 0x0, symName: __ZNSt3__115__tree_end_nodeIPNS_16__tree_node_baseIPvEEEC2B8ue170006Ev, symObjAddr: 0x1621C, symBinAddr: 0x100019110, symSize: 0x18 }
  - { offsetInCU: 0x43851, offset: 0x43851, size: 0x8, addend: 0x0, symName: __ZNKSt3__117__compressed_pairImNS_19__map_value_compareINS_12basic_stringIcNS_11char_traitsIcEENS_9allocatorIcEEEENS_12__value_typeIS7_7MonomerEENS_4lessIS7_EELb1EEEE6secondB8ue170006Ev, symObjAddr: 0x16234, symBinAddr: 0x100019128, symSize: 0x24 }
  - { offsetInCU: 0x43877, offset: 0x43877, size: 0x8, addend: 0x0, symName: __ZNKSt3__122__compressed_pair_elemINS_19__map_value_compareINS_12basic_stringIcNS_11char_traitsIcEENS_9allocatorIcEEEENS_12__value_typeIS7_7MonomerEENS_4lessIS7_EELb1EEELi1ELb1EE5__getB8ue170006Ev, symObjAddr: 0x16258, symBinAddr: 0x10001914C, symSize: 0x14 }
  - { offsetInCU: 0x4389D, offset: 0x4389D, size: 0x8, addend: 0x0, symName: __ZNSt3__117__compressed_pairImNS_19__map_value_compareINS_12basic_stringIcNS_11char_traitsIcEENS_9allocatorIcEEEENS_12__value_typeIS7_7MonomerEENS_4lessIS7_EELb1EEEEC2B8ue170006IiRKSD_EEOT_OT0_, symObjAddr: 0x1626C, symBinAddr: 0x100019160, symSize: 0x44 }
  - { offsetInCU: 0x438F5, offset: 0x438F5, size: 0x8, addend: 0x0, symName: __ZNSt3__122__compressed_pair_elemImLi0ELb0EEC2B8ue170006IivEEOT_, symObjAddr: 0x162B0, symBinAddr: 0x1000191A4, symSize: 0x24 }
  - { offsetInCU: 0x43937, offset: 0x43937, size: 0x8, addend: 0x0, symName: __ZNSt3__122__compressed_pair_elemINS_19__map_value_compareINS_12basic_stringIcNS_11char_traitsIcEENS_9allocatorIcEEEENS_12__value_typeIS7_7MonomerEENS_4lessIS7_EELb1EEELi1ELb1EEC2B8ue170006IRKSD_vEEOT_, symObjAddr: 0x162D4, symBinAddr: 0x1000191C8, symSize: 0x18 }
  - { offsetInCU: 0x43979, offset: 0x43979, size: 0x8, addend: 0x0, symName: __ZNSt3__114pointer_traitsIPNS_15__tree_end_nodeIPNS_16__tree_node_baseIPvEEEEE10pointer_toB8ue170006ERS6_, symObjAddr: 0x162EC, symBinAddr: 0x1000191E0, symSize: 0x14 }
  - { offsetInCU: 0x4399C, offset: 0x4399C, size: 0x8, addend: 0x0, symName: __ZNSt3__117__compressed_pairINS_15__tree_end_nodeIPNS_16__tree_node_baseIPvEEEENS_9allocatorINS_11__tree_nodeINS_12__value_typeINS_12basic_stringIcNS_11char_traitsIcEENS7_IcEEEE7MonomerEES3_EEEEE5firstB8ue170006Ev, symObjAddr: 0x16300, symBinAddr: 0x1000191F4, symSize: 0x24 }
  - { offsetInCU: 0x439C2, offset: 0x439C2, size: 0x8, addend: 0x0, symName: __ZNSt3__122__compressed_pair_elemINS_15__tree_end_nodeIPNS_16__tree_node_baseIPvEEEELi0ELb0EE5__getB8ue170006Ev, symObjAddr: 0x16324, symBinAddr: 0x100019218, symSize: 0x14 }
  - { offsetInCU: 0x439E8, offset: 0x439E8, size: 0x8, addend: 0x0, symName: __ZNKSt3__13mapINS_12basic_stringIcNS_11char_traitsIcEENS_9allocatorIcEEEE7MonomerNS_4lessIS6_EENS4_INS_4pairIKS6_S7_EEEEE4cendB8ue170006Ev, symObjAddr: 0x16338, symBinAddr: 0x10001922C, symSize: 0x2C }
  - { offsetInCU: 0x43A0E, offset: 0x43A0E, size: 0x8, addend: 0x0, symName: __ZNSt3__13mapINS_12basic_stringIcNS_11char_traitsIcEENS_9allocatorIcEEEE7MonomerNS_4lessIS6_EENS4_INS_4pairIKS6_S7_EEEEE6insertB8ue170006ENS_20__map_const_iteratorINS_21__tree_const_iteratorINS_12__value_typeIS6_S7_EEPNS_11__tree_nodeISI_PvEElEEEERKSC_, symObjAddr: 0x16394, symBinAddr: 0x100019288, symSize: 0x50 }
  - { offsetInCU: 0x43A52, offset: 0x43A52, size: 0x8, addend: 0x0, symName: __ZNSt3__120__map_const_iteratorINS_21__tree_const_iteratorINS_12__value_typeINS_12basic_stringIcNS_11char_traitsIcEENS_9allocatorIcEEEE7MonomerEEPNS_11__tree_nodeISA_PvEElEEEC1B8ue170006ESF_, symObjAddr: 0x163E4, symBinAddr: 0x1000192D8, symSize: 0x34 }
  - { offsetInCU: 0x43A8B, offset: 0x43A8B, size: 0x8, addend: 0x0, symName: __ZNKSt3__120__map_const_iteratorINS_21__tree_const_iteratorINS_12__value_typeINS_12basic_stringIcNS_11char_traitsIcEENS_9allocatorIcEEEE7MonomerEEPNS_11__tree_nodeISA_PvEElEEEdeB8ue170006Ev, symObjAddr: 0x16418, symBinAddr: 0x10001930C, symSize: 0x28 }
  - { offsetInCU: 0x43AB1, offset: 0x43AB1, size: 0x8, addend: 0x0, symName: __ZNSt3__120__map_const_iteratorINS_21__tree_const_iteratorINS_12__value_typeINS_12basic_stringIcNS_11char_traitsIcEENS_9allocatorIcEEEE7MonomerEEPNS_11__tree_nodeISA_PvEElEEEppB8ue170006Ev, symObjAddr: 0x16440, symBinAddr: 0x100019334, symSize: 0x2C }
  - { offsetInCU: 0x43AD7, offset: 0x43AD7, size: 0x8, addend: 0x0, symName: __ZNSt3__16__treeINS_12__value_typeINS_12basic_stringIcNS_11char_traitsIcEENS_9allocatorIcEEEE7MonomerEENS_19__map_value_compareIS7_S9_NS_4lessIS7_EELb1EEENS5_IS9_EEE15__insert_uniqueB8ue170006ENS_21__tree_const_iteratorIS9_PNS_11__tree_nodeIS9_PvEElEERKNS_4pairIKS7_S8_EE, symObjAddr: 0x164D0, symBinAddr: 0x1000193C4, symSize: 0x64 }
  - { offsetInCU: 0x43B1B, offset: 0x43B1B, size: 0x8, addend: 0x0, symName: __ZNSt3__114__map_iteratorINS_15__tree_iteratorINS_12__value_typeINS_12basic_stringIcNS_11char_traitsIcEENS_9allocatorIcEEEE7MonomerEEPNS_11__tree_nodeISA_PvEElEEEC1B8ue170006ESF_, symObjAddr: 0x16534, symBinAddr: 0x100019428, symSize: 0x34 }
  - { offsetInCU: 0x43B54, offset: 0x43B54, size: 0x8, addend: 0x0, symName: __ZNSt3__16__treeINS_12__value_typeINS_12basic_stringIcNS_11char_traitsIcEENS_9allocatorIcEEEE7MonomerEENS_19__map_value_compareIS7_S9_NS_4lessIS7_EELb1EEENS5_IS9_EEE30__emplace_hint_unique_key_argsIS7_JRKNS_4pairIKS7_S8_EEEEENSH_INS_15__tree_iteratorIS9_PNS_11__tree_nodeIS9_PvEElEEbEENS_21__tree_const_iteratorIS9_SQ_lEERKT_DpOT0_, symObjAddr: 0x16568, symBinAddr: 0x10001945C, symSize: 0x104 }
  - { offsetInCU: 0x43C20, offset: 0x43C20, size: 0x8, addend: 0x0, symName: __ZNSt3__122__tree_key_value_typesINS_12__value_typeINS_12basic_stringIcNS_11char_traitsIcEENS_9allocatorIcEEEE7MonomerEEE9__get_keyB8ue170006IKNS_4pairIKS7_S8_EEEENS_9enable_ifIXsr17__is_same_uncvrefIT_SE_EE5valueERSD_E4typeERSH_, symObjAddr: 0x1666C, symBinAddr: 0x100019560, symSize: 0x14 }
  - { offsetInCU: 0x43C4D, offset: 0x43C4D, size: 0x8, addend: 0x0, symName: __ZNSt3__16__treeINS_12__value_typeINS_12basic_stringIcNS_11char_traitsIcEENS_9allocatorIcEEEE7MonomerEENS_19__map_value_compareIS7_S9_NS_4lessIS7_EELb1EEENS5_IS9_EEE12__find_equalIS7_EERPNS_16__tree_node_baseIPvEENS_21__tree_const_iteratorIS9_PNS_11__tree_nodeIS9_SI_EElEERPNS_15__tree_end_nodeISK_EESL_RKT_, symObjAddr: 0x16680, symBinAddr: 0x100019574, symSize: 0x304 }
  - { offsetInCU: 0x43CF8, offset: 0x43CF8, size: 0x8, addend: 0x0, symName: __ZNSt3__16__treeINS_12__value_typeINS_12basic_stringIcNS_11char_traitsIcEENS_9allocatorIcEEEE7MonomerEENS_19__map_value_compareIS7_S9_NS_4lessIS7_EELb1EEENS5_IS9_EEE16__construct_nodeIJRKNS_4pairIKS7_S8_EEEEENS_10unique_ptrINS_11__tree_nodeIS9_PvEENS_22__tree_node_destructorINS5_ISP_EEEEEEDpOT_, symObjAddr: 0x16984, symBinAddr: 0x100019878, symSize: 0x110 }
  - { offsetInCU: 0x43D59, offset: 0x43D59, size: 0x8, addend: 0x0, symName: __ZNSt3__16__treeINS_12__value_typeINS_12basic_stringIcNS_11char_traitsIcEENS_9allocatorIcEEEE7MonomerEENS_19__map_value_compareIS7_S9_NS_4lessIS7_EELb1EEENS5_IS9_EEE16__insert_node_atEPNS_15__tree_end_nodeIPNS_16__tree_node_baseIPvEEEERSK_SK_, symObjAddr: 0x16A94, symBinAddr: 0x100019988, symSize: 0xCC }
  - { offsetInCU: 0x43DAE, offset: 0x43DAE, size: 0x8, addend: 0x0, symName: __ZNKSt3__110unique_ptrINS_11__tree_nodeINS_12__value_typeINS_12basic_stringIcNS_11char_traitsIcEENS_9allocatorIcEEEE7MonomerEEPvEENS_22__tree_node_destructorINS6_ISC_EEEEE3getB8ue170006Ev, symObjAddr: 0x16B60, symBinAddr: 0x100019A54, symSize: 0x28 }
  - { offsetInCU: 0x43DD4, offset: 0x43DD4, size: 0x8, addend: 0x0, symName: __ZNSt3__110unique_ptrINS_11__tree_nodeINS_12__value_typeINS_12basic_stringIcNS_11char_traitsIcEENS_9allocatorIcEEEE7MonomerEEPvEENS_22__tree_node_destructorINS6_ISC_EEEEE7releaseB8ue170006Ev, symObjAddr: 0x16B88, symBinAddr: 0x100019A7C, symSize: 0x44 }
  - { offsetInCU: 0x43E09, offset: 0x43E09, size: 0x8, addend: 0x0, symName: __ZNSt3__110unique_ptrINS_11__tree_nodeINS_12__value_typeINS_12basic_stringIcNS_11char_traitsIcEENS_9allocatorIcEEEE7MonomerEEPvEENS_22__tree_node_destructorINS6_ISC_EEEEED1B8ue170006Ev, symObjAddr: 0x16BCC, symBinAddr: 0x100019AC0, symSize: 0x2C }
  - { offsetInCU: 0x43E33, offset: 0x43E33, size: 0x8, addend: 0x0, symName: __ZNSt3__115__tree_iteratorINS_12__value_typeINS_12basic_stringIcNS_11char_traitsIcEENS_9allocatorIcEEEE7MonomerEEPNS_11__tree_nodeIS9_PvEElEC1B8ue170006ESD_, symObjAddr: 0x16BF8, symBinAddr: 0x100019AEC, symSize: 0x34 }
  - { offsetInCU: 0x43E78, offset: 0x43E78, size: 0x8, addend: 0x0, symName: __ZNSt3__14pairINS_15__tree_iteratorINS_12__value_typeINS_12basic_stringIcNS_11char_traitsIcEENS_9allocatorIcEEEE7MonomerEEPNS_11__tree_nodeISA_PvEElEEbEC1B8ue170006ISF_RbLSC_0EEEOT_OT0_, symObjAddr: 0x16C2C, symBinAddr: 0x100019B20, symSize: 0x3C }
  - { offsetInCU: 0x43ED6, offset: 0x43ED6, size: 0x8, addend: 0x0, symName: __ZNSt3__16__treeINS_12__value_typeINS_12basic_stringIcNS_11char_traitsIcEENS_9allocatorIcEEEE7MonomerEENS_19__map_value_compareIS7_S9_NS_4lessIS7_EELb1EEENS5_IS9_EEE3endB8ue170006Ev, symObjAddr: 0x16C68, symBinAddr: 0x100019B5C, symSize: 0x34 }
  - { offsetInCU: 0x43EFC, offset: 0x43EFC, size: 0x8, addend: 0x0, symName: __ZNSt3__121__tree_const_iteratorINS_12__value_typeINS_12basic_stringIcNS_11char_traitsIcEENS_9allocatorIcEEEE7MonomerEEPNS_11__tree_nodeIS9_PvEElEC1B8ue170006ENS_15__tree_iteratorIS9_SD_lEE, symObjAddr: 0x16C9C, symBinAddr: 0x100019B90, symSize: 0x34 }
  - { offsetInCU: 0x43F35, offset: 0x43F35, size: 0x8, addend: 0x0, symName: __ZNSt3__16__treeINS_12__value_typeINS_12basic_stringIcNS_11char_traitsIcEENS_9allocatorIcEEEE7MonomerEENS_19__map_value_compareIS7_S9_NS_4lessIS7_EELb1EEENS5_IS9_EEE10value_compB8ue170006Ev, symObjAddr: 0x16CD0, symBinAddr: 0x100019BC4, symSize: 0x28 }
  - { offsetInCU: 0x43F5B, offset: 0x43F5B, size: 0x8, addend: 0x0, symName: __ZNKSt3__119__map_value_compareINS_12basic_stringIcNS_11char_traitsIcEENS_9allocatorIcEEEENS_12__value_typeIS6_7MonomerEENS_4lessIS6_EELb1EEclB8ue170006ERKS6_RKS9_, symObjAddr: 0x16CF8, symBinAddr: 0x100019BEC, symSize: 0x50 }
  - { offsetInCU: 0x43F9F, offset: 0x43F9F, size: 0x8, addend: 0x0, symName: __ZNKSt3__121__tree_const_iteratorINS_12__value_typeINS_12basic_stringIcNS_11char_traitsIcEENS_9allocatorIcEEEE7MonomerEEPNS_11__tree_nodeIS9_PvEElEdeB8ue170006Ev, symObjAddr: 0x16D48, symBinAddr: 0x100019C3C, symSize: 0x28 }
  - { offsetInCU: 0x43FC5, offset: 0x43FC5, size: 0x8, addend: 0x0, symName: __ZNSt3__16__treeINS_12__value_typeINS_12basic_stringIcNS_11char_traitsIcEENS_9allocatorIcEEEE7MonomerEENS_19__map_value_compareIS7_S9_NS_4lessIS7_EELb1EEENS5_IS9_EEE5beginB8ue170006Ev, symObjAddr: 0x16D70, symBinAddr: 0x100019C64, symSize: 0x34 }
  - { offsetInCU: 0x43FEB, offset: 0x43FEB, size: 0x8, addend: 0x0, symName: __ZNKSt3__119__map_value_compareINS_12basic_stringIcNS_11char_traitsIcEENS_9allocatorIcEEEENS_12__value_typeIS6_7MonomerEENS_4lessIS6_EELb1EEclB8ue170006ERKS9_RKS6_, symObjAddr: 0x16DA4, symBinAddr: 0x100019C98, symSize: 0x48 }
  - { offsetInCU: 0x4402F, offset: 0x4402F, size: 0x8, addend: 0x0, symName: __ZNSt3__121__tree_const_iteratorINS_12__value_typeINS_12basic_stringIcNS_11char_traitsIcEENS_9allocatorIcEEEE7MonomerEEPNS_11__tree_nodeIS9_PvEElEmmB8ue170006Ev, symObjAddr: 0x16DEC, symBinAddr: 0x100019CE0, symSize: 0x38 }
  - { offsetInCU: 0x44055, offset: 0x44055, size: 0x8, addend: 0x0, symName: __ZNSt3__16__treeINS_12__value_typeINS_12basic_stringIcNS_11char_traitsIcEENS_9allocatorIcEEEE7MonomerEENS_19__map_value_compareIS7_S9_NS_4lessIS7_EELb1EEENS5_IS9_EEE12__find_equalIS7_EERPNS_16__tree_node_baseIPvEERPNS_15__tree_end_nodeISK_EERKT_, symObjAddr: 0x16E24, symBinAddr: 0x100019D18, symSize: 0x184 }
  - { offsetInCU: 0x440C2, offset: 0x440C2, size: 0x8, addend: 0x0, symName: __ZNKSt3__121__tree_const_iteratorINS_12__value_typeINS_12basic_stringIcNS_11char_traitsIcEENS_9allocatorIcEEEE7MonomerEEPNS_11__tree_nodeIS9_PvEElE8__get_npB8ue170006Ev, symObjAddr: 0x16FE4, symBinAddr: 0x100019ED8, symSize: 0x18 }
  - { offsetInCU: 0x440E8, offset: 0x440E8, size: 0x8, addend: 0x0, symName: __ZNSt3__115__tree_iteratorINS_12__value_typeINS_12basic_stringIcNS_11char_traitsIcEENS_9allocatorIcEEEE7MonomerEEPNS_11__tree_nodeIS9_PvEElEC1B8ue170006EPNS_15__tree_end_nodeIPNS_16__tree_node_baseISB_EEEE, symObjAddr: 0x16FFC, symBinAddr: 0x100019EF0, symSize: 0x34 }
  - { offsetInCU: 0x44121, offset: 0x44121, size: 0x8, addend: 0x0, symName: __ZNSt3__115__tree_iteratorINS_12__value_typeINS_12basic_stringIcNS_11char_traitsIcEENS_9allocatorIcEEEE7MonomerEEPNS_11__tree_nodeIS9_PvEElEC2B8ue170006EPNS_15__tree_end_nodeIPNS_16__tree_node_baseISB_EEEE, symObjAddr: 0x17030, symBinAddr: 0x100019F24, symSize: 0x20 }
  - { offsetInCU: 0x4415A, offset: 0x4415A, size: 0x8, addend: 0x0, symName: __ZNSt3__121__tree_const_iteratorINS_12__value_typeINS_12basic_stringIcNS_11char_traitsIcEENS_9allocatorIcEEEE7MonomerEEPNS_11__tree_nodeIS9_PvEElEC2B8ue170006ENS_15__tree_iteratorIS9_SD_lEE, symObjAddr: 0x17050, symBinAddr: 0x100019F44, symSize: 0x20 }
  - { offsetInCU: 0x44193, offset: 0x44193, size: 0x8, addend: 0x0, symName: __ZNSt3__117__compressed_pairImNS_19__map_value_compareINS_12basic_stringIcNS_11char_traitsIcEENS_9allocatorIcEEEENS_12__value_typeIS7_7MonomerEENS_4lessIS7_EELb1EEEE6secondB8ue170006Ev, symObjAddr: 0x17070, symBinAddr: 0x100019F64, symSize: 0x24 }
  - { offsetInCU: 0x441B9, offset: 0x441B9, size: 0x8, addend: 0x0, symName: __ZNSt3__122__compressed_pair_elemINS_19__map_value_compareINS_12basic_stringIcNS_11char_traitsIcEENS_9allocatorIcEEEENS_12__value_typeIS7_7MonomerEENS_4lessIS7_EELb1EEELi1ELb1EE5__getB8ue170006Ev, symObjAddr: 0x17094, symBinAddr: 0x100019F88, symSize: 0x14 }
  - { offsetInCU: 0x441DF, offset: 0x441DF, size: 0x8, addend: 0x0, symName: __ZNKSt3__14lessINS_12basic_stringIcNS_11char_traitsIcEENS_9allocatorIcEEEEEclB8ue170006ERKS6_S9_, symObjAddr: 0x170A8, symBinAddr: 0x100019F9C, symSize: 0x34 }
  - { offsetInCU: 0x44223, offset: 0x44223, size: 0x8, addend: 0x0, symName: __ZNKSt3__112__value_typeINS_12basic_stringIcNS_11char_traitsIcEENS_9allocatorIcEEEE7MonomerE11__get_valueB8ue170006Ev, symObjAddr: 0x170DC, symBinAddr: 0x100019FD0, symSize: 0x14 }
  - { offsetInCU: 0x44249, offset: 0x44249, size: 0x8, addend: 0x0, symName: __ZNKSt3__112basic_stringIcNS_11char_traitsIcEENS_9allocatorIcEEE7compareB8ue170006ERKS5_, symObjAddr: 0x17128, symBinAddr: 0x10001A01C, symSize: 0x4C }
  - { offsetInCU: 0x44280, offset: 0x44280, size: 0x8, addend: 0x0, symName: __ZNKSt3__112basic_stringIcNS_11char_traitsIcEENS_9allocatorIcEEE7compareINS_17basic_string_viewIcS2_EELi0EEEiRKT_, symObjAddr: 0x17174, symBinAddr: 0x10001A068, symSize: 0x12C }
  - { offsetInCU: 0x44303, offset: 0x44303, size: 0x8, addend: 0x0, symName: __ZNKSt3__112basic_stringIcNS_11char_traitsIcEENS_9allocatorIcEEEcvNS_17basic_string_viewIcS2_EEB8ue170006Ev, symObjAddr: 0x172A0, symBinAddr: 0x10001A194, symSize: 0x50 }
  - { offsetInCU: 0x44329, offset: 0x44329, size: 0x8, addend: 0x0, symName: __ZNKSt3__112basic_stringIcNS_11char_traitsIcEENS_9allocatorIcEEE4sizeB8ue170006Ev, symObjAddr: 0x172F0, symBinAddr: 0x10001A1E4, symSize: 0x54 }
  - { offsetInCU: 0x4434F, offset: 0x4434F, size: 0x8, addend: 0x0, symName: __ZNKSt3__117basic_string_viewIcNS_11char_traitsIcEEE4sizeB8ue170006Ev, symObjAddr: 0x17344, symBinAddr: 0x10001A238, symSize: 0x18 }
  - { offsetInCU: 0x44375, offset: 0x44375, size: 0x8, addend: 0x0, symName: __ZNSt3__111char_traitsIcE7compareB8ue170006EPKcS3_m, symObjAddr: 0x1735C, symBinAddr: 0x10001A250, symSize: 0x34 }
  - { offsetInCU: 0x443B4, offset: 0x443B4, size: 0x8, addend: 0x0, symName: __ZNKSt3__112basic_stringIcNS_11char_traitsIcEENS_9allocatorIcEEE4dataB8ue170006Ev, symObjAddr: 0x17390, symBinAddr: 0x10001A284, symSize: 0x28 }
  - { offsetInCU: 0x443DA, offset: 0x443DA, size: 0x8, addend: 0x0, symName: __ZNKSt3__117basic_string_viewIcNS_11char_traitsIcEEE4dataB8ue170006Ev, symObjAddr: 0x173B8, symBinAddr: 0x10001A2AC, symSize: 0x18 }
  - { offsetInCU: 0x44400, offset: 0x44400, size: 0x8, addend: 0x0, symName: __ZNKSt3__112basic_stringIcNS_11char_traitsIcEENS_9allocatorIcEEE9__is_longB8ue170006Ev, symObjAddr: 0x173D0, symBinAddr: 0x10001A2C4, symSize: 0x38 }
  - { offsetInCU: 0x44426, offset: 0x44426, size: 0x8, addend: 0x0, symName: __ZNKSt3__112basic_stringIcNS_11char_traitsIcEENS_9allocatorIcEEE15__get_long_sizeB8ue170006Ev, symObjAddr: 0x17408, symBinAddr: 0x10001A2FC, symSize: 0x28 }
  - { offsetInCU: 0x4444C, offset: 0x4444C, size: 0x8, addend: 0x0, symName: __ZNKSt3__112basic_stringIcNS_11char_traitsIcEENS_9allocatorIcEEE16__get_short_sizeB8ue170006Ev, symObjAddr: 0x17430, symBinAddr: 0x10001A324, symSize: 0x34 }
  - { offsetInCU: 0x44472, offset: 0x44472, size: 0x8, addend: 0x0, symName: __ZNKSt3__117__compressed_pairINS_12basic_stringIcNS_11char_traitsIcEENS_9allocatorIcEEE5__repES5_E5firstB8ue170006Ev, symObjAddr: 0x17464, symBinAddr: 0x10001A358, symSize: 0x24 }
  - { offsetInCU: 0x44498, offset: 0x44498, size: 0x8, addend: 0x0, symName: __ZNKSt3__122__compressed_pair_elemINS_12basic_stringIcNS_11char_traitsIcEENS_9allocatorIcEEE5__repELi0ELb0EE5__getB8ue170006Ev, symObjAddr: 0x17488, symBinAddr: 0x10001A37C, symSize: 0x14 }
  - { offsetInCU: 0x444BE, offset: 0x444BE, size: 0x8, addend: 0x0, symName: __ZNKSt3__112basic_stringIcNS_11char_traitsIcEENS_9allocatorIcEEE13__get_pointerB8ue170006Ev, symObjAddr: 0x174B0, symBinAddr: 0x10001A3A4, symSize: 0x54 }
  - { offsetInCU: 0x444E4, offset: 0x444E4, size: 0x8, addend: 0x0, symName: __ZNKSt3__112basic_stringIcNS_11char_traitsIcEENS_9allocatorIcEEE18__get_long_pointerB8ue170006Ev, symObjAddr: 0x17504, symBinAddr: 0x10001A3F8, symSize: 0x28 }
  - { offsetInCU: 0x4450A, offset: 0x4450A, size: 0x8, addend: 0x0, symName: __ZNKSt3__112basic_stringIcNS_11char_traitsIcEENS_9allocatorIcEEE19__get_short_pointerB8ue170006Ev, symObjAddr: 0x1752C, symBinAddr: 0x10001A420, symSize: 0x28 }
  - { offsetInCU: 0x44530, offset: 0x44530, size: 0x8, addend: 0x0, symName: __ZNSt3__114pointer_traitsIPKcE10pointer_toB8ue170006ERS1_, symObjAddr: 0x17554, symBinAddr: 0x10001A448, symSize: 0x14 }
  - { offsetInCU: 0x44553, offset: 0x44553, size: 0x8, addend: 0x0, symName: __ZNSt3__117basic_string_viewIcNS_11char_traitsIcEEEC1B8ue170006EPKcm, symObjAddr: 0x17568, symBinAddr: 0x10001A45C, symSize: 0x3C }
  - { offsetInCU: 0x4459B, offset: 0x4459B, size: 0x8, addend: 0x0, symName: __ZNSt3__117basic_string_viewIcNS_11char_traitsIcEEEC2B8ue170006EPKcm, symObjAddr: 0x175A4, symBinAddr: 0x10001A498, symSize: 0x2C }
  - { offsetInCU: 0x445E3, offset: 0x445E3, size: 0x8, addend: 0x0, symName: __ZNKSt3__116__tree_node_baseIPvE15__parent_unsafeB8ue170006Ev, symObjAddr: 0x176E0, symBinAddr: 0x10001A5D4, symSize: 0x18 }
  - { offsetInCU: 0x44609, offset: 0x44609, size: 0x8, addend: 0x0, symName: __ZNKSt3__16__treeINS_12__value_typeINS_12basic_stringIcNS_11char_traitsIcEENS_9allocatorIcEEEE7MonomerEENS_19__map_value_compareIS7_S9_NS_4lessIS7_EELb1EEENS5_IS9_EEE6__rootB8ue170006Ev, symObjAddr: 0x176F8, symBinAddr: 0x10001A5EC, symSize: 0x28 }
  - { offsetInCU: 0x4462F, offset: 0x4462F, size: 0x8, addend: 0x0, symName: __ZNKSt3__16__treeINS_12__value_typeINS_12basic_stringIcNS_11char_traitsIcEENS_9allocatorIcEEEE7MonomerEENS_19__map_value_compareIS7_S9_NS_4lessIS7_EELb1EEENS5_IS9_EEE10__root_ptrB8ue170006Ev, symObjAddr: 0x17720, symBinAddr: 0x10001A614, symSize: 0x24 }
  - { offsetInCU: 0x44655, offset: 0x44655, size: 0x8, addend: 0x0, symName: __ZNKSt3__16__treeINS_12__value_typeINS_12basic_stringIcNS_11char_traitsIcEENS_9allocatorIcEEEE7MonomerEENS_19__map_value_compareIS7_S9_NS_4lessIS7_EELb1EEENS5_IS9_EEE10__end_nodeB8ue170006Ev, symObjAddr: 0x17744, symBinAddr: 0x10001A638, symSize: 0x2C }
  - { offsetInCU: 0x4467B, offset: 0x4467B, size: 0x8, addend: 0x0, symName: __ZNKSt3__117__compressed_pairINS_15__tree_end_nodeIPNS_16__tree_node_baseIPvEEEENS_9allocatorINS_11__tree_nodeINS_12__value_typeINS_12basic_stringIcNS_11char_traitsIcEENS7_IcEEEE7MonomerEES3_EEEEE5firstB8ue170006Ev, symObjAddr: 0x17770, symBinAddr: 0x10001A664, symSize: 0x24 }
  - { offsetInCU: 0x446A1, offset: 0x446A1, size: 0x8, addend: 0x0, symName: __ZNKSt3__122__compressed_pair_elemINS_15__tree_end_nodeIPNS_16__tree_node_baseIPvEEEELi0ELb0EE5__getB8ue170006Ev, symObjAddr: 0x17794, symBinAddr: 0x10001A688, symSize: 0x14 }
  - { offsetInCU: 0x446C7, offset: 0x446C7, size: 0x8, addend: 0x0, symName: __ZNSt3__121__tree_const_iteratorINS_12__value_typeINS_12basic_stringIcNS_11char_traitsIcEENS_9allocatorIcEEEE7MonomerEEPNS_11__tree_nodeIS9_PvEElEppB8ue170006Ev, symObjAddr: 0x17898, symBinAddr: 0x10001A78C, symSize: 0x38 }
  - { offsetInCU: 0x446ED, offset: 0x446ED, size: 0x8, addend: 0x0, symName: __ZNSt3__16__treeINS_12__value_typeINS_12basic_stringIcNS_11char_traitsIcEENS_9allocatorIcEEEE7MonomerEENS_19__map_value_compareIS7_S9_NS_4lessIS7_EELb1EEENS5_IS9_EEE12__node_allocB8ue170006Ev, symObjAddr: 0x17990, symBinAddr: 0x10001A884, symSize: 0x28 }
  - { offsetInCU: 0x44713, offset: 0x44713, size: 0x8, addend: 0x0, symName: __ZNSt3__116allocator_traitsINS_9allocatorINS_11__tree_nodeINS_12__value_typeINS_12basic_stringIcNS_11char_traitsIcEENS1_IcEEEE7MonomerEEPvEEEEE8allocateB8ue170006ERSD_m, symObjAddr: 0x179B8, symBinAddr: 0x10001A8AC, symSize: 0x2C }
  - { offsetInCU: 0x44746, offset: 0x44746, size: 0x8, addend: 0x0, symName: __ZNSt3__122__tree_node_destructorINS_9allocatorINS_11__tree_nodeINS_12__value_typeINS_12basic_stringIcNS_11char_traitsIcEENS1_IcEEEE7MonomerEEPvEEEEEC1B8ue170006ERSD_b, symObjAddr: 0x179E4, symBinAddr: 0x10001A8D8, symSize: 0x48 }
  - { offsetInCU: 0x44794, offset: 0x44794, size: 0x8, addend: 0x0, symName: __ZNSt3__110unique_ptrINS_11__tree_nodeINS_12__value_typeINS_12basic_stringIcNS_11char_traitsIcEENS_9allocatorIcEEEE7MonomerEEPvEENS_22__tree_node_destructorINS6_ISC_EEEEEC1B8ue170006ILb1EvEEPSC_NS_16__dependent_typeINS_27__unique_ptr_deleter_sfinaeISF_EEXT_EE20__good_rval_ref_typeE, symObjAddr: 0x17A2C, symBinAddr: 0x10001A920, symSize: 0x3C }
  - { offsetInCU: 0x447E5, offset: 0x447E5, size: 0x8, addend: 0x0, symName: __ZNSt3__116allocator_traitsINS_9allocatorINS_11__tree_nodeINS_12__value_typeINS_12basic_stringIcNS_11char_traitsIcEENS1_IcEEEE7MonomerEEPvEEEEE9constructB8ue170006INS_4pairIKS8_S9_EEJRKSI_EvEEvRSD_PT_DpOT0_, symObjAddr: 0x17A68, symBinAddr: 0x10001A95C, symSize: 0x34 }
  - { offsetInCU: 0x4483C, offset: 0x4483C, size: 0x8, addend: 0x0, symName: __ZNSt3__122__tree_key_value_typesINS_12__value_typeINS_12basic_stringIcNS_11char_traitsIcEENS_9allocatorIcEEEE7MonomerEEE9__get_ptrB8ue170006ERS9_, symObjAddr: 0x17A9C, symBinAddr: 0x10001A990, symSize: 0x24 }
  - { offsetInCU: 0x44860, offset: 0x44860, size: 0x8, addend: 0x0, symName: __ZNKSt3__110unique_ptrINS_11__tree_nodeINS_12__value_typeINS_12basic_stringIcNS_11char_traitsIcEENS_9allocatorIcEEEE7MonomerEEPvEENS_22__tree_node_destructorINS6_ISC_EEEEEptB8ue170006Ev, symObjAddr: 0x17AC0, symBinAddr: 0x10001A9B4, symSize: 0x28 }
  - { offsetInCU: 0x44886, offset: 0x44886, size: 0x8, addend: 0x0, symName: __ZNSt3__110unique_ptrINS_11__tree_nodeINS_12__value_typeINS_12basic_stringIcNS_11char_traitsIcEENS_9allocatorIcEEEE7MonomerEEPvEENS_22__tree_node_destructorINS6_ISC_EEEEE11get_deleterB8ue170006Ev, symObjAddr: 0x17AE8, symBinAddr: 0x10001A9DC, symSize: 0x24 }
  - { offsetInCU: 0x448AC, offset: 0x448AC, size: 0x8, addend: 0x0, symName: __ZNSt3__117__compressed_pairINS_15__tree_end_nodeIPNS_16__tree_node_baseIPvEEEENS_9allocatorINS_11__tree_nodeINS_12__value_typeINS_12basic_stringIcNS_11char_traitsIcEENS7_IcEEEE7MonomerEES3_EEEEE6secondB8ue170006Ev, symObjAddr: 0x17B0C, symBinAddr: 0x10001AA00, symSize: 0x24 }
  - { offsetInCU: 0x448D2, offset: 0x448D2, size: 0x8, addend: 0x0, symName: __ZNSt3__122__compressed_pair_elemINS_9allocatorINS_11__tree_nodeINS_12__value_typeINS_12basic_stringIcNS_11char_traitsIcEENS1_IcEEEE7MonomerEEPvEEEELi1ELb1EE5__getB8ue170006Ev, symObjAddr: 0x17B30, symBinAddr: 0x10001AA24, symSize: 0x14 }
  - { offsetInCU: 0x448F8, offset: 0x448F8, size: 0x8, addend: 0x0, symName: __ZNSt3__19allocatorINS_11__tree_nodeINS_12__value_typeINS_12basic_stringIcNS_11char_traitsIcEENS0_IcEEEE7MonomerEEPvEEE8allocateB8ue170006Em, symObjAddr: 0x17B44, symBinAddr: 0x10001AA38, symSize: 0x5C }
  - { offsetInCU: 0x4492C, offset: 0x4492C, size: 0x8, addend: 0x0, symName: __ZNSt3__116allocator_traitsINS_9allocatorINS_11__tree_nodeINS_12__value_typeINS_12basic_stringIcNS_11char_traitsIcEENS1_IcEEEE7MonomerEEPvEEEEE8max_sizeB8ue170006ISD_vEEmRKSD_, symObjAddr: 0x17BA0, symBinAddr: 0x10001AA94, symSize: 0x24 }
  - { offsetInCU: 0x4495A, offset: 0x4495A, size: 0x8, addend: 0x0, symName: __ZNKSt3__19allocatorINS_11__tree_nodeINS_12__value_typeINS_12basic_stringIcNS_11char_traitsIcEENS0_IcEEEE7MonomerEEPvEEE8max_sizeB8ue170006Ev, symObjAddr: 0x17BC4, symBinAddr: 0x10001AAB8, symSize: 0x18 }
  - { offsetInCU: 0x44980, offset: 0x44980, size: 0x8, addend: 0x0, symName: __ZNSt3__122__tree_node_destructorINS_9allocatorINS_11__tree_nodeINS_12__value_typeINS_12basic_stringIcNS_11char_traitsIcEENS1_IcEEEE7MonomerEEPvEEEEEC2B8ue170006ERSD_b, symObjAddr: 0x17BDC, symBinAddr: 0x10001AAD0, symSize: 0x38 }
  - { offsetInCU: 0x449C8, offset: 0x449C8, size: 0x8, addend: 0x0, symName: __ZNSt3__110unique_ptrINS_11__tree_nodeINS_12__value_typeINS_12basic_stringIcNS_11char_traitsIcEENS_9allocatorIcEEEE7MonomerEEPvEENS_22__tree_node_destructorINS6_ISC_EEEEEC2B8ue170006ILb1EvEEPSC_NS_16__dependent_typeINS_27__unique_ptr_deleter_sfinaeISF_EEXT_EE20__good_rval_ref_typeE, symObjAddr: 0x17C14, symBinAddr: 0x10001AB08, symSize: 0x48 }
  - { offsetInCU: 0x44A19, offset: 0x44A19, size: 0x8, addend: 0x0, symName: __ZNSt3__117__compressed_pairIPNS_11__tree_nodeINS_12__value_typeINS_12basic_stringIcNS_11char_traitsIcEENS_9allocatorIcEEEE7MonomerEEPvEENS_22__tree_node_destructorINS6_ISC_EEEEEC1B8ue170006IRSD_SG_EEOT_OT0_, symObjAddr: 0x17C5C, symBinAddr: 0x10001AB50, symSize: 0x3C }
  - { offsetInCU: 0x44A71, offset: 0x44A71, size: 0x8, addend: 0x0, symName: __ZNSt3__117__compressed_pairIPNS_11__tree_nodeINS_12__value_typeINS_12basic_stringIcNS_11char_traitsIcEENS_9allocatorIcEEEE7MonomerEEPvEENS_22__tree_node_destructorINS6_ISC_EEEEEC2B8ue170006IRSD_SG_EEOT_OT0_, symObjAddr: 0x17C98, symBinAddr: 0x10001AB8C, symSize: 0x48 }
  - { offsetInCU: 0x44AC9, offset: 0x44AC9, size: 0x8, addend: 0x0, symName: __ZNSt3__122__compressed_pair_elemIPNS_11__tree_nodeINS_12__value_typeINS_12basic_stringIcNS_11char_traitsIcEENS_9allocatorIcEEEE7MonomerEEPvEELi0ELb0EEC2B8ue170006IRSD_vEEOT_, symObjAddr: 0x17CE0, symBinAddr: 0x10001ABD4, symSize: 0x24 }
  - { offsetInCU: 0x44B0B, offset: 0x44B0B, size: 0x8, addend: 0x0, symName: __ZNSt3__122__compressed_pair_elemINS_22__tree_node_destructorINS_9allocatorINS_11__tree_nodeINS_12__value_typeINS_12basic_stringIcNS_11char_traitsIcEENS2_IcEEEE7MonomerEEPvEEEEEELi1ELb0EEC2B8ue170006ISF_vEEOT_, symObjAddr: 0x17D04, symBinAddr: 0x10001ABF8, symSize: 0x24 }
  - { offsetInCU: 0x44B4D, offset: 0x44B4D, size: 0x8, addend: 0x0, symName: __ZNSt3__19allocatorINS_11__tree_nodeINS_12__value_typeINS_12basic_stringIcNS_11char_traitsIcEENS0_IcEEEE7MonomerEEPvEEE9constructB8ue170006INS_4pairIKS7_S8_EEJRKSG_EEEvPT_DpOT0_, symObjAddr: 0x17D28, symBinAddr: 0x10001AC1C, symSize: 0x30 }
  - { offsetInCU: 0x44BA3, offset: 0x44BA3, size: 0x8, addend: 0x0, symName: __ZNSt3__14pairIKNS_12basic_stringIcNS_11char_traitsIcEENS_9allocatorIcEEEE7MonomerEC1B8ue170006ERKS9_, symObjAddr: 0x17D58, symBinAddr: 0x10001AC4C, symSize: 0x34 }
  - { offsetInCU: 0x44BD7, offset: 0x44BD7, size: 0x8, addend: 0x0, symName: __ZNSt3__14pairIKNS_12basic_stringIcNS_11char_traitsIcEENS_9allocatorIcEEEE7MonomerEC2B8ue170006ERKS9_, symObjAddr: 0x17D8C, symBinAddr: 0x10001AC80, symSize: 0x70 }
  - { offsetInCU: 0x44C11, offset: 0x44C11, size: 0x8, addend: 0x0, symName: __ZN7MonomerC1ERKS_, symObjAddr: 0x17DFC, symBinAddr: 0x10001ACF0, symSize: 0x34 }
  - { offsetInCU: 0x44C46, offset: 0x44C46, size: 0x8, addend: 0x0, symName: __ZN7MonomerC2ERKS_, symObjAddr: 0x17E30, symBinAddr: 0x10001AD24, symSize: 0x84 }
  - { offsetInCU: 0x44C7B, offset: 0x44C7B, size: 0x8, addend: 0x0, symName: __ZNSt3__112__value_typeINS_12basic_stringIcNS_11char_traitsIcEENS_9allocatorIcEEEE7MonomerE11__get_valueB8ue170006Ev, symObjAddr: 0x17EB4, symBinAddr: 0x10001ADA8, symSize: 0x14 }
  - { offsetInCU: 0x44CA1, offset: 0x44CA1, size: 0x8, addend: 0x0, symName: __ZNKSt3__117__compressed_pairIPNS_11__tree_nodeINS_12__value_typeINS_12basic_stringIcNS_11char_traitsIcEENS_9allocatorIcEEEE7MonomerEEPvEENS_22__tree_node_destructorINS6_ISC_EEEEE5firstB8ue170006Ev, symObjAddr: 0x17EC8, symBinAddr: 0x10001ADBC, symSize: 0x24 }
  - { offsetInCU: 0x44CC7, offset: 0x44CC7, size: 0x8, addend: 0x0, symName: __ZNKSt3__122__compressed_pair_elemIPNS_11__tree_nodeINS_12__value_typeINS_12basic_stringIcNS_11char_traitsIcEENS_9allocatorIcEEEE7MonomerEEPvEELi0ELb0EE5__getB8ue170006Ev, symObjAddr: 0x17EEC, symBinAddr: 0x10001ADE0, symSize: 0x14 }
  - { offsetInCU: 0x44CED, offset: 0x44CED, size: 0x8, addend: 0x0, symName: __ZNSt3__117__compressed_pairIPNS_11__tree_nodeINS_12__value_typeINS_12basic_stringIcNS_11char_traitsIcEENS_9allocatorIcEEEE7MonomerEEPvEENS_22__tree_node_destructorINS6_ISC_EEEEE6secondB8ue170006Ev, symObjAddr: 0x17F00, symBinAddr: 0x10001ADF4, symSize: 0x28 }
  - { offsetInCU: 0x44D13, offset: 0x44D13, size: 0x8, addend: 0x0, symName: __ZNSt3__122__compressed_pair_elemINS_22__tree_node_destructorINS_9allocatorINS_11__tree_nodeINS_12__value_typeINS_12basic_stringIcNS_11char_traitsIcEENS2_IcEEEE7MonomerEEPvEEEEEELi1ELb0EE5__getB8ue170006Ev, symObjAddr: 0x17F28, symBinAddr: 0x10001AE1C, symSize: 0x14 }
  - { offsetInCU: 0x44D39, offset: 0x44D39, size: 0x8, addend: 0x0, symName: __ZNSt3__16__treeINS_12__value_typeINS_12basic_stringIcNS_11char_traitsIcEENS_9allocatorIcEEEE7MonomerEENS_19__map_value_compareIS7_S9_NS_4lessIS7_EELb1EEENS5_IS9_EEE4sizeB8ue170006Ev, symObjAddr: 0x181B8, symBinAddr: 0x10001B0AC, symSize: 0x28 }
  - { offsetInCU: 0x44D5F, offset: 0x44D5F, size: 0x8, addend: 0x0, symName: __ZNSt3__116__tree_node_baseIPvE12__set_parentB8ue170006EPS2_, symObjAddr: 0x18384, symBinAddr: 0x10001B278, symSize: 0x20 }
  - { offsetInCU: 0x44D94, offset: 0x44D94, size: 0x8, addend: 0x0, symName: __ZNSt3__117__compressed_pairImNS_19__map_value_compareINS_12basic_stringIcNS_11char_traitsIcEENS_9allocatorIcEEEENS_12__value_typeIS7_7MonomerEENS_4lessIS7_EELb1EEEE5firstB8ue170006Ev, symObjAddr: 0x183A4, symBinAddr: 0x10001B298, symSize: 0x24 }
  - { offsetInCU: 0x44DBA, offset: 0x44DBA, size: 0x8, addend: 0x0, symName: __ZNSt3__122__compressed_pair_elemImLi0ELb0EE5__getB8ue170006Ev, symObjAddr: 0x183C8, symBinAddr: 0x10001B2BC, symSize: 0x14 }
  - { offsetInCU: 0x44DE0, offset: 0x44DE0, size: 0x8, addend: 0x0, symName: __ZNSt3__117__compressed_pairIPNS_11__tree_nodeINS_12__value_typeINS_12basic_stringIcNS_11char_traitsIcEENS_9allocatorIcEEEE7MonomerEEPvEENS_22__tree_node_destructorINS6_ISC_EEEEE5firstB8ue170006Ev, symObjAddr: 0x183DC, symBinAddr: 0x10001B2D0, symSize: 0x24 }
  - { offsetInCU: 0x44E06, offset: 0x44E06, size: 0x8, addend: 0x0, symName: __ZNSt3__122__compressed_pair_elemIPNS_11__tree_nodeINS_12__value_typeINS_12basic_stringIcNS_11char_traitsIcEENS_9allocatorIcEEEE7MonomerEEPvEELi0ELb0EE5__getB8ue170006Ev, symObjAddr: 0x18400, symBinAddr: 0x10001B2F4, symSize: 0x14 }
  - { offsetInCU: 0x44E2C, offset: 0x44E2C, size: 0x8, addend: 0x0, symName: __ZNSt3__110unique_ptrINS_11__tree_nodeINS_12__value_typeINS_12basic_stringIcNS_11char_traitsIcEENS_9allocatorIcEEEE7MonomerEEPvEENS_22__tree_node_destructorINS6_ISC_EEEEED2B8ue170006Ev, symObjAddr: 0x18414, symBinAddr: 0x10001B308, symSize: 0x30 }
  - { offsetInCU: 0x44E56, offset: 0x44E56, size: 0x8, addend: 0x0, symName: __ZNSt3__110unique_ptrINS_11__tree_nodeINS_12__value_typeINS_12basic_stringIcNS_11char_traitsIcEENS_9allocatorIcEEEE7MonomerEEPvEENS_22__tree_node_destructorINS6_ISC_EEEEE5resetB8ue170006EPSC_, symObjAddr: 0x18444, symBinAddr: 0x10001B338, symSize: 0x78 }
  - { offsetInCU: 0x44E9A, offset: 0x44E9A, size: 0x8, addend: 0x0, symName: __ZNSt3__122__tree_node_destructorINS_9allocatorINS_11__tree_nodeINS_12__value_typeINS_12basic_stringIcNS_11char_traitsIcEENS1_IcEEEE7MonomerEEPvEEEEEclB8ue170006EPSC_, symObjAddr: 0x184BC, symBinAddr: 0x10001B3B0, symSize: 0x98 }
  - { offsetInCU: 0x44ECF, offset: 0x44ECF, size: 0x8, addend: 0x0, symName: __ZNSt3__116allocator_traitsINS_9allocatorINS_11__tree_nodeINS_12__value_typeINS_12basic_stringIcNS_11char_traitsIcEENS1_IcEEEE7MonomerEEPvEEEEE7destroyB8ue170006INS_4pairIKS8_S9_EEvvEEvRSD_PT_, symObjAddr: 0x18554, symBinAddr: 0x10001B448, symSize: 0x28 }
  - { offsetInCU: 0x44F09, offset: 0x44F09, size: 0x8, addend: 0x0, symName: __ZNSt3__116allocator_traitsINS_9allocatorINS_11__tree_nodeINS_12__value_typeINS_12basic_stringIcNS_11char_traitsIcEENS1_IcEEEE7MonomerEEPvEEEEE10deallocateB8ue170006ERSD_PSC_m, symObjAddr: 0x1857C, symBinAddr: 0x10001B470, symSize: 0x34 }
  - { offsetInCU: 0x44F4B, offset: 0x44F4B, size: 0x8, addend: 0x0, symName: __ZNSt3__14pairIKNS_12basic_stringIcNS_11char_traitsIcEENS_9allocatorIcEEEE7MonomerED1Ev, symObjAddr: 0x185B0, symBinAddr: 0x10001B4A4, symSize: 0x2C }
  - { offsetInCU: 0x44F77, offset: 0x44F77, size: 0x8, addend: 0x0, symName: __ZNSt3__14pairIKNS_12basic_stringIcNS_11char_traitsIcEENS_9allocatorIcEEEE7MonomerED2Ev, symObjAddr: 0x185DC, symBinAddr: 0x10001B4D0, symSize: 0x38 }
  - { offsetInCU: 0x44FA3, offset: 0x44FA3, size: 0x8, addend: 0x0, symName: __ZN7MonomerD1Ev, symObjAddr: 0x18614, symBinAddr: 0x10001B508, symSize: 0x2C }
  - { offsetInCU: 0x44FCF, offset: 0x44FCF, size: 0x8, addend: 0x0, symName: __ZN7MonomerD2Ev, symObjAddr: 0x18640, symBinAddr: 0x10001B534, symSize: 0x38 }
  - { offsetInCU: 0x44FFB, offset: 0x44FFB, size: 0x8, addend: 0x0, symName: __ZNSt3__19allocatorINS_11__tree_nodeINS_12__value_typeINS_12basic_stringIcNS_11char_traitsIcEENS0_IcEEEE7MonomerEEPvEEE10deallocateB8ue170006EPSB_m, symObjAddr: 0x18678, symBinAddr: 0x10001B56C, symSize: 0x44 }
  - { offsetInCU: 0x4503D, offset: 0x4503D, size: 0x8, addend: 0x0, symName: __ZNSt3__115__tree_iteratorINS_12__value_typeINS_12basic_stringIcNS_11char_traitsIcEENS_9allocatorIcEEEE7MonomerEEPNS_11__tree_nodeIS9_PvEElEC2B8ue170006ESD_, symObjAddr: 0x186BC, symBinAddr: 0x10001B5B0, symSize: 0x20 }
  - { offsetInCU: 0x45076, offset: 0x45076, size: 0x8, addend: 0x0, symName: __ZNSt3__14pairINS_15__tree_iteratorINS_12__value_typeINS_12basic_stringIcNS_11char_traitsIcEENS_9allocatorIcEEEE7MonomerEEPNS_11__tree_nodeISA_PvEElEEbEC2B8ue170006ISF_RbLSC_0EEEOT_OT0_, symObjAddr: 0x186DC, symBinAddr: 0x10001B5D0, symSize: 0x38 }
  - { offsetInCU: 0x450D4, offset: 0x450D4, size: 0x8, addend: 0x0, symName: __ZNSt3__114__map_iteratorINS_15__tree_iteratorINS_12__value_typeINS_12basic_stringIcNS_11char_traitsIcEENS_9allocatorIcEEEE7MonomerEEPNS_11__tree_nodeISA_PvEElEEEC2B8ue170006ESF_, symObjAddr: 0x18714, symBinAddr: 0x10001B608, symSize: 0x20 }
  - { offsetInCU: 0x4510D, offset: 0x4510D, size: 0x8, addend: 0x0, symName: __ZNSt3__120__map_const_iteratorINS_21__tree_const_iteratorINS_12__value_typeINS_12basic_stringIcNS_11char_traitsIcEENS_9allocatorIcEEEE7MonomerEEPNS_11__tree_nodeISA_PvEElEEEC2B8ue170006ESF_, symObjAddr: 0x18734, symBinAddr: 0x10001B628, symSize: 0x20 }
  - { offsetInCU: 0x45146, offset: 0x45146, size: 0x8, addend: 0x0, symName: __ZNKSt3__121__tree_const_iteratorINS_12__value_typeINS_12basic_stringIcNS_11char_traitsIcEENS_9allocatorIcEEEE7MonomerEEPNS_11__tree_nodeIS9_PvEElEptB8ue170006Ev, symObjAddr: 0x18754, symBinAddr: 0x10001B648, symSize: 0x2C }
  - { offsetInCU: 0x4516C, offset: 0x4516C, size: 0x8, addend: 0x0, symName: __ZNSt3__114pointer_traitsIPKNS_12__value_typeINS_12basic_stringIcNS_11char_traitsIcEENS_9allocatorIcEEEE7MonomerEEE10pointer_toB8ue170006ERSA_, symObjAddr: 0x18780, symBinAddr: 0x10001B674, symSize: 0x14 }
  - { offsetInCU: 0x4518F, offset: 0x4518F, size: 0x8, addend: 0x0, symName: __ZNKSt3__16__treeINS_12__value_typeINS_12basic_stringIcNS_11char_traitsIcEENS_9allocatorIcEEEE7MonomerEENS_19__map_value_compareIS7_S9_NS_4lessIS7_EELb1EEENS5_IS9_EEE5beginB8ue170006Ev, symObjAddr: 0x18794, symBinAddr: 0x10001B688, symSize: 0x34 }
  - { offsetInCU: 0x451B5, offset: 0x451B5, size: 0x8, addend: 0x0, symName: __ZNKSt3__16__treeINS_12__value_typeINS_12basic_stringIcNS_11char_traitsIcEENS_9allocatorIcEEEE7MonomerEENS_19__map_value_compareIS7_S9_NS_4lessIS7_EELb1EEENS5_IS9_EEE12__begin_nodeB8ue170006Ev, symObjAddr: 0x187C8, symBinAddr: 0x10001B6BC, symSize: 0x14 }
  - { offsetInCU: 0x451DB, offset: 0x451DB, size: 0x8, addend: 0x0, symName: __ZNSt3__121__tree_const_iteratorINS_12__value_typeINS_12basic_stringIcNS_11char_traitsIcEENS_9allocatorIcEEEE7MonomerEEPNS_11__tree_nodeIS9_PvEElEC1B8ue170006EPNS_15__tree_end_nodeIPNS_16__tree_node_baseISB_EEEE, symObjAddr: 0x187DC, symBinAddr: 0x10001B6D0, symSize: 0x34 }
  - { offsetInCU: 0x45214, offset: 0x45214, size: 0x8, addend: 0x0, symName: __ZNSt3__121__tree_const_iteratorINS_12__value_typeINS_12basic_stringIcNS_11char_traitsIcEENS_9allocatorIcEEEE7MonomerEEPNS_11__tree_nodeIS9_PvEElEC2B8ue170006EPNS_15__tree_end_nodeIPNS_16__tree_node_baseISB_EEEE, symObjAddr: 0x18810, symBinAddr: 0x10001B704, symSize: 0x20 }
  - { offsetInCU: 0x4524D, offset: 0x4524D, size: 0x8, addend: 0x0, symName: __ZNKSt3__16__treeINS_12__value_typeINS_12basic_stringIcNS_11char_traitsIcEENS_9allocatorIcEEEE7MonomerEENS_19__map_value_compareIS7_S9_NS_4lessIS7_EELb1EEENS5_IS9_EEE3endB8ue170006Ev, symObjAddr: 0x18830, symBinAddr: 0x10001B724, symSize: 0x34 }
  - { offsetInCU: 0x45273, offset: 0x45273, size: 0x8, addend: 0x0, symName: __ZNSt3__16__treeINS_12__value_typeINS_12basic_stringIcNS_11char_traitsIcEENS_9allocatorIcEEEE7MonomerEENS_19__map_value_compareIS7_S9_NS_4lessIS7_EELb1EEENS5_IS9_EEED2Ev, symObjAddr: 0x18864, symBinAddr: 0x10001B758, symSize: 0x38 }
  - { offsetInCU: 0x4529F, offset: 0x4529F, size: 0x8, addend: 0x0, symName: __ZNSt3__16__treeINS_12__value_typeINS_12basic_stringIcNS_11char_traitsIcEENS_9allocatorIcEEEE7MonomerEENS_19__map_value_compareIS7_S9_NS_4lessIS7_EELb1EEENS5_IS9_EEE7destroyEPNS_11__tree_nodeIS9_PvEE, symObjAddr: 0x1889C, symBinAddr: 0x10001B790, symSize: 0xA8 }
  - { offsetInCU: 0x452EB, offset: 0x452EB, size: 0x8, addend: 0x0, symName: __ZNSt3__13mapINS_12basic_stringIcNS_11char_traitsIcEENS_9allocatorIcEEEENS_6vectorIS6_NS4_IS6_EEEENS_4lessIS6_EENS4_INS_4pairIKS6_S9_EEEEEC2B8ue170006ERKSG_, symObjAddr: 0x18944, symBinAddr: 0x10001B838, symSize: 0x88 }
  - { offsetInCU: 0x45324, offset: 0x45324, size: 0x8, addend: 0x0, symName: __ZNSt3__16__treeINS_12__value_typeINS_12basic_stringIcNS_11char_traitsIcEENS_9allocatorIcEEEENS_6vectorIS7_NS5_IS7_EEEEEENS_19__map_value_compareIS7_SB_NS_4lessIS7_EELb1EEENS5_ISB_EEEC1ERKSH_, symObjAddr: 0x189CC, symBinAddr: 0x10001B8C0, symSize: 0x34 }
  - { offsetInCU: 0x4535F, offset: 0x4535F, size: 0x8, addend: 0x0, symName: __ZNSt3__13mapINS_12basic_stringIcNS_11char_traitsIcEENS_9allocatorIcEEEENS_6vectorIS6_NS4_IS6_EEEENS_4lessIS6_EENS4_INS_4pairIKS6_S9_EEEEE6insertB8ue170006INS_20__map_const_iteratorINS_21__tree_const_iteratorINS_12__value_typeIS6_S9_EEPNS_11__tree_nodeISL_PvEElEEEEEEvT_SS_, symObjAddr: 0x18A00, symBinAddr: 0x10001B8F4, symSize: 0x8C }
  - { offsetInCU: 0x453CA, offset: 0x453CA, size: 0x8, addend: 0x0, symName: __ZNKSt3__13mapINS_12basic_stringIcNS_11char_traitsIcEENS_9allocatorIcEEEENS_6vectorIS6_NS4_IS6_EEEENS_4lessIS6_EENS4_INS_4pairIKS6_S9_EEEEE5beginB8ue170006Ev, symObjAddr: 0x18A8C, symBinAddr: 0x10001B980, symSize: 0x38 }
  - { offsetInCU: 0x453F0, offset: 0x453F0, size: 0x8, addend: 0x0, symName: __ZNKSt3__13mapINS_12basic_stringIcNS_11char_traitsIcEENS_9allocatorIcEEEENS_6vectorIS6_NS4_IS6_EEEENS_4lessIS6_EENS4_INS_4pairIKS6_S9_EEEEE3endB8ue170006Ev, symObjAddr: 0x18AC4, symBinAddr: 0x10001B9B8, symSize: 0x38 }
  - { offsetInCU: 0x45416, offset: 0x45416, size: 0x8, addend: 0x0, symName: __ZNSt3__16__treeINS_12__value_typeINS_12basic_stringIcNS_11char_traitsIcEENS_9allocatorIcEEEENS_6vectorIS7_NS5_IS7_EEEEEENS_19__map_value_compareIS7_SB_NS_4lessIS7_EELb1EEENS5_ISB_EEED1Ev, symObjAddr: 0x18AFC, symBinAddr: 0x10001B9F0, symSize: 0x2C }
  - { offsetInCU: 0x45442, offset: 0x45442, size: 0x8, addend: 0x0, symName: __ZNSt3__16__treeINS_12__value_typeINS_12basic_stringIcNS_11char_traitsIcEENS_9allocatorIcEEEENS_6vectorIS7_NS5_IS7_EEEEEENS_19__map_value_compareIS7_SB_NS_4lessIS7_EELb1EEENS5_ISB_EEEC2ERKSH_, symObjAddr: 0x18B28, symBinAddr: 0x10001BA1C, symSize: 0x9C }
  - { offsetInCU: 0x45489, offset: 0x45489, size: 0x8, addend: 0x0, symName: __ZNSt3__116allocator_traitsINS_9allocatorINS_11__tree_nodeINS_12__value_typeINS_12basic_stringIcNS_11char_traitsIcEENS1_IcEEEENS_6vectorIS8_NS1_IS8_EEEEEEPvEEEEE37select_on_container_copy_constructionB8ue170006ISF_vvEESF_RKSF_, symObjAddr: 0x18BC4, symBinAddr: 0x10001BAB8, symSize: 0x10 }
  - { offsetInCU: 0x454B8, offset: 0x454B8, size: 0x8, addend: 0x0, symName: __ZNKSt3__16__treeINS_12__value_typeINS_12basic_stringIcNS_11char_traitsIcEENS_9allocatorIcEEEENS_6vectorIS7_NS5_IS7_EEEEEENS_19__map_value_compareIS7_SB_NS_4lessIS7_EELb1EEENS5_ISB_EEE12__node_allocB8ue170006Ev, symObjAddr: 0x18BD4, symBinAddr: 0x10001BAC8, symSize: 0x28 }
  - { offsetInCU: 0x454E4, offset: 0x454E4, size: 0x8, addend: 0x0, symName: __ZNSt3__117__compressed_pairINS_15__tree_end_nodeIPNS_16__tree_node_baseIPvEEEENS_9allocatorINS_11__tree_nodeINS_12__value_typeINS_12basic_stringIcNS_11char_traitsIcEENS7_IcEEEENS_6vectorISE_NS7_ISE_EEEEEES3_EEEEEC1B8ue170006INS_18__default_init_tagESK_EEOT_OT0_, symObjAddr: 0x18BFC, symBinAddr: 0x10001BAF0, symSize: 0x3C }
  - { offsetInCU: 0x4553C, offset: 0x4553C, size: 0x8, addend: 0x0, symName: __ZNKSt3__16__treeINS_12__value_typeINS_12basic_stringIcNS_11char_traitsIcEENS_9allocatorIcEEEENS_6vectorIS7_NS5_IS7_EEEEEENS_19__map_value_compareIS7_SB_NS_4lessIS7_EELb1EEENS5_ISB_EEE10value_compB8ue170006Ev, symObjAddr: 0x18C38, symBinAddr: 0x10001BB2C, symSize: 0x28 }
  - { offsetInCU: 0x45562, offset: 0x45562, size: 0x8, addend: 0x0, symName: __ZNSt3__117__compressed_pairImNS_19__map_value_compareINS_12basic_stringIcNS_11char_traitsIcEENS_9allocatorIcEEEENS_12__value_typeIS7_NS_6vectorIS7_NS5_IS7_EEEEEENS_4lessIS7_EELb1EEEEC1B8ue170006IiRKSF_EEOT_OT0_, symObjAddr: 0x18C60, symBinAddr: 0x10001BB54, symSize: 0x3C }
  - { offsetInCU: 0x455BA, offset: 0x455BA, size: 0x8, addend: 0x0, symName: __ZNSt3__16__treeINS_12__value_typeINS_12basic_stringIcNS_11char_traitsIcEENS_9allocatorIcEEEENS_6vectorIS7_NS5_IS7_EEEEEENS_19__map_value_compareIS7_SB_NS_4lessIS7_EELb1EEENS5_ISB_EEE10__end_nodeB8ue170006Ev, symObjAddr: 0x18C9C, symBinAddr: 0x10001BB90, symSize: 0x2C }
  - { offsetInCU: 0x455E0, offset: 0x455E0, size: 0x8, addend: 0x0, symName: __ZNSt3__16__treeINS_12__value_typeINS_12basic_stringIcNS_11char_traitsIcEENS_9allocatorIcEEEENS_6vectorIS7_NS5_IS7_EEEEEENS_19__map_value_compareIS7_SB_NS_4lessIS7_EELb1EEENS5_ISB_EEE12__begin_nodeB8ue170006Ev, symObjAddr: 0x18CC8, symBinAddr: 0x10001BBBC, symSize: 0x14 }
  - { offsetInCU: 0x45606, offset: 0x45606, size: 0x8, addend: 0x0, symName: __ZNKSt3__117__compressed_pairINS_15__tree_end_nodeIPNS_16__tree_node_baseIPvEEEENS_9allocatorINS_11__tree_nodeINS_12__value_typeINS_12basic_stringIcNS_11char_traitsIcEENS7_IcEEEENS_6vectorISE_NS7_ISE_EEEEEES3_EEEEE6secondB8ue170006Ev, symObjAddr: 0x18CDC, symBinAddr: 0x10001BBD0, symSize: 0x24 }
  - { offsetInCU: 0x4562C, offset: 0x4562C, size: 0x8, addend: 0x0, symName: __ZNKSt3__122__compressed_pair_elemINS_9allocatorINS_11__tree_nodeINS_12__value_typeINS_12basic_stringIcNS_11char_traitsIcEENS1_IcEEEENS_6vectorIS8_NS1_IS8_EEEEEEPvEEEELi1ELb1EE5__getB8ue170006Ev, symObjAddr: 0x18D00, symBinAddr: 0x10001BBF4, symSize: 0x14 }
  - { offsetInCU: 0x45652, offset: 0x45652, size: 0x8, addend: 0x0, symName: __ZNSt3__117__compressed_pairINS_15__tree_end_nodeIPNS_16__tree_node_baseIPvEEEENS_9allocatorINS_11__tree_nodeINS_12__value_typeINS_12basic_stringIcNS_11char_traitsIcEENS7_IcEEEENS_6vectorISE_NS7_ISE_EEEEEES3_EEEEEC2B8ue170006INS_18__default_init_tagESK_EEOT_OT0_, symObjAddr: 0x18D14, symBinAddr: 0x10001BC08, symSize: 0x40 }
  - { offsetInCU: 0x456AA, offset: 0x456AA, size: 0x8, addend: 0x0, symName: __ZNSt3__122__compressed_pair_elemINS_9allocatorINS_11__tree_nodeINS_12__value_typeINS_12basic_stringIcNS_11char_traitsIcEENS1_IcEEEENS_6vectorIS8_NS1_IS8_EEEEEEPvEEEELi1ELb1EEC2B8ue170006ISF_vEEOT_, symObjAddr: 0x18D54, symBinAddr: 0x10001BC48, symSize: 0x18 }
  - { offsetInCU: 0x456EC, offset: 0x456EC, size: 0x8, addend: 0x0, symName: __ZNKSt3__117__compressed_pairImNS_19__map_value_compareINS_12basic_stringIcNS_11char_traitsIcEENS_9allocatorIcEEEENS_12__value_typeIS7_NS_6vectorIS7_NS5_IS7_EEEEEENS_4lessIS7_EELb1EEEE6secondB8ue170006Ev, symObjAddr: 0x18D6C, symBinAddr: 0x10001BC60, symSize: 0x24 }
  - { offsetInCU: 0x45712, offset: 0x45712, size: 0x8, addend: 0x0, symName: __ZNKSt3__122__compressed_pair_elemINS_19__map_value_compareINS_12basic_stringIcNS_11char_traitsIcEENS_9allocatorIcEEEENS_12__value_typeIS7_NS_6vectorIS7_NS5_IS7_EEEEEENS_4lessIS7_EELb1EEELi1ELb1EE5__getB8ue170006Ev, symObjAddr: 0x18D90, symBinAddr: 0x10001BC84, symSize: 0x14 }
  - { offsetInCU: 0x45738, offset: 0x45738, size: 0x8, addend: 0x0, symName: __ZNSt3__117__compressed_pairImNS_19__map_value_compareINS_12basic_stringIcNS_11char_traitsIcEENS_9allocatorIcEEEENS_12__value_typeIS7_NS_6vectorIS7_NS5_IS7_EEEEEENS_4lessIS7_EELb1EEEEC2B8ue170006IiRKSF_EEOT_OT0_, symObjAddr: 0x18DA4, symBinAddr: 0x10001BC98, symSize: 0x44 }
  - { offsetInCU: 0x45790, offset: 0x45790, size: 0x8, addend: 0x0, symName: __ZNSt3__122__compressed_pair_elemINS_19__map_value_compareINS_12basic_stringIcNS_11char_traitsIcEENS_9allocatorIcEEEENS_12__value_typeIS7_NS_6vectorIS7_NS5_IS7_EEEEEENS_4lessIS7_EELb1EEELi1ELb1EEC2B8ue170006IRKSF_vEEOT_, symObjAddr: 0x18DE8, symBinAddr: 0x10001BCDC, symSize: 0x18 }
  - { offsetInCU: 0x457D2, offset: 0x457D2, size: 0x8, addend: 0x0, symName: __ZNSt3__117__compressed_pairINS_15__tree_end_nodeIPNS_16__tree_node_baseIPvEEEENS_9allocatorINS_11__tree_nodeINS_12__value_typeINS_12basic_stringIcNS_11char_traitsIcEENS7_IcEEEENS_6vectorISE_NS7_ISE_EEEEEES3_EEEEE5firstB8ue170006Ev, symObjAddr: 0x18E00, symBinAddr: 0x10001BCF4, symSize: 0x24 }
  - { offsetInCU: 0x457F8, offset: 0x457F8, size: 0x8, addend: 0x0, symName: __ZNKSt3__13mapINS_12basic_stringIcNS_11char_traitsIcEENS_9allocatorIcEEEENS_6vectorIS6_NS4_IS6_EEEENS_4lessIS6_EENS4_INS_4pairIKS6_S9_EEEEE4cendB8ue170006Ev, symObjAddr: 0x18E24, symBinAddr: 0x10001BD18, symSize: 0x2C }
  - { offsetInCU: 0x4581E, offset: 0x4581E, size: 0x8, addend: 0x0, symName: __ZNSt3__13mapINS_12basic_stringIcNS_11char_traitsIcEENS_9allocatorIcEEEENS_6vectorIS6_NS4_IS6_EEEENS_4lessIS6_EENS4_INS_4pairIKS6_S9_EEEEE6insertB8ue170006ENS_20__map_const_iteratorINS_21__tree_const_iteratorINS_12__value_typeIS6_S9_EEPNS_11__tree_nodeISK_PvEElEEEERKSE_, symObjAddr: 0x18E80, symBinAddr: 0x10001BD74, symSize: 0x50 }
  - { offsetInCU: 0x45862, offset: 0x45862, size: 0x8, addend: 0x0, symName: __ZNSt3__120__map_const_iteratorINS_21__tree_const_iteratorINS_12__value_typeINS_12basic_stringIcNS_11char_traitsIcEENS_9allocatorIcEEEENS_6vectorIS8_NS6_IS8_EEEEEEPNS_11__tree_nodeISC_PvEElEEEC1B8ue170006ESH_, symObjAddr: 0x18ED0, symBinAddr: 0x10001BDC4, symSize: 0x34 }
  - { offsetInCU: 0x4589B, offset: 0x4589B, size: 0x8, addend: 0x0, symName: __ZNKSt3__120__map_const_iteratorINS_21__tree_const_iteratorINS_12__value_typeINS_12basic_stringIcNS_11char_traitsIcEENS_9allocatorIcEEEENS_6vectorIS8_NS6_IS8_EEEEEEPNS_11__tree_nodeISC_PvEElEEEdeB8ue170006Ev, symObjAddr: 0x18F04, symBinAddr: 0x10001BDF8, symSize: 0x28 }
  - { offsetInCU: 0x458C1, offset: 0x458C1, size: 0x8, addend: 0x0, symName: __ZNSt3__120__map_const_iteratorINS_21__tree_const_iteratorINS_12__value_typeINS_12basic_stringIcNS_11char_traitsIcEENS_9allocatorIcEEEENS_6vectorIS8_NS6_IS8_EEEEEEPNS_11__tree_nodeISC_PvEElEEEppB8ue170006Ev, symObjAddr: 0x18F2C, symBinAddr: 0x10001BE20, symSize: 0x2C }
  - { offsetInCU: 0x458E7, offset: 0x458E7, size: 0x8, addend: 0x0, symName: __ZNSt3__16__treeINS_12__value_typeINS_12basic_stringIcNS_11char_traitsIcEENS_9allocatorIcEEEENS_6vectorIS7_NS5_IS7_EEEEEENS_19__map_value_compareIS7_SB_NS_4lessIS7_EELb1EEENS5_ISB_EEE15__insert_uniqueB8ue170006ENS_21__tree_const_iteratorISB_PNS_11__tree_nodeISB_PvEElEERKNS_4pairIKS7_SA_EE, symObjAddr: 0x18FBC, symBinAddr: 0x10001BEB0, symSize: 0x64 }
  - { offsetInCU: 0x4592B, offset: 0x4592B, size: 0x8, addend: 0x0, symName: __ZNSt3__114__map_iteratorINS_15__tree_iteratorINS_12__value_typeINS_12basic_stringIcNS_11char_traitsIcEENS_9allocatorIcEEEENS_6vectorIS8_NS6_IS8_EEEEEEPNS_11__tree_nodeISC_PvEElEEEC1B8ue170006ESH_, symObjAddr: 0x19020, symBinAddr: 0x10001BF14, symSize: 0x34 }
  - { offsetInCU: 0x45964, offset: 0x45964, size: 0x8, addend: 0x0, symName: __ZNSt3__16__treeINS_12__value_typeINS_12basic_stringIcNS_11char_traitsIcEENS_9allocatorIcEEEENS_6vectorIS7_NS5_IS7_EEEEEENS_19__map_value_compareIS7_SB_NS_4lessIS7_EELb1EEENS5_ISB_EEE30__emplace_hint_unique_key_argsIS7_JRKNS_4pairIKS7_SA_EEEEENSJ_INS_15__tree_iteratorISB_PNS_11__tree_nodeISB_PvEElEEbEENS_21__tree_const_iteratorISB_SS_lEERKT_DpOT0_, symObjAddr: 0x19054, symBinAddr: 0x10001BF48, symSize: 0x104 }
  - { offsetInCU: 0x45A30, offset: 0x45A30, size: 0x8, addend: 0x0, symName: __ZNSt3__122__tree_key_value_typesINS_12__value_typeINS_12basic_stringIcNS_11char_traitsIcEENS_9allocatorIcEEEENS_6vectorIS7_NS5_IS7_EEEEEEE9__get_keyB8ue170006IKNS_4pairIKS7_SA_EEEENS_9enable_ifIXsr17__is_same_uncvrefIT_SG_EE5valueERSF_E4typeERSJ_, symObjAddr: 0x19158, symBinAddr: 0x10001C04C, symSize: 0x14 }
  - { offsetInCU: 0x45A5D, offset: 0x45A5D, size: 0x8, addend: 0x0, symName: __ZNSt3__16__treeINS_12__value_typeINS_12basic_stringIcNS_11char_traitsIcEENS_9allocatorIcEEEENS_6vectorIS7_NS5_IS7_EEEEEENS_19__map_value_compareIS7_SB_NS_4lessIS7_EELb1EEENS5_ISB_EEE12__find_equalIS7_EERPNS_16__tree_node_baseIPvEENS_21__tree_const_iteratorISB_PNS_11__tree_nodeISB_SK_EElEERPNS_15__tree_end_nodeISM_EESN_RKT_, symObjAddr: 0x1916C, symBinAddr: 0x10001C060, symSize: 0x304 }
  - { offsetInCU: 0x45B08, offset: 0x45B08, size: 0x8, addend: 0x0, symName: __ZNSt3__16__treeINS_12__value_typeINS_12basic_stringIcNS_11char_traitsIcEENS_9allocatorIcEEEENS_6vectorIS7_NS5_IS7_EEEEEENS_19__map_value_compareIS7_SB_NS_4lessIS7_EELb1EEENS5_ISB_EEE16__construct_nodeIJRKNS_4pairIKS7_SA_EEEEENS_10unique_ptrINS_11__tree_nodeISB_PvEENS_22__tree_node_destructorINS5_ISR_EEEEEEDpOT_, symObjAddr: 0x19470, symBinAddr: 0x10001C364, symSize: 0x110 }
  - { offsetInCU: 0x45B69, offset: 0x45B69, size: 0x8, addend: 0x0, symName: __ZNSt3__16__treeINS_12__value_typeINS_12basic_stringIcNS_11char_traitsIcEENS_9allocatorIcEEEENS_6vectorIS7_NS5_IS7_EEEEEENS_19__map_value_compareIS7_SB_NS_4lessIS7_EELb1EEENS5_ISB_EEE16__insert_node_atEPNS_15__tree_end_nodeIPNS_16__tree_node_baseIPvEEEERSM_SM_, symObjAddr: 0x19580, symBinAddr: 0x10001C474, symSize: 0xCC }
  - { offsetInCU: 0x45BBE, offset: 0x45BBE, size: 0x8, addend: 0x0, symName: __ZNKSt3__110unique_ptrINS_11__tree_nodeINS_12__value_typeINS_12basic_stringIcNS_11char_traitsIcEENS_9allocatorIcEEEENS_6vectorIS8_NS6_IS8_EEEEEEPvEENS_22__tree_node_destructorINS6_ISE_EEEEE3getB8ue170006Ev, symObjAddr: 0x1964C, symBinAddr: 0x10001C540, symSize: 0x28 }
  - { offsetInCU: 0x45BE4, offset: 0x45BE4, size: 0x8, addend: 0x0, symName: __ZNSt3__110unique_ptrINS_11__tree_nodeINS_12__value_typeINS_12basic_stringIcNS_11char_traitsIcEENS_9allocatorIcEEEENS_6vectorIS8_NS6_IS8_EEEEEEPvEENS_22__tree_node_destructorINS6_ISE_EEEEE7releaseB8ue170006Ev, symObjAddr: 0x19674, symBinAddr: 0x10001C568, symSize: 0x44 }
  - { offsetInCU: 0x45C19, offset: 0x45C19, size: 0x8, addend: 0x0, symName: __ZNSt3__110unique_ptrINS_11__tree_nodeINS_12__value_typeINS_12basic_stringIcNS_11char_traitsIcEENS_9allocatorIcEEEENS_6vectorIS8_NS6_IS8_EEEEEEPvEENS_22__tree_node_destructorINS6_ISE_EEEEED1B8ue170006Ev, symObjAddr: 0x196B8, symBinAddr: 0x10001C5AC, symSize: 0x2C }
  - { offsetInCU: 0x45C43, offset: 0x45C43, size: 0x8, addend: 0x0, symName: __ZNSt3__115__tree_iteratorINS_12__value_typeINS_12basic_stringIcNS_11char_traitsIcEENS_9allocatorIcEEEENS_6vectorIS7_NS5_IS7_EEEEEEPNS_11__tree_nodeISB_PvEElEC1B8ue170006ESF_, symObjAddr: 0x196E4, symBinAddr: 0x10001C5D8, symSize: 0x34 }
  - { offsetInCU: 0x45C82, offset: 0x45C82, size: 0x8, addend: 0x0, symName: __ZNSt3__14pairINS_15__tree_iteratorINS_12__value_typeINS_12basic_stringIcNS_11char_traitsIcEENS_9allocatorIcEEEENS_6vectorIS8_NS6_IS8_EEEEEEPNS_11__tree_nodeISC_PvEElEEbEC1B8ue170006ISH_RbLSE_0EEEOT_OT0_, symObjAddr: 0x19718, symBinAddr: 0x10001C60C, symSize: 0x3C }
  - { offsetInCU: 0x45CE0, offset: 0x45CE0, size: 0x8, addend: 0x0, symName: __ZNSt3__16__treeINS_12__value_typeINS_12basic_stringIcNS_11char_traitsIcEENS_9allocatorIcEEEENS_6vectorIS7_NS5_IS7_EEEEEENS_19__map_value_compareIS7_SB_NS_4lessIS7_EELb1EEENS5_ISB_EEE3endB8ue170006Ev, symObjAddr: 0x19754, symBinAddr: 0x10001C648, symSize: 0x34 }
  - { offsetInCU: 0x45D06, offset: 0x45D06, size: 0x8, addend: 0x0, symName: __ZNSt3__121__tree_const_iteratorINS_12__value_typeINS_12basic_stringIcNS_11char_traitsIcEENS_9allocatorIcEEEENS_6vectorIS7_NS5_IS7_EEEEEEPNS_11__tree_nodeISB_PvEElEC1B8ue170006ENS_15__tree_iteratorISB_SF_lEE, symObjAddr: 0x19788, symBinAddr: 0x10001C67C, symSize: 0x34 }
  - { offsetInCU: 0x45D3F, offset: 0x45D3F, size: 0x8, addend: 0x0, symName: __ZNSt3__16__treeINS_12__value_typeINS_12basic_stringIcNS_11char_traitsIcEENS_9allocatorIcEEEENS_6vectorIS7_NS5_IS7_EEEEEENS_19__map_value_compareIS7_SB_NS_4lessIS7_EELb1EEENS5_ISB_EEE10value_compB8ue170006Ev, symObjAddr: 0x197BC, symBinAddr: 0x10001C6B0, symSize: 0x28 }
  - { offsetInCU: 0x45D65, offset: 0x45D65, size: 0x8, addend: 0x0, symName: __ZNKSt3__119__map_value_compareINS_12basic_stringIcNS_11char_traitsIcEENS_9allocatorIcEEEENS_12__value_typeIS6_NS_6vectorIS6_NS4_IS6_EEEEEENS_4lessIS6_EELb1EEclB8ue170006ERKS6_RKSB_, symObjAddr: 0x197E4, symBinAddr: 0x10001C6D8, symSize: 0x50 }
  - { offsetInCU: 0x45DA9, offset: 0x45DA9, size: 0x8, addend: 0x0, symName: __ZNKSt3__121__tree_const_iteratorINS_12__value_typeINS_12basic_stringIcNS_11char_traitsIcEENS_9allocatorIcEEEENS_6vectorIS7_NS5_IS7_EEEEEEPNS_11__tree_nodeISB_PvEElEdeB8ue170006Ev, symObjAddr: 0x19834, symBinAddr: 0x10001C728, symSize: 0x28 }
  - { offsetInCU: 0x45DCF, offset: 0x45DCF, size: 0x8, addend: 0x0, symName: __ZNSt3__16__treeINS_12__value_typeINS_12basic_stringIcNS_11char_traitsIcEENS_9allocatorIcEEEENS_6vectorIS7_NS5_IS7_EEEEEENS_19__map_value_compareIS7_SB_NS_4lessIS7_EELb1EEENS5_ISB_EEE5beginB8ue170006Ev, symObjAddr: 0x1985C, symBinAddr: 0x10001C750, symSize: 0x34 }
  - { offsetInCU: 0x45DF5, offset: 0x45DF5, size: 0x8, addend: 0x0, symName: __ZNKSt3__119__map_value_compareINS_12basic_stringIcNS_11char_traitsIcEENS_9allocatorIcEEEENS_12__value_typeIS6_NS_6vectorIS6_NS4_IS6_EEEEEENS_4lessIS6_EELb1EEclB8ue170006ERKSB_RKS6_, symObjAddr: 0x19890, symBinAddr: 0x10001C784, symSize: 0x48 }
  - { offsetInCU: 0x45E39, offset: 0x45E39, size: 0x8, addend: 0x0, symName: __ZNSt3__121__tree_const_iteratorINS_12__value_typeINS_12basic_stringIcNS_11char_traitsIcEENS_9allocatorIcEEEENS_6vectorIS7_NS5_IS7_EEEEEEPNS_11__tree_nodeISB_PvEElEmmB8ue170006Ev, symObjAddr: 0x198D8, symBinAddr: 0x10001C7CC, symSize: 0x38 }
  - { offsetInCU: 0x45E5F, offset: 0x45E5F, size: 0x8, addend: 0x0, symName: __ZNSt3__16__treeINS_12__value_typeINS_12basic_stringIcNS_11char_traitsIcEENS_9allocatorIcEEEENS_6vectorIS7_NS5_IS7_EEEEEENS_19__map_value_compareIS7_SB_NS_4lessIS7_EELb1EEENS5_ISB_EEE12__find_equalIS7_EERPNS_16__tree_node_baseIPvEERPNS_15__tree_end_nodeISM_EERKT_, symObjAddr: 0x19910, symBinAddr: 0x10001C804, symSize: 0x184 }
  - { offsetInCU: 0x45ECC, offset: 0x45ECC, size: 0x8, addend: 0x0, symName: __ZNKSt3__121__tree_const_iteratorINS_12__value_typeINS_12basic_stringIcNS_11char_traitsIcEENS_9allocatorIcEEEENS_6vectorIS7_NS5_IS7_EEEEEEPNS_11__tree_nodeISB_PvEElE8__get_npB8ue170006Ev, symObjAddr: 0x19AD0, symBinAddr: 0x10001C9C4, symSize: 0x18 }
  - { offsetInCU: 0x45EF2, offset: 0x45EF2, size: 0x8, addend: 0x0, symName: __ZNSt3__115__tree_iteratorINS_12__value_typeINS_12basic_stringIcNS_11char_traitsIcEENS_9allocatorIcEEEENS_6vectorIS7_NS5_IS7_EEEEEEPNS_11__tree_nodeISB_PvEElEC1B8ue170006EPNS_15__tree_end_nodeIPNS_16__tree_node_baseISD_EEEE, symObjAddr: 0x19AE8, symBinAddr: 0x10001C9DC, symSize: 0x34 }
  - { offsetInCU: 0x45F2B, offset: 0x45F2B, size: 0x8, addend: 0x0, symName: __ZNSt3__115__tree_iteratorINS_12__value_typeINS_12basic_stringIcNS_11char_traitsIcEENS_9allocatorIcEEEENS_6vectorIS7_NS5_IS7_EEEEEEPNS_11__tree_nodeISB_PvEElEC2B8ue170006EPNS_15__tree_end_nodeIPNS_16__tree_node_baseISD_EEEE, symObjAddr: 0x19B1C, symBinAddr: 0x10001CA10, symSize: 0x20 }
  - { offsetInCU: 0x45F64, offset: 0x45F64, size: 0x8, addend: 0x0, symName: __ZNSt3__121__tree_const_iteratorINS_12__value_typeINS_12basic_stringIcNS_11char_traitsIcEENS_9allocatorIcEEEENS_6vectorIS7_NS5_IS7_EEEEEEPNS_11__tree_nodeISB_PvEElEC2B8ue170006ENS_15__tree_iteratorISB_SF_lEE, symObjAddr: 0x19B3C, symBinAddr: 0x10001CA30, symSize: 0x20 }
  - { offsetInCU: 0x45F9D, offset: 0x45F9D, size: 0x8, addend: 0x0, symName: __ZNSt3__117__compressed_pairImNS_19__map_value_compareINS_12basic_stringIcNS_11char_traitsIcEENS_9allocatorIcEEEENS_12__value_typeIS7_NS_6vectorIS7_NS5_IS7_EEEEEENS_4lessIS7_EELb1EEEE6secondB8ue170006Ev, symObjAddr: 0x19B5C, symBinAddr: 0x10001CA50, symSize: 0x24 }
  - { offsetInCU: 0x45FC3, offset: 0x45FC3, size: 0x8, addend: 0x0, symName: __ZNSt3__122__compressed_pair_elemINS_19__map_value_compareINS_12basic_stringIcNS_11char_traitsIcEENS_9allocatorIcEEEENS_12__value_typeIS7_NS_6vectorIS7_NS5_IS7_EEEEEENS_4lessIS7_EELb1EEELi1ELb1EE5__getB8ue170006Ev, symObjAddr: 0x19B80, symBinAddr: 0x10001CA74, symSize: 0x14 }
  - { offsetInCU: 0x45FE9, offset: 0x45FE9, size: 0x8, addend: 0x0, symName: __ZNKSt3__112__value_typeINS_12basic_stringIcNS_11char_traitsIcEENS_9allocatorIcEEEENS_6vectorIS6_NS4_IS6_EEEEE11__get_valueB8ue170006Ev, symObjAddr: 0x19B94, symBinAddr: 0x10001CA88, symSize: 0x14 }
  - { offsetInCU: 0x4600F, offset: 0x4600F, size: 0x8, addend: 0x0, symName: __ZNKSt3__16__treeINS_12__value_typeINS_12basic_stringIcNS_11char_traitsIcEENS_9allocatorIcEEEENS_6vectorIS7_NS5_IS7_EEEEEENS_19__map_value_compareIS7_SB_NS_4lessIS7_EELb1EEENS5_ISB_EEE6__rootB8ue170006Ev, symObjAddr: 0x19BA8, symBinAddr: 0x10001CA9C, symSize: 0x28 }
  - { offsetInCU: 0x46035, offset: 0x46035, size: 0x8, addend: 0x0, symName: __ZNKSt3__16__treeINS_12__value_typeINS_12basic_stringIcNS_11char_traitsIcEENS_9allocatorIcEEEENS_6vectorIS7_NS5_IS7_EEEEEENS_19__map_value_compareIS7_SB_NS_4lessIS7_EELb1EEENS5_ISB_EEE10__root_ptrB8ue170006Ev, symObjAddr: 0x19BD0, symBinAddr: 0x10001CAC4, symSize: 0x24 }
  - { offsetInCU: 0x4605B, offset: 0x4605B, size: 0x8, addend: 0x0, symName: __ZNKSt3__16__treeINS_12__value_typeINS_12basic_stringIcNS_11char_traitsIcEENS_9allocatorIcEEEENS_6vectorIS7_NS5_IS7_EEEEEENS_19__map_value_compareIS7_SB_NS_4lessIS7_EELb1EEENS5_ISB_EEE10__end_nodeB8ue170006Ev, symObjAddr: 0x19BF4, symBinAddr: 0x10001CAE8, symSize: 0x2C }
  - { offsetInCU: 0x46081, offset: 0x46081, size: 0x8, addend: 0x0, symName: __ZNKSt3__117__compressed_pairINS_15__tree_end_nodeIPNS_16__tree_node_baseIPvEEEENS_9allocatorINS_11__tree_nodeINS_12__value_typeINS_12basic_stringIcNS_11char_traitsIcEENS7_IcEEEENS_6vectorISE_NS7_ISE_EEEEEES3_EEEEE5firstB8ue170006Ev, symObjAddr: 0x19C20, symBinAddr: 0x10001CB14, symSize: 0x24 }
  - { offsetInCU: 0x460A7, offset: 0x460A7, size: 0x8, addend: 0x0, symName: __ZNSt3__121__tree_const_iteratorINS_12__value_typeINS_12basic_stringIcNS_11char_traitsIcEENS_9allocatorIcEEEENS_6vectorIS7_NS5_IS7_EEEEEEPNS_11__tree_nodeISB_PvEElEppB8ue170006Ev, symObjAddr: 0x19D20, symBinAddr: 0x10001CC14, symSize: 0x38 }
  - { offsetInCU: 0x460CD, offset: 0x460CD, size: 0x8, addend: 0x0, symName: __ZNSt3__16__treeINS_12__value_typeINS_12basic_stringIcNS_11char_traitsIcEENS_9allocatorIcEEEENS_6vectorIS7_NS5_IS7_EEEEEENS_19__map_value_compareIS7_SB_NS_4lessIS7_EELb1EEENS5_ISB_EEE12__node_allocB8ue170006Ev, symObjAddr: 0x19D58, symBinAddr: 0x10001CC4C, symSize: 0x28 }
  - { offsetInCU: 0x460F3, offset: 0x460F3, size: 0x8, addend: 0x0, symName: __ZNSt3__116allocator_traitsINS_9allocatorINS_11__tree_nodeINS_12__value_typeINS_12basic_stringIcNS_11char_traitsIcEENS1_IcEEEENS_6vectorIS8_NS1_IS8_EEEEEEPvEEEEE8allocateB8ue170006ERSF_m, symObjAddr: 0x19D80, symBinAddr: 0x10001CC74, symSize: 0x2C }
  - { offsetInCU: 0x46126, offset: 0x46126, size: 0x8, addend: 0x0, symName: __ZNSt3__122__tree_node_destructorINS_9allocatorINS_11__tree_nodeINS_12__value_typeINS_12basic_stringIcNS_11char_traitsIcEENS1_IcEEEENS_6vectorIS8_NS1_IS8_EEEEEEPvEEEEEC1B8ue170006ERSF_b, symObjAddr: 0x19DAC, symBinAddr: 0x10001CCA0, symSize: 0x48 }
  - { offsetInCU: 0x46174, offset: 0x46174, size: 0x8, addend: 0x0, symName: __ZNSt3__110unique_ptrINS_11__tree_nodeINS_12__value_typeINS_12basic_stringIcNS_11char_traitsIcEENS_9allocatorIcEEEENS_6vectorIS8_NS6_IS8_EEEEEEPvEENS_22__tree_node_destructorINS6_ISE_EEEEEC1B8ue170006ILb1EvEEPSE_NS_16__dependent_typeINS_27__unique_ptr_deleter_sfinaeISH_EEXT_EE20__good_rval_ref_typeE, symObjAddr: 0x19DF4, symBinAddr: 0x10001CCE8, symSize: 0x3C }
  - { offsetInCU: 0x461C5, offset: 0x461C5, size: 0x8, addend: 0x0, symName: __ZNSt3__116allocator_traitsINS_9allocatorINS_11__tree_nodeINS_12__value_typeINS_12basic_stringIcNS_11char_traitsIcEENS1_IcEEEENS_6vectorIS8_NS1_IS8_EEEEEEPvEEEEE9constructB8ue170006INS_4pairIKS8_SB_EEJRKSK_EvEEvRSF_PT_DpOT0_, symObjAddr: 0x19E30, symBinAddr: 0x10001CD24, symSize: 0x34 }
  - { offsetInCU: 0x4621C, offset: 0x4621C, size: 0x8, addend: 0x0, symName: __ZNSt3__122__tree_key_value_typesINS_12__value_typeINS_12basic_stringIcNS_11char_traitsIcEENS_9allocatorIcEEEENS_6vectorIS7_NS5_IS7_EEEEEEE9__get_ptrB8ue170006ERSB_, symObjAddr: 0x19E64, symBinAddr: 0x10001CD58, symSize: 0x24 }
  - { offsetInCU: 0x46240, offset: 0x46240, size: 0x8, addend: 0x0, symName: __ZNKSt3__110unique_ptrINS_11__tree_nodeINS_12__value_typeINS_12basic_stringIcNS_11char_traitsIcEENS_9allocatorIcEEEENS_6vectorIS8_NS6_IS8_EEEEEEPvEENS_22__tree_node_destructorINS6_ISE_EEEEEptB8ue170006Ev, symObjAddr: 0x19E88, symBinAddr: 0x10001CD7C, symSize: 0x28 }
  - { offsetInCU: 0x46266, offset: 0x46266, size: 0x8, addend: 0x0, symName: __ZNSt3__110unique_ptrINS_11__tree_nodeINS_12__value_typeINS_12basic_stringIcNS_11char_traitsIcEENS_9allocatorIcEEEENS_6vectorIS8_NS6_IS8_EEEEEEPvEENS_22__tree_node_destructorINS6_ISE_EEEEE11get_deleterB8ue170006Ev, symObjAddr: 0x19EB0, symBinAddr: 0x10001CDA4, symSize: 0x24 }
  - { offsetInCU: 0x4628C, offset: 0x4628C, size: 0x8, addend: 0x0, symName: __ZNSt3__117__compressed_pairINS_15__tree_end_nodeIPNS_16__tree_node_baseIPvEEEENS_9allocatorINS_11__tree_nodeINS_12__value_typeINS_12basic_stringIcNS_11char_traitsIcEENS7_IcEEEENS_6vectorISE_NS7_ISE_EEEEEES3_EEEEE6secondB8ue170006Ev, symObjAddr: 0x19ED4, symBinAddr: 0x10001CDC8, symSize: 0x24 }
  - { offsetInCU: 0x462B2, offset: 0x462B2, size: 0x8, addend: 0x0, symName: __ZNSt3__122__compressed_pair_elemINS_9allocatorINS_11__tree_nodeINS_12__value_typeINS_12basic_stringIcNS_11char_traitsIcEENS1_IcEEEENS_6vectorIS8_NS1_IS8_EEEEEEPvEEEELi1ELb1EE5__getB8ue170006Ev, symObjAddr: 0x19EF8, symBinAddr: 0x10001CDEC, symSize: 0x14 }
  - { offsetInCU: 0x462D8, offset: 0x462D8, size: 0x8, addend: 0x0, symName: __ZNSt3__19allocatorINS_11__tree_nodeINS_12__value_typeINS_12basic_stringIcNS_11char_traitsIcEENS0_IcEEEENS_6vectorIS7_NS0_IS7_EEEEEEPvEEE8allocateB8ue170006Em, symObjAddr: 0x19F0C, symBinAddr: 0x10001CE00, symSize: 0x5C }
  - { offsetInCU: 0x4630C, offset: 0x4630C, size: 0x8, addend: 0x0, symName: __ZNSt3__116allocator_traitsINS_9allocatorINS_11__tree_nodeINS_12__value_typeINS_12basic_stringIcNS_11char_traitsIcEENS1_IcEEEENS_6vectorIS8_NS1_IS8_EEEEEEPvEEEEE8max_sizeB8ue170006ISF_vEEmRKSF_, symObjAddr: 0x19F68, symBinAddr: 0x10001CE5C, symSize: 0x24 }
  - { offsetInCU: 0x4633A, offset: 0x4633A, size: 0x8, addend: 0x0, symName: __ZNKSt3__19allocatorINS_11__tree_nodeINS_12__value_typeINS_12basic_stringIcNS_11char_traitsIcEENS0_IcEEEENS_6vectorIS7_NS0_IS7_EEEEEEPvEEE8max_sizeB8ue170006Ev, symObjAddr: 0x19F8C, symBinAddr: 0x10001CE80, symSize: 0x18 }
  - { offsetInCU: 0x46360, offset: 0x46360, size: 0x8, addend: 0x0, symName: __ZNSt3__122__tree_node_destructorINS_9allocatorINS_11__tree_nodeINS_12__value_typeINS_12basic_stringIcNS_11char_traitsIcEENS1_IcEEEENS_6vectorIS8_NS1_IS8_EEEEEEPvEEEEEC2B8ue170006ERSF_b, symObjAddr: 0x19FA4, symBinAddr: 0x10001CE98, symSize: 0x38 }
  - { offsetInCU: 0x463A8, offset: 0x463A8, size: 0x8, addend: 0x0, symName: __ZNSt3__110unique_ptrINS_11__tree_nodeINS_12__value_typeINS_12basic_stringIcNS_11char_traitsIcEENS_9allocatorIcEEEENS_6vectorIS8_NS6_IS8_EEEEEEPvEENS_22__tree_node_destructorINS6_ISE_EEEEEC2B8ue170006ILb1EvEEPSE_NS_16__dependent_typeINS_27__unique_ptr_deleter_sfinaeISH_EEXT_EE20__good_rval_ref_typeE, symObjAddr: 0x19FDC, symBinAddr: 0x10001CED0, symSize: 0x48 }
  - { offsetInCU: 0x463F9, offset: 0x463F9, size: 0x8, addend: 0x0, symName: __ZNSt3__117__compressed_pairIPNS_11__tree_nodeINS_12__value_typeINS_12basic_stringIcNS_11char_traitsIcEENS_9allocatorIcEEEENS_6vectorIS8_NS6_IS8_EEEEEEPvEENS_22__tree_node_destructorINS6_ISE_EEEEEC1B8ue170006IRSF_SI_EEOT_OT0_, symObjAddr: 0x1A024, symBinAddr: 0x10001CF18, symSize: 0x3C }
  - { offsetInCU: 0x46451, offset: 0x46451, size: 0x8, addend: 0x0, symName: __ZNSt3__117__compressed_pairIPNS_11__tree_nodeINS_12__value_typeINS_12basic_stringIcNS_11char_traitsIcEENS_9allocatorIcEEEENS_6vectorIS8_NS6_IS8_EEEEEEPvEENS_22__tree_node_destructorINS6_ISE_EEEEEC2B8ue170006IRSF_SI_EEOT_OT0_, symObjAddr: 0x1A060, symBinAddr: 0x10001CF54, symSize: 0x48 }
  - { offsetInCU: 0x464A9, offset: 0x464A9, size: 0x8, addend: 0x0, symName: __ZNSt3__122__compressed_pair_elemIPNS_11__tree_nodeINS_12__value_typeINS_12basic_stringIcNS_11char_traitsIcEENS_9allocatorIcEEEENS_6vectorIS8_NS6_IS8_EEEEEEPvEELi0ELb0EEC2B8ue170006IRSF_vEEOT_, symObjAddr: 0x1A0A8, symBinAddr: 0x10001CF9C, symSize: 0x24 }
  - { offsetInCU: 0x464EB, offset: 0x464EB, size: 0x8, addend: 0x0, symName: __ZNSt3__122__compressed_pair_elemINS_22__tree_node_destructorINS_9allocatorINS_11__tree_nodeINS_12__value_typeINS_12basic_stringIcNS_11char_traitsIcEENS2_IcEEEENS_6vectorIS9_NS2_IS9_EEEEEEPvEEEEEELi1ELb0EEC2B8ue170006ISH_vEEOT_, symObjAddr: 0x1A0CC, symBinAddr: 0x10001CFC0, symSize: 0x24 }
  - { offsetInCU: 0x4652D, offset: 0x4652D, size: 0x8, addend: 0x0, symName: __ZNSt3__19allocatorINS_11__tree_nodeINS_12__value_typeINS_12basic_stringIcNS_11char_traitsIcEENS0_IcEEEENS_6vectorIS7_NS0_IS7_EEEEEEPvEEE9constructB8ue170006INS_4pairIKS7_SA_EEJRKSI_EEEvPT_DpOT0_, symObjAddr: 0x1A0F0, symBinAddr: 0x10001CFE4, symSize: 0x30 }
  - { offsetInCU: 0x46583, offset: 0x46583, size: 0x8, addend: 0x0, symName: __ZNSt3__14pairIKNS_12basic_stringIcNS_11char_traitsIcEENS_9allocatorIcEEEENS_6vectorIS6_NS4_IS6_EEEEEC1B8ue170006ERKSB_, symObjAddr: 0x1A120, symBinAddr: 0x10001D014, symSize: 0x34 }
  - { offsetInCU: 0x465B7, offset: 0x465B7, size: 0x8, addend: 0x0, symName: __ZNSt3__14pairIKNS_12basic_stringIcNS_11char_traitsIcEENS_9allocatorIcEEEENS_6vectorIS6_NS4_IS6_EEEEEC2B8ue170006ERKSB_, symObjAddr: 0x1A154, symBinAddr: 0x10001D048, symSize: 0x70 }
  - { offsetInCU: 0x465EB, offset: 0x465EB, size: 0x8, addend: 0x0, symName: __ZNSt3__112__value_typeINS_12basic_stringIcNS_11char_traitsIcEENS_9allocatorIcEEEENS_6vectorIS6_NS4_IS6_EEEEE11__get_valueB8ue170006Ev, symObjAddr: 0x1A1C4, symBinAddr: 0x10001D0B8, symSize: 0x14 }
  - { offsetInCU: 0x46611, offset: 0x46611, size: 0x8, addend: 0x0, symName: __ZNKSt3__117__compressed_pairIPNS_11__tree_nodeINS_12__value_typeINS_12basic_stringIcNS_11char_traitsIcEENS_9allocatorIcEEEENS_6vectorIS8_NS6_IS8_EEEEEEPvEENS_22__tree_node_destructorINS6_ISE_EEEEE5firstB8ue170006Ev, symObjAddr: 0x1A1D8, symBinAddr: 0x10001D0CC, symSize: 0x24 }
  - { offsetInCU: 0x46637, offset: 0x46637, size: 0x8, addend: 0x0, symName: __ZNKSt3__122__compressed_pair_elemIPNS_11__tree_nodeINS_12__value_typeINS_12basic_stringIcNS_11char_traitsIcEENS_9allocatorIcEEEENS_6vectorIS8_NS6_IS8_EEEEEEPvEELi0ELb0EE5__getB8ue170006Ev, symObjAddr: 0x1A1FC, symBinAddr: 0x10001D0F0, symSize: 0x14 }
  - { offsetInCU: 0x4665D, offset: 0x4665D, size: 0x8, addend: 0x0, symName: __ZNSt3__117__compressed_pairIPNS_11__tree_nodeINS_12__value_typeINS_12basic_stringIcNS_11char_traitsIcEENS_9allocatorIcEEEENS_6vectorIS8_NS6_IS8_EEEEEEPvEENS_22__tree_node_destructorINS6_ISE_EEEEE6secondB8ue170006Ev, symObjAddr: 0x1A210, symBinAddr: 0x10001D104, symSize: 0x28 }
  - { offsetInCU: 0x46683, offset: 0x46683, size: 0x8, addend: 0x0, symName: __ZNSt3__122__compressed_pair_elemINS_22__tree_node_destructorINS_9allocatorINS_11__tree_nodeINS_12__value_typeINS_12basic_stringIcNS_11char_traitsIcEENS2_IcEEEENS_6vectorIS9_NS2_IS9_EEEEEEPvEEEEEELi1ELb0EE5__getB8ue170006Ev, symObjAddr: 0x1A238, symBinAddr: 0x10001D12C, symSize: 0x14 }
  - { offsetInCU: 0x466A9, offset: 0x466A9, size: 0x8, addend: 0x0, symName: __ZNSt3__16__treeINS_12__value_typeINS_12basic_stringIcNS_11char_traitsIcEENS_9allocatorIcEEEENS_6vectorIS7_NS5_IS7_EEEEEENS_19__map_value_compareIS7_SB_NS_4lessIS7_EELb1EEENS5_ISB_EEE4sizeB8ue170006Ev, symObjAddr: 0x1A24C, symBinAddr: 0x10001D140, symSize: 0x28 }
  - { offsetInCU: 0x466CF, offset: 0x466CF, size: 0x8, addend: 0x0, symName: __ZNSt3__117__compressed_pairImNS_19__map_value_compareINS_12basic_stringIcNS_11char_traitsIcEENS_9allocatorIcEEEENS_12__value_typeIS7_NS_6vectorIS7_NS5_IS7_EEEEEENS_4lessIS7_EELb1EEEE5firstB8ue170006Ev, symObjAddr: 0x1A274, symBinAddr: 0x10001D168, symSize: 0x24 }
  - { offsetInCU: 0x466F5, offset: 0x466F5, size: 0x8, addend: 0x0, symName: __ZNSt3__117__compressed_pairIPNS_11__tree_nodeINS_12__value_typeINS_12basic_stringIcNS_11char_traitsIcEENS_9allocatorIcEEEENS_6vectorIS8_NS6_IS8_EEEEEEPvEENS_22__tree_node_destructorINS6_ISE_EEEEE5firstB8ue170006Ev, symObjAddr: 0x1A298, symBinAddr: 0x10001D18C, symSize: 0x24 }
  - { offsetInCU: 0x4671B, offset: 0x4671B, size: 0x8, addend: 0x0, symName: __ZNSt3__122__compressed_pair_elemIPNS_11__tree_nodeINS_12__value_typeINS_12basic_stringIcNS_11char_traitsIcEENS_9allocatorIcEEEENS_6vectorIS8_NS6_IS8_EEEEEEPvEELi0ELb0EE5__getB8ue170006Ev, symObjAddr: 0x1A2BC, symBinAddr: 0x10001D1B0, symSize: 0x14 }
  - { offsetInCU: 0x46741, offset: 0x46741, size: 0x8, addend: 0x0, symName: __ZNSt3__110unique_ptrINS_11__tree_nodeINS_12__value_typeINS_12basic_stringIcNS_11char_traitsIcEENS_9allocatorIcEEEENS_6vectorIS8_NS6_IS8_EEEEEEPvEENS_22__tree_node_destructorINS6_ISE_EEEEED2B8ue170006Ev, symObjAddr: 0x1A2D0, symBinAddr: 0x10001D1C4, symSize: 0x30 }
  - { offsetInCU: 0x4676B, offset: 0x4676B, size: 0x8, addend: 0x0, symName: __ZNSt3__110unique_ptrINS_11__tree_nodeINS_12__value_typeINS_12basic_stringIcNS_11char_traitsIcEENS_9allocatorIcEEEENS_6vectorIS8_NS6_IS8_EEEEEEPvEENS_22__tree_node_destructorINS6_ISE_EEEEE5resetB8ue170006EPSE_, symObjAddr: 0x1A300, symBinAddr: 0x10001D1F4, symSize: 0x78 }
  - { offsetInCU: 0x467AF, offset: 0x467AF, size: 0x8, addend: 0x0, symName: __ZNSt3__122__tree_node_destructorINS_9allocatorINS_11__tree_nodeINS_12__value_typeINS_12basic_stringIcNS_11char_traitsIcEENS1_IcEEEENS_6vectorIS8_NS1_IS8_EEEEEEPvEEEEEclB8ue170006EPSE_, symObjAddr: 0x1A378, symBinAddr: 0x10001D26C, symSize: 0x98 }
  - { offsetInCU: 0x467E4, offset: 0x467E4, size: 0x8, addend: 0x0, symName: __ZNSt3__116allocator_traitsINS_9allocatorINS_11__tree_nodeINS_12__value_typeINS_12basic_stringIcNS_11char_traitsIcEENS1_IcEEEENS_6vectorIS8_NS1_IS8_EEEEEEPvEEEEE7destroyB8ue170006INS_4pairIKS8_SB_EEvvEEvRSF_PT_, symObjAddr: 0x1A410, symBinAddr: 0x10001D304, symSize: 0x28 }
  - { offsetInCU: 0x4681E, offset: 0x4681E, size: 0x8, addend: 0x0, symName: __ZNSt3__116allocator_traitsINS_9allocatorINS_11__tree_nodeINS_12__value_typeINS_12basic_stringIcNS_11char_traitsIcEENS1_IcEEEENS_6vectorIS8_NS1_IS8_EEEEEEPvEEEEE10deallocateB8ue170006ERSF_PSE_m, symObjAddr: 0x1A438, symBinAddr: 0x10001D32C, symSize: 0x34 }
  - { offsetInCU: 0x46860, offset: 0x46860, size: 0x8, addend: 0x0, symName: __ZNSt3__14pairIKNS_12basic_stringIcNS_11char_traitsIcEENS_9allocatorIcEEEENS_6vectorIS6_NS4_IS6_EEEEED1Ev, symObjAddr: 0x1A46C, symBinAddr: 0x10001D360, symSize: 0x2C }
  - { offsetInCU: 0x4688C, offset: 0x4688C, size: 0x8, addend: 0x0, symName: __ZNSt3__14pairIKNS_12basic_stringIcNS_11char_traitsIcEENS_9allocatorIcEEEENS_6vectorIS6_NS4_IS6_EEEEED2Ev, symObjAddr: 0x1A498, symBinAddr: 0x10001D38C, symSize: 0x38 }
  - { offsetInCU: 0x468B8, offset: 0x468B8, size: 0x8, addend: 0x0, symName: __ZNSt3__19allocatorINS_11__tree_nodeINS_12__value_typeINS_12basic_stringIcNS_11char_traitsIcEENS0_IcEEEENS_6vectorIS7_NS0_IS7_EEEEEEPvEEE10deallocateB8ue170006EPSD_m, symObjAddr: 0x1A4D0, symBinAddr: 0x10001D3C4, symSize: 0x44 }
  - { offsetInCU: 0x468FA, offset: 0x468FA, size: 0x8, addend: 0x0, symName: __ZNSt3__115__tree_iteratorINS_12__value_typeINS_12basic_stringIcNS_11char_traitsIcEENS_9allocatorIcEEEENS_6vectorIS7_NS5_IS7_EEEEEEPNS_11__tree_nodeISB_PvEElEC2B8ue170006ESF_, symObjAddr: 0x1A514, symBinAddr: 0x10001D408, symSize: 0x20 }
  - { offsetInCU: 0x46933, offset: 0x46933, size: 0x8, addend: 0x0, symName: __ZNSt3__14pairINS_15__tree_iteratorINS_12__value_typeINS_12basic_stringIcNS_11char_traitsIcEENS_9allocatorIcEEEENS_6vectorIS8_NS6_IS8_EEEEEEPNS_11__tree_nodeISC_PvEElEEbEC2B8ue170006ISH_RbLSE_0EEEOT_OT0_, symObjAddr: 0x1A534, symBinAddr: 0x10001D428, symSize: 0x38 }
  - { offsetInCU: 0x46991, offset: 0x46991, size: 0x8, addend: 0x0, symName: __ZNSt3__114__map_iteratorINS_15__tree_iteratorINS_12__value_typeINS_12basic_stringIcNS_11char_traitsIcEENS_9allocatorIcEEEENS_6vectorIS8_NS6_IS8_EEEEEEPNS_11__tree_nodeISC_PvEElEEEC2B8ue170006ESH_, symObjAddr: 0x1A56C, symBinAddr: 0x10001D460, symSize: 0x20 }
  - { offsetInCU: 0x469CA, offset: 0x469CA, size: 0x8, addend: 0x0, symName: __ZNSt3__120__map_const_iteratorINS_21__tree_const_iteratorINS_12__value_typeINS_12basic_stringIcNS_11char_traitsIcEENS_9allocatorIcEEEENS_6vectorIS8_NS6_IS8_EEEEEEPNS_11__tree_nodeISC_PvEElEEEC2B8ue170006ESH_, symObjAddr: 0x1A58C, symBinAddr: 0x10001D480, symSize: 0x20 }
  - { offsetInCU: 0x46A03, offset: 0x46A03, size: 0x8, addend: 0x0, symName: __ZNKSt3__121__tree_const_iteratorINS_12__value_typeINS_12basic_stringIcNS_11char_traitsIcEENS_9allocatorIcEEEENS_6vectorIS7_NS5_IS7_EEEEEEPNS_11__tree_nodeISB_PvEElEptB8ue170006Ev, symObjAddr: 0x1A5AC, symBinAddr: 0x10001D4A0, symSize: 0x2C }
  - { offsetInCU: 0x46A29, offset: 0x46A29, size: 0x8, addend: 0x0, symName: __ZNSt3__114pointer_traitsIPKNS_12__value_typeINS_12basic_stringIcNS_11char_traitsIcEENS_9allocatorIcEEEENS_6vectorIS7_NS5_IS7_EEEEEEE10pointer_toB8ue170006ERSC_, symObjAddr: 0x1A5D8, symBinAddr: 0x10001D4CC, symSize: 0x14 }
  - { offsetInCU: 0x46A4C, offset: 0x46A4C, size: 0x8, addend: 0x0, symName: __ZNKSt3__16__treeINS_12__value_typeINS_12basic_stringIcNS_11char_traitsIcEENS_9allocatorIcEEEENS_6vectorIS7_NS5_IS7_EEEEEENS_19__map_value_compareIS7_SB_NS_4lessIS7_EELb1EEENS5_ISB_EEE5beginB8ue170006Ev, symObjAddr: 0x1A5EC, symBinAddr: 0x10001D4E0, symSize: 0x34 }
  - { offsetInCU: 0x46A72, offset: 0x46A72, size: 0x8, addend: 0x0, symName: __ZNKSt3__16__treeINS_12__value_typeINS_12basic_stringIcNS_11char_traitsIcEENS_9allocatorIcEEEENS_6vectorIS7_NS5_IS7_EEEEEENS_19__map_value_compareIS7_SB_NS_4lessIS7_EELb1EEENS5_ISB_EEE12__begin_nodeB8ue170006Ev, symObjAddr: 0x1A620, symBinAddr: 0x10001D514, symSize: 0x14 }
  - { offsetInCU: 0x46A98, offset: 0x46A98, size: 0x8, addend: 0x0, symName: __ZNSt3__121__tree_const_iteratorINS_12__value_typeINS_12basic_stringIcNS_11char_traitsIcEENS_9allocatorIcEEEENS_6vectorIS7_NS5_IS7_EEEEEEPNS_11__tree_nodeISB_PvEElEC1B8ue170006EPNS_15__tree_end_nodeIPNS_16__tree_node_baseISD_EEEE, symObjAddr: 0x1A634, symBinAddr: 0x10001D528, symSize: 0x34 }
  - { offsetInCU: 0x46AD1, offset: 0x46AD1, size: 0x8, addend: 0x0, symName: __ZNSt3__121__tree_const_iteratorINS_12__value_typeINS_12basic_stringIcNS_11char_traitsIcEENS_9allocatorIcEEEENS_6vectorIS7_NS5_IS7_EEEEEEPNS_11__tree_nodeISB_PvEElEC2B8ue170006EPNS_15__tree_end_nodeIPNS_16__tree_node_baseISD_EEEE, symObjAddr: 0x1A668, symBinAddr: 0x10001D55C, symSize: 0x20 }
  - { offsetInCU: 0x46B0A, offset: 0x46B0A, size: 0x8, addend: 0x0, symName: __ZNKSt3__16__treeINS_12__value_typeINS_12basic_stringIcNS_11char_traitsIcEENS_9allocatorIcEEEENS_6vectorIS7_NS5_IS7_EEEEEENS_19__map_value_compareIS7_SB_NS_4lessIS7_EELb1EEENS5_ISB_EEE3endB8ue170006Ev, symObjAddr: 0x1A688, symBinAddr: 0x10001D57C, symSize: 0x34 }
  - { offsetInCU: 0x46B30, offset: 0x46B30, size: 0x8, addend: 0x0, symName: __ZNSt3__16__treeINS_12__value_typeINS_12basic_stringIcNS_11char_traitsIcEENS_9allocatorIcEEEENS_6vectorIS7_NS5_IS7_EEEEEENS_19__map_value_compareIS7_SB_NS_4lessIS7_EELb1EEENS5_ISB_EEED2Ev, symObjAddr: 0x1A6BC, symBinAddr: 0x10001D5B0, symSize: 0x38 }
  - { offsetInCU: 0x46B5C, offset: 0x46B5C, size: 0x8, addend: 0x0, symName: __ZNSt3__16__treeINS_12__value_typeINS_12basic_stringIcNS_11char_traitsIcEENS_9allocatorIcEEEENS_6vectorIS7_NS5_IS7_EEEEEENS_19__map_value_compareIS7_SB_NS_4lessIS7_EELb1EEENS5_ISB_EEE7destroyEPNS_11__tree_nodeISB_PvEE, symObjAddr: 0x1A6F4, symBinAddr: 0x10001D5E8, symSize: 0xA8 }
  - { offsetInCU: 0x46BA8, offset: 0x46BA8, size: 0x8, addend: 0x0, symName: __ZNSt3__13mapINS_12basic_stringIcNS_11char_traitsIcEENS_9allocatorIcEEEENS0_IS6_xNS_4lessIS6_EENS4_INS_4pairIKS6_xEEEEEES8_NS4_INS9_ISA_SD_EEEEEC2B8ue170006ERKSG_, symObjAddr: 0x1A79C, symBinAddr: 0x10001D690, symSize: 0x88 }
  - { offsetInCU: 0x46BE1, offset: 0x46BE1, size: 0x8, addend: 0x0, symName: __ZNSt3__16__treeINS_12__value_typeINS_12basic_stringIcNS_11char_traitsIcEENS_9allocatorIcEEEENS_3mapIS7_xNS_4lessIS7_EENS5_INS_4pairIKS7_xEEEEEEEENS_19__map_value_compareIS7_SG_SA_Lb1EEENS5_ISG_EEEC1ERKSK_, symObjAddr: 0x1A824, symBinAddr: 0x10001D718, symSize: 0x34 }
  - { offsetInCU: 0x46C1C, offset: 0x46C1C, size: 0x8, addend: 0x0, symName: __ZNSt3__13mapINS_12basic_stringIcNS_11char_traitsIcEENS_9allocatorIcEEEENS0_IS6_xNS_4lessIS6_EENS4_INS_4pairIKS6_xEEEEEES8_NS4_INS9_ISA_SD_EEEEE6insertB8ue170006INS_20__map_const_iteratorINS_21__tree_const_iteratorINS_12__value_typeIS6_SD_EEPNS_11__tree_nodeISL_PvEElEEEEEEvT_SS_, symObjAddr: 0x1A858, symBinAddr: 0x10001D74C, symSize: 0x8C }
  - { offsetInCU: 0x46C87, offset: 0x46C87, size: 0x8, addend: 0x0, symName: __ZNKSt3__13mapINS_12basic_stringIcNS_11char_traitsIcEENS_9allocatorIcEEEENS0_IS6_xNS_4lessIS6_EENS4_INS_4pairIKS6_xEEEEEES8_NS4_INS9_ISA_SD_EEEEE5beginB8ue170006Ev, symObjAddr: 0x1A8E4, symBinAddr: 0x10001D7D8, symSize: 0x38 }
  - { offsetInCU: 0x46CAD, offset: 0x46CAD, size: 0x8, addend: 0x0, symName: __ZNKSt3__13mapINS_12basic_stringIcNS_11char_traitsIcEENS_9allocatorIcEEEENS0_IS6_xNS_4lessIS6_EENS4_INS_4pairIKS6_xEEEEEES8_NS4_INS9_ISA_SD_EEEEE3endB8ue170006Ev, symObjAddr: 0x1A91C, symBinAddr: 0x10001D810, symSize: 0x38 }
  - { offsetInCU: 0x46CD3, offset: 0x46CD3, size: 0x8, addend: 0x0, symName: __ZNSt3__16__treeINS_12__value_typeINS_12basic_stringIcNS_11char_traitsIcEENS_9allocatorIcEEEENS_3mapIS7_xNS_4lessIS7_EENS5_INS_4pairIKS7_xEEEEEEEENS_19__map_value_compareIS7_SG_SA_Lb1EEENS5_ISG_EEED1Ev, symObjAddr: 0x1A954, symBinAddr: 0x10001D848, symSize: 0x2C }
  - { offsetInCU: 0x46CFF, offset: 0x46CFF, size: 0x8, addend: 0x0, symName: __ZNSt3__16__treeINS_12__value_typeINS_12basic_stringIcNS_11char_traitsIcEENS_9allocatorIcEEEENS_3mapIS7_xNS_4lessIS7_EENS5_INS_4pairIKS7_xEEEEEEEENS_19__map_value_compareIS7_SG_SA_Lb1EEENS5_ISG_EEEC2ERKSK_, symObjAddr: 0x1A980, symBinAddr: 0x10001D874, symSize: 0x9C }
  - { offsetInCU: 0x46D46, offset: 0x46D46, size: 0x8, addend: 0x0, symName: __ZNSt3__116allocator_traitsINS_9allocatorINS_11__tree_nodeINS_12__value_typeINS_12basic_stringIcNS_11char_traitsIcEENS1_IcEEEENS_3mapIS8_xNS_4lessIS8_EENS1_INS_4pairIKS8_xEEEEEEEEPvEEEEE37select_on_container_copy_constructionB8ue170006ISK_vvEESK_RKSK_, symObjAddr: 0x1AA1C, symBinAddr: 0x10001D910, symSize: 0x10 }
  - { offsetInCU: 0x46D75, offset: 0x46D75, size: 0x8, addend: 0x0, symName: __ZNKSt3__16__treeINS_12__value_typeINS_12basic_stringIcNS_11char_traitsIcEENS_9allocatorIcEEEENS_3mapIS7_xNS_4lessIS7_EENS5_INS_4pairIKS7_xEEEEEEEENS_19__map_value_compareIS7_SG_SA_Lb1EEENS5_ISG_EEE12__node_allocB8ue170006Ev, symObjAddr: 0x1AA2C, symBinAddr: 0x10001D920, symSize: 0x28 }
  - { offsetInCU: 0x46DA1, offset: 0x46DA1, size: 0x8, addend: 0x0, symName: __ZNSt3__117__compressed_pairINS_15__tree_end_nodeIPNS_16__tree_node_baseIPvEEEENS_9allocatorINS_11__tree_nodeINS_12__value_typeINS_12basic_stringIcNS_11char_traitsIcEENS7_IcEEEENS_3mapISE_xNS_4lessISE_EENS7_INS_4pairIKSE_xEEEEEEEES3_EEEEEC1B8ue170006INS_18__default_init_tagESP_EEOT_OT0_, symObjAddr: 0x1AA54, symBinAddr: 0x10001D948, symSize: 0x3C }
  - { offsetInCU: 0x46DF9, offset: 0x46DF9, size: 0x8, addend: 0x0, symName: __ZNKSt3__16__treeINS_12__value_typeINS_12basic_stringIcNS_11char_traitsIcEENS_9allocatorIcEEEENS_3mapIS7_xNS_4lessIS7_EENS5_INS_4pairIKS7_xEEEEEEEENS_19__map_value_compareIS7_SG_SA_Lb1EEENS5_ISG_EEE10value_compB8ue170006Ev, symObjAddr: 0x1AA90, symBinAddr: 0x10001D984, symSize: 0x28 }
  - { offsetInCU: 0x46E1F, offset: 0x46E1F, size: 0x8, addend: 0x0, symName: __ZNSt3__117__compressed_pairImNS_19__map_value_compareINS_12basic_stringIcNS_11char_traitsIcEENS_9allocatorIcEEEENS_12__value_typeIS7_NS_3mapIS7_xNS_4lessIS7_EENS5_INS_4pairIKS7_xEEEEEEEESB_Lb1EEEEC1B8ue170006IiRKSI_EEOT_OT0_, symObjAddr: 0x1AAB8, symBinAddr: 0x10001D9AC, symSize: 0x3C }
  - { offsetInCU: 0x46E77, offset: 0x46E77, size: 0x8, addend: 0x0, symName: __ZNSt3__16__treeINS_12__value_typeINS_12basic_stringIcNS_11char_traitsIcEENS_9allocatorIcEEEENS_3mapIS7_xNS_4lessIS7_EENS5_INS_4pairIKS7_xEEEEEEEENS_19__map_value_compareIS7_SG_SA_Lb1EEENS5_ISG_EEE10__end_nodeB8ue170006Ev, symObjAddr: 0x1AAF4, symBinAddr: 0x10001D9E8, symSize: 0x2C }
  - { offsetInCU: 0x46E9D, offset: 0x46E9D, size: 0x8, addend: 0x0, symName: __ZNSt3__16__treeINS_12__value_typeINS_12basic_stringIcNS_11char_traitsIcEENS_9allocatorIcEEEENS_3mapIS7_xNS_4lessIS7_EENS5_INS_4pairIKS7_xEEEEEEEENS_19__map_value_compareIS7_SG_SA_Lb1EEENS5_ISG_EEE12__begin_nodeB8ue170006Ev, symObjAddr: 0x1AB20, symBinAddr: 0x10001DA14, symSize: 0x14 }
  - { offsetInCU: 0x46EC3, offset: 0x46EC3, size: 0x8, addend: 0x0, symName: __ZNKSt3__117__compressed_pairINS_15__tree_end_nodeIPNS_16__tree_node_baseIPvEEEENS_9allocatorINS_11__tree_nodeINS_12__value_typeINS_12basic_stringIcNS_11char_traitsIcEENS7_IcEEEENS_3mapISE_xNS_4lessISE_EENS7_INS_4pairIKSE_xEEEEEEEES3_EEEEE6secondB8ue170006Ev, symObjAddr: 0x1AB34, symBinAddr: 0x10001DA28, symSize: 0x24 }
  - { offsetInCU: 0x46EE9, offset: 0x46EE9, size: 0x8, addend: 0x0, symName: __ZNKSt3__122__compressed_pair_elemINS_9allocatorINS_11__tree_nodeINS_12__value_typeINS_12basic_stringIcNS_11char_traitsIcEENS1_IcEEEENS_3mapIS8_xNS_4lessIS8_EENS1_INS_4pairIKS8_xEEEEEEEEPvEEEELi1ELb1EE5__getB8ue170006Ev, symObjAddr: 0x1AB58, symBinAddr: 0x10001DA4C, symSize: 0x14 }
  - { offsetInCU: 0x46F0F, offset: 0x46F0F, size: 0x8, addend: 0x0, symName: __ZNSt3__117__compressed_pairINS_15__tree_end_nodeIPNS_16__tree_node_baseIPvEEEENS_9allocatorINS_11__tree_nodeINS_12__value_typeINS_12basic_stringIcNS_11char_traitsIcEENS7_IcEEEENS_3mapISE_xNS_4lessISE_EENS7_INS_4pairIKSE_xEEEEEEEES3_EEEEEC2B8ue170006INS_18__default_init_tagESP_EEOT_OT0_, symObjAddr: 0x1AB6C, symBinAddr: 0x10001DA60, symSize: 0x40 }
  - { offsetInCU: 0x46F67, offset: 0x46F67, size: 0x8, addend: 0x0, symName: __ZNSt3__122__compressed_pair_elemINS_9allocatorINS_11__tree_nodeINS_12__value_typeINS_12basic_stringIcNS_11char_traitsIcEENS1_IcEEEENS_3mapIS8_xNS_4lessIS8_EENS1_INS_4pairIKS8_xEEEEEEEEPvEEEELi1ELb1EEC2B8ue170006ISK_vEEOT_, symObjAddr: 0x1ABAC, symBinAddr: 0x10001DAA0, symSize: 0x18 }
  - { offsetInCU: 0x46FA9, offset: 0x46FA9, size: 0x8, addend: 0x0, symName: __ZNKSt3__117__compressed_pairImNS_19__map_value_compareINS_12basic_stringIcNS_11char_traitsIcEENS_9allocatorIcEEEENS_12__value_typeIS7_NS_3mapIS7_xNS_4lessIS7_EENS5_INS_4pairIKS7_xEEEEEEEESB_Lb1EEEE6secondB8ue170006Ev, symObjAddr: 0x1ABC4, symBinAddr: 0x10001DAB8, symSize: 0x24 }
  - { offsetInCU: 0x46FCF, offset: 0x46FCF, size: 0x8, addend: 0x0, symName: __ZNKSt3__122__compressed_pair_elemINS_19__map_value_compareINS_12basic_stringIcNS_11char_traitsIcEENS_9allocatorIcEEEENS_12__value_typeIS7_NS_3mapIS7_xNS_4lessIS7_EENS5_INS_4pairIKS7_xEEEEEEEESB_Lb1EEELi1ELb1EE5__getB8ue170006Ev, symObjAddr: 0x1ABE8, symBinAddr: 0x10001DADC, symSize: 0x14 }
  - { offsetInCU: 0x46FF5, offset: 0x46FF5, size: 0x8, addend: 0x0, symName: __ZNSt3__117__compressed_pairImNS_19__map_value_compareINS_12basic_stringIcNS_11char_traitsIcEENS_9allocatorIcEEEENS_12__value_typeIS7_NS_3mapIS7_xNS_4lessIS7_EENS5_INS_4pairIKS7_xEEEEEEEESB_Lb1EEEEC2B8ue170006IiRKSI_EEOT_OT0_, symObjAddr: 0x1ABFC, symBinAddr: 0x10001DAF0, symSize: 0x44 }
  - { offsetInCU: 0x4704D, offset: 0x4704D, size: 0x8, addend: 0x0, symName: __ZNSt3__122__compressed_pair_elemINS_19__map_value_compareINS_12basic_stringIcNS_11char_traitsIcEENS_9allocatorIcEEEENS_12__value_typeIS7_NS_3mapIS7_xNS_4lessIS7_EENS5_INS_4pairIKS7_xEEEEEEEESB_Lb1EEELi1ELb1EEC2B8ue170006IRKSI_vEEOT_, symObjAddr: 0x1AC40, symBinAddr: 0x10001DB34, symSize: 0x18 }
  - { offsetInCU: 0x4708F, offset: 0x4708F, size: 0x8, addend: 0x0, symName: __ZNSt3__117__compressed_pairINS_15__tree_end_nodeIPNS_16__tree_node_baseIPvEEEENS_9allocatorINS_11__tree_nodeINS_12__value_typeINS_12basic_stringIcNS_11char_traitsIcEENS7_IcEEEENS_3mapISE_xNS_4lessISE_EENS7_INS_4pairIKSE_xEEEEEEEES3_EEEEE5firstB8ue170006Ev, symObjAddr: 0x1AC58, symBinAddr: 0x10001DB4C, symSize: 0x24 }
  - { offsetInCU: 0x470B5, offset: 0x470B5, size: 0x8, addend: 0x0, symName: __ZNKSt3__13mapINS_12basic_stringIcNS_11char_traitsIcEENS_9allocatorIcEEEENS0_IS6_xNS_4lessIS6_EENS4_INS_4pairIKS6_xEEEEEES8_NS4_INS9_ISA_SD_EEEEE4cendB8ue170006Ev, symObjAddr: 0x1AC7C, symBinAddr: 0x10001DB70, symSize: 0x2C }
  - { offsetInCU: 0x470DB, offset: 0x470DB, size: 0x8, addend: 0x0, symName: __ZNSt3__13mapINS_12basic_stringIcNS_11char_traitsIcEENS_9allocatorIcEEEENS0_IS6_xNS_4lessIS6_EENS4_INS_4pairIKS6_xEEEEEES8_NS4_INS9_ISA_SD_EEEEE6insertB8ue170006ENS_20__map_const_iteratorINS_21__tree_const_iteratorINS_12__value_typeIS6_SD_EEPNS_11__tree_nodeISK_PvEElEEEERKSE_, symObjAddr: 0x1ACD8, symBinAddr: 0x10001DBCC, symSize: 0x50 }
  - { offsetInCU: 0x4711F, offset: 0x4711F, size: 0x8, addend: 0x0, symName: __ZNSt3__120__map_const_iteratorINS_21__tree_const_iteratorINS_12__value_typeINS_12basic_stringIcNS_11char_traitsIcEENS_9allocatorIcEEEENS_3mapIS8_xNS_4lessIS8_EENS6_INS_4pairIKS8_xEEEEEEEEPNS_11__tree_nodeISH_PvEElEEEC1B8ue170006ESM_, symObjAddr: 0x1AD28, symBinAddr: 0x10001DC1C, symSize: 0x34 }
  - { offsetInCU: 0x47158, offset: 0x47158, size: 0x8, addend: 0x0, symName: __ZNKSt3__120__map_const_iteratorINS_21__tree_const_iteratorINS_12__value_typeINS_12basic_stringIcNS_11char_traitsIcEENS_9allocatorIcEEEENS_3mapIS8_xNS_4lessIS8_EENS6_INS_4pairIKS8_xEEEEEEEEPNS_11__tree_nodeISH_PvEElEEEdeB8ue170006Ev, symObjAddr: 0x1AD5C, symBinAddr: 0x10001DC50, symSize: 0x28 }
  - { offsetInCU: 0x4717E, offset: 0x4717E, size: 0x8, addend: 0x0, symName: __ZNSt3__120__map_const_iteratorINS_21__tree_const_iteratorINS_12__value_typeINS_12basic_stringIcNS_11char_traitsIcEENS_9allocatorIcEEEENS_3mapIS8_xNS_4lessIS8_EENS6_INS_4pairIKS8_xEEEEEEEEPNS_11__tree_nodeISH_PvEElEEEppB8ue170006Ev, symObjAddr: 0x1AD84, symBinAddr: 0x10001DC78, symSize: 0x2C }
  - { offsetInCU: 0x471A4, offset: 0x471A4, size: 0x8, addend: 0x0, symName: __ZNSt3__16__treeINS_12__value_typeINS_12basic_stringIcNS_11char_traitsIcEENS_9allocatorIcEEEENS_3mapIS7_xNS_4lessIS7_EENS5_INS_4pairIKS7_xEEEEEEEENS_19__map_value_compareIS7_SG_SA_Lb1EEENS5_ISG_EEE15__insert_uniqueB8ue170006ENS_21__tree_const_iteratorISG_PNS_11__tree_nodeISG_PvEElEERKNSB_ISC_SF_EE, symObjAddr: 0x1AE14, symBinAddr: 0x10001DD08, symSize: 0x64 }
  - { offsetInCU: 0x471E8, offset: 0x471E8, size: 0x8, addend: 0x0, symName: __ZNSt3__114__map_iteratorINS_15__tree_iteratorINS_12__value_typeINS_12basic_stringIcNS_11char_traitsIcEENS_9allocatorIcEEEENS_3mapIS8_xNS_4lessIS8_EENS6_INS_4pairIKS8_xEEEEEEEEPNS_11__tree_nodeISH_PvEElEEEC1B8ue170006ESM_, symObjAddr: 0x1AE78, symBinAddr: 0x10001DD6C, symSize: 0x34 }
  - { offsetInCU: 0x47221, offset: 0x47221, size: 0x8, addend: 0x0, symName: __ZNSt3__16__treeINS_12__value_typeINS_12basic_stringIcNS_11char_traitsIcEENS_9allocatorIcEEEENS_3mapIS7_xNS_4lessIS7_EENS5_INS_4pairIKS7_xEEEEEEEENS_19__map_value_compareIS7_SG_SA_Lb1EEENS5_ISG_EEE30__emplace_hint_unique_key_argsIS7_JRKNSB_ISC_SF_EEEEENSB_INS_15__tree_iteratorISG_PNS_11__tree_nodeISG_PvEElEEbEENS_21__tree_const_iteratorISG_ST_lEERKT_DpOT0_, symObjAddr: 0x1AEAC, symBinAddr: 0x10001DDA0, symSize: 0x104 }
  - { offsetInCU: 0x472ED, offset: 0x472ED, size: 0x8, addend: 0x0, symName: __ZNSt3__122__tree_key_value_typesINS_12__value_typeINS_12basic_stringIcNS_11char_traitsIcEENS_9allocatorIcEEEENS_3mapIS7_xNS_4lessIS7_EENS5_INS_4pairIKS7_xEEEEEEEEE9__get_keyB8ue170006IKNSB_ISC_SF_EEEENS_9enable_ifIXsr17__is_same_uncvrefIT_SJ_EE5valueERSC_E4typeERSM_, symObjAddr: 0x1AFB0, symBinAddr: 0x10001DEA4, symSize: 0x14 }
  - { offsetInCU: 0x4731A, offset: 0x4731A, size: 0x8, addend: 0x0, symName: __ZNSt3__16__treeINS_12__value_typeINS_12basic_stringIcNS_11char_traitsIcEENS_9allocatorIcEEEENS_3mapIS7_xNS_4lessIS7_EENS5_INS_4pairIKS7_xEEEEEEEENS_19__map_value_compareIS7_SG_SA_Lb1EEENS5_ISG_EEE12__find_equalIS7_EERPNS_16__tree_node_baseIPvEENS_21__tree_const_iteratorISG_PNS_11__tree_nodeISG_SN_EElEERPNS_15__tree_end_nodeISP_EESQ_RKT_, symObjAddr: 0x1AFC4, symBinAddr: 0x10001DEB8, symSize: 0x304 }
  - { offsetInCU: 0x473C5, offset: 0x473C5, size: 0x8, addend: 0x0, symName: __ZNSt3__16__treeINS_12__value_typeINS_12basic_stringIcNS_11char_traitsIcEENS_9allocatorIcEEEENS_3mapIS7_xNS_4lessIS7_EENS5_INS_4pairIKS7_xEEEEEEEENS_19__map_value_compareIS7_SG_SA_Lb1EEENS5_ISG_EEE16__construct_nodeIJRKNSB_ISC_SF_EEEEENS_10unique_ptrINS_11__tree_nodeISG_PvEENS_22__tree_node_destructorINS5_ISS_EEEEEEDpOT_, symObjAddr: 0x1B2C8, symBinAddr: 0x10001E1BC, symSize: 0x110 }
  - { offsetInCU: 0x47426, offset: 0x47426, size: 0x8, addend: 0x0, symName: __ZNSt3__16__treeINS_12__value_typeINS_12basic_stringIcNS_11char_traitsIcEENS_9allocatorIcEEEENS_3mapIS7_xNS_4lessIS7_EENS5_INS_4pairIKS7_xEEEEEEEENS_19__map_value_compareIS7_SG_SA_Lb1EEENS5_ISG_EEE16__insert_node_atEPNS_15__tree_end_nodeIPNS_16__tree_node_baseIPvEEEERSP_SP_, symObjAddr: 0x1B3D8, symBinAddr: 0x10001E2CC, symSize: 0xCC }
  - { offsetInCU: 0x4747B, offset: 0x4747B, size: 0x8, addend: 0x0, symName: __ZNKSt3__110unique_ptrINS_11__tree_nodeINS_12__value_typeINS_12basic_stringIcNS_11char_traitsIcEENS_9allocatorIcEEEENS_3mapIS8_xNS_4lessIS8_EENS6_INS_4pairIKS8_xEEEEEEEEPvEENS_22__tree_node_destructorINS6_ISJ_EEEEE3getB8ue170006Ev, symObjAddr: 0x1B4A4, symBinAddr: 0x10001E398, symSize: 0x28 }
  - { offsetInCU: 0x474A1, offset: 0x474A1, size: 0x8, addend: 0x0, symName: __ZNSt3__110unique_ptrINS_11__tree_nodeINS_12__value_typeINS_12basic_stringIcNS_11char_traitsIcEENS_9allocatorIcEEEENS_3mapIS8_xNS_4lessIS8_EENS6_INS_4pairIKS8_xEEEEEEEEPvEENS_22__tree_node_destructorINS6_ISJ_EEEEE7releaseB8ue170006Ev, symObjAddr: 0x1B4CC, symBinAddr: 0x10001E3C0, symSize: 0x44 }
  - { offsetInCU: 0x474D6, offset: 0x474D6, size: 0x8, addend: 0x0, symName: __ZNSt3__110unique_ptrINS_11__tree_nodeINS_12__value_typeINS_12basic_stringIcNS_11char_traitsIcEENS_9allocatorIcEEEENS_3mapIS8_xNS_4lessIS8_EENS6_INS_4pairIKS8_xEEEEEEEEPvEENS_22__tree_node_destructorINS6_ISJ_EEEEED1B8ue170006Ev, symObjAddr: 0x1B510, symBinAddr: 0x10001E404, symSize: 0x2C }
  - { offsetInCU: 0x47500, offset: 0x47500, size: 0x8, addend: 0x0, symName: __ZNSt3__115__tree_iteratorINS_12__value_typeINS_12basic_stringIcNS_11char_traitsIcEENS_9allocatorIcEEEENS_3mapIS7_xNS_4lessIS7_EENS5_INS_4pairIKS7_xEEEEEEEEPNS_11__tree_nodeISG_PvEElEC1B8ue170006ESK_, symObjAddr: 0x1B53C, symBinAddr: 0x10001E430, symSize: 0x34 }
  - { offsetInCU: 0x4753F, offset: 0x4753F, size: 0x8, addend: 0x0, symName: __ZNSt3__14pairINS_15__tree_iteratorINS_12__value_typeINS_12basic_stringIcNS_11char_traitsIcEENS_9allocatorIcEEEENS_3mapIS8_xNS_4lessIS8_EENS6_INS0_IKS8_xEEEEEEEEPNS_11__tree_nodeISG_PvEElEEbEC1B8ue170006ISL_RbLSI_0EEEOT_OT0_, symObjAddr: 0x1B570, symBinAddr: 0x10001E464, symSize: 0x3C }
  - { offsetInCU: 0x4759D, offset: 0x4759D, size: 0x8, addend: 0x0, symName: __ZNSt3__16__treeINS_12__value_typeINS_12basic_stringIcNS_11char_traitsIcEENS_9allocatorIcEEEENS_3mapIS7_xNS_4lessIS7_EENS5_INS_4pairIKS7_xEEEEEEEENS_19__map_value_compareIS7_SG_SA_Lb1EEENS5_ISG_EEE3endB8ue170006Ev, symObjAddr: 0x1B5AC, symBinAddr: 0x10001E4A0, symSize: 0x34 }
  - { offsetInCU: 0x475C3, offset: 0x475C3, size: 0x8, addend: 0x0, symName: __ZNSt3__121__tree_const_iteratorINS_12__value_typeINS_12basic_stringIcNS_11char_traitsIcEENS_9allocatorIcEEEENS_3mapIS7_xNS_4lessIS7_EENS5_INS_4pairIKS7_xEEEEEEEEPNS_11__tree_nodeISG_PvEElEC1B8ue170006ENS_15__tree_iteratorISG_SK_lEE, symObjAddr: 0x1B5E0, symBinAddr: 0x10001E4D4, symSize: 0x34 }
  - { offsetInCU: 0x475FC, offset: 0x475FC, size: 0x8, addend: 0x0, symName: __ZNSt3__16__treeINS_12__value_typeINS_12basic_stringIcNS_11char_traitsIcEENS_9allocatorIcEEEENS_3mapIS7_xNS_4lessIS7_EENS5_INS_4pairIKS7_xEEEEEEEENS_19__map_value_compareIS7_SG_SA_Lb1EEENS5_ISG_EEE10value_compB8ue170006Ev, symObjAddr: 0x1B614, symBinAddr: 0x10001E508, symSize: 0x28 }
  - { offsetInCU: 0x47622, offset: 0x47622, size: 0x8, addend: 0x0, symName: __ZNKSt3__119__map_value_compareINS_12basic_stringIcNS_11char_traitsIcEENS_9allocatorIcEEEENS_12__value_typeIS6_NS_3mapIS6_xNS_4lessIS6_EENS4_INS_4pairIKS6_xEEEEEEEESA_Lb1EEclB8ue170006ERSC_RKSG_, symObjAddr: 0x1B63C, symBinAddr: 0x10001E530, symSize: 0x50 }
  - { offsetInCU: 0x47666, offset: 0x47666, size: 0x8, addend: 0x0, symName: __ZNKSt3__121__tree_const_iteratorINS_12__value_typeINS_12basic_stringIcNS_11char_traitsIcEENS_9allocatorIcEEEENS_3mapIS7_xNS_4lessIS7_EENS5_INS_4pairIKS7_xEEEEEEEEPNS_11__tree_nodeISG_PvEElEdeB8ue170006Ev, symObjAddr: 0x1B68C, symBinAddr: 0x10001E580, symSize: 0x28 }
  - { offsetInCU: 0x4768C, offset: 0x4768C, size: 0x8, addend: 0x0, symName: __ZNSt3__16__treeINS_12__value_typeINS_12basic_stringIcNS_11char_traitsIcEENS_9allocatorIcEEEENS_3mapIS7_xNS_4lessIS7_EENS5_INS_4pairIKS7_xEEEEEEEENS_19__map_value_compareIS7_SG_SA_Lb1EEENS5_ISG_EEE5beginB8ue170006Ev, symObjAddr: 0x1B6B4, symBinAddr: 0x10001E5A8, symSize: 0x34 }
  - { offsetInCU: 0x476B2, offset: 0x476B2, size: 0x8, addend: 0x0, symName: __ZNKSt3__119__map_value_compareINS_12basic_stringIcNS_11char_traitsIcEENS_9allocatorIcEEEENS_12__value_typeIS6_NS_3mapIS6_xNS_4lessIS6_EENS4_INS_4pairIKS6_xEEEEEEEESA_Lb1EEclB8ue170006ERKSG_RSC_, symObjAddr: 0x1B6E8, symBinAddr: 0x10001E5DC, symSize: 0x48 }
  - { offsetInCU: 0x476F6, offset: 0x476F6, size: 0x8, addend: 0x0, symName: __ZNSt3__121__tree_const_iteratorINS_12__value_typeINS_12basic_stringIcNS_11char_traitsIcEENS_9allocatorIcEEEENS_3mapIS7_xNS_4lessIS7_EENS5_INS_4pairIKS7_xEEEEEEEEPNS_11__tree_nodeISG_PvEElEmmB8ue170006Ev, symObjAddr: 0x1B730, symBinAddr: 0x10001E624, symSize: 0x38 }
  - { offsetInCU: 0x4771C, offset: 0x4771C, size: 0x8, addend: 0x0, symName: __ZNSt3__16__treeINS_12__value_typeINS_12basic_stringIcNS_11char_traitsIcEENS_9allocatorIcEEEENS_3mapIS7_xNS_4lessIS7_EENS5_INS_4pairIKS7_xEEEEEEEENS_19__map_value_compareIS7_SG_SA_Lb1EEENS5_ISG_EEE12__find_equalIS7_EERPNS_16__tree_node_baseIPvEERPNS_15__tree_end_nodeISP_EERKT_, symObjAddr: 0x1B768, symBinAddr: 0x10001E65C, symSize: 0x184 }
  - { offsetInCU: 0x47789, offset: 0x47789, size: 0x8, addend: 0x0, symName: __ZNKSt3__121__tree_const_iteratorINS_12__value_typeINS_12basic_stringIcNS_11char_traitsIcEENS_9allocatorIcEEEENS_3mapIS7_xNS_4lessIS7_EENS5_INS_4pairIKS7_xEEEEEEEEPNS_11__tree_nodeISG_PvEElE8__get_npB8ue170006Ev, symObjAddr: 0x1B928, symBinAddr: 0x10001E81C, symSize: 0x18 }
  - { offsetInCU: 0x477AF, offset: 0x477AF, size: 0x8, addend: 0x0, symName: __ZNSt3__115__tree_iteratorINS_12__value_typeINS_12basic_stringIcNS_11char_traitsIcEENS_9allocatorIcEEEENS_3mapIS7_xNS_4lessIS7_EENS5_INS_4pairIKS7_xEEEEEEEEPNS_11__tree_nodeISG_PvEElEC1B8ue170006EPNS_15__tree_end_nodeIPNS_16__tree_node_baseISI_EEEE, symObjAddr: 0x1B940, symBinAddr: 0x10001E834, symSize: 0x34 }
  - { offsetInCU: 0x477E8, offset: 0x477E8, size: 0x8, addend: 0x0, symName: __ZNSt3__115__tree_iteratorINS_12__value_typeINS_12basic_stringIcNS_11char_traitsIcEENS_9allocatorIcEEEENS_3mapIS7_xNS_4lessIS7_EENS5_INS_4pairIKS7_xEEEEEEEEPNS_11__tree_nodeISG_PvEElEC2B8ue170006EPNS_15__tree_end_nodeIPNS_16__tree_node_baseISI_EEEE, symObjAddr: 0x1B974, symBinAddr: 0x10001E868, symSize: 0x20 }
  - { offsetInCU: 0x47821, offset: 0x47821, size: 0x8, addend: 0x0, symName: __ZNSt3__121__tree_const_iteratorINS_12__value_typeINS_12basic_stringIcNS_11char_traitsIcEENS_9allocatorIcEEEENS_3mapIS7_xNS_4lessIS7_EENS5_INS_4pairIKS7_xEEEEEEEEPNS_11__tree_nodeISG_PvEElEC2B8ue170006ENS_15__tree_iteratorISG_SK_lEE, symObjAddr: 0x1B994, symBinAddr: 0x10001E888, symSize: 0x20 }
  - { offsetInCU: 0x4785A, offset: 0x4785A, size: 0x8, addend: 0x0, symName: __ZNSt3__117__compressed_pairImNS_19__map_value_compareINS_12basic_stringIcNS_11char_traitsIcEENS_9allocatorIcEEEENS_12__value_typeIS7_NS_3mapIS7_xNS_4lessIS7_EENS5_INS_4pairIKS7_xEEEEEEEESB_Lb1EEEE6secondB8ue170006Ev, symObjAddr: 0x1B9B4, symBinAddr: 0x10001E8A8, symSize: 0x24 }
  - { offsetInCU: 0x47880, offset: 0x47880, size: 0x8, addend: 0x0, symName: __ZNSt3__122__compressed_pair_elemINS_19__map_value_compareINS_12basic_stringIcNS_11char_traitsIcEENS_9allocatorIcEEEENS_12__value_typeIS7_NS_3mapIS7_xNS_4lessIS7_EENS5_INS_4pairIKS7_xEEEEEEEESB_Lb1EEELi1ELb1EE5__getB8ue170006Ev, symObjAddr: 0x1B9D8, symBinAddr: 0x10001E8CC, symSize: 0x14 }
  - { offsetInCU: 0x478A6, offset: 0x478A6, size: 0x8, addend: 0x0, symName: __ZNKSt3__112__value_typeINS_12basic_stringIcNS_11char_traitsIcEENS_9allocatorIcEEEENS_3mapIS6_xNS_4lessIS6_EENS4_INS_4pairIKS6_xEEEEEEE11__get_valueB8ue170006Ev, symObjAddr: 0x1B9EC, symBinAddr: 0x10001E8E0, symSize: 0x14 }
  - { offsetInCU: 0x478CC, offset: 0x478CC, size: 0x8, addend: 0x0, symName: __ZNKSt3__16__treeINS_12__value_typeINS_12basic_stringIcNS_11char_traitsIcEENS_9allocatorIcEEEENS_3mapIS7_xNS_4lessIS7_EENS5_INS_4pairIKS7_xEEEEEEEENS_19__map_value_compareIS7_SG_SA_Lb1EEENS5_ISG_EEE6__rootB8ue170006Ev, symObjAddr: 0x1BA00, symBinAddr: 0x10001E8F4, symSize: 0x28 }
  - { offsetInCU: 0x478F2, offset: 0x478F2, size: 0x8, addend: 0x0, symName: __ZNKSt3__16__treeINS_12__value_typeINS_12basic_stringIcNS_11char_traitsIcEENS_9allocatorIcEEEENS_3mapIS7_xNS_4lessIS7_EENS5_INS_4pairIKS7_xEEEEEEEENS_19__map_value_compareIS7_SG_SA_Lb1EEENS5_ISG_EEE10__root_ptrB8ue170006Ev, symObjAddr: 0x1BA28, symBinAddr: 0x10001E91C, symSize: 0x24 }
  - { offsetInCU: 0x47918, offset: 0x47918, size: 0x8, addend: 0x0, symName: __ZNKSt3__16__treeINS_12__value_typeINS_12basic_stringIcNS_11char_traitsIcEENS_9allocatorIcEEEENS_3mapIS7_xNS_4lessIS7_EENS5_INS_4pairIKS7_xEEEEEEEENS_19__map_value_compareIS7_SG_SA_Lb1EEENS5_ISG_EEE10__end_nodeB8ue170006Ev, symObjAddr: 0x1BA4C, symBinAddr: 0x10001E940, symSize: 0x2C }
  - { offsetInCU: 0x4793E, offset: 0x4793E, size: 0x8, addend: 0x0, symName: __ZNKSt3__117__compressed_pairINS_15__tree_end_nodeIPNS_16__tree_node_baseIPvEEEENS_9allocatorINS_11__tree_nodeINS_12__value_typeINS_12basic_stringIcNS_11char_traitsIcEENS7_IcEEEENS_3mapISE_xNS_4lessISE_EENS7_INS_4pairIKSE_xEEEEEEEES3_EEEEE5firstB8ue170006Ev, symObjAddr: 0x1BA78, symBinAddr: 0x10001E96C, symSize: 0x24 }
  - { offsetInCU: 0x47964, offset: 0x47964, size: 0x8, addend: 0x0, symName: __ZNSt3__121__tree_const_iteratorINS_12__value_typeINS_12basic_stringIcNS_11char_traitsIcEENS_9allocatorIcEEEENS_3mapIS7_xNS_4lessIS7_EENS5_INS_4pairIKS7_xEEEEEEEEPNS_11__tree_nodeISG_PvEElEppB8ue170006Ev, symObjAddr: 0x1BB78, symBinAddr: 0x10001EA6C, symSize: 0x38 }
  - { offsetInCU: 0x4798A, offset: 0x4798A, size: 0x8, addend: 0x0, symName: __ZNSt3__16__treeINS_12__value_typeINS_12basic_stringIcNS_11char_traitsIcEENS_9allocatorIcEEEENS_3mapIS7_xNS_4lessIS7_EENS5_INS_4pairIKS7_xEEEEEEEENS_19__map_value_compareIS7_SG_SA_Lb1EEENS5_ISG_EEE12__node_allocB8ue170006Ev, symObjAddr: 0x1BBB0, symBinAddr: 0x10001EAA4, symSize: 0x28 }
  - { offsetInCU: 0x479B0, offset: 0x479B0, size: 0x8, addend: 0x0, symName: __ZNSt3__116allocator_traitsINS_9allocatorINS_11__tree_nodeINS_12__value_typeINS_12basic_stringIcNS_11char_traitsIcEENS1_IcEEEENS_3mapIS8_xNS_4lessIS8_EENS1_INS_4pairIKS8_xEEEEEEEEPvEEEEE8allocateB8ue170006ERSK_m, symObjAddr: 0x1BBD8, symBinAddr: 0x10001EACC, symSize: 0x2C }
  - { offsetInCU: 0x479E3, offset: 0x479E3, size: 0x8, addend: 0x0, symName: __ZNSt3__122__tree_node_destructorINS_9allocatorINS_11__tree_nodeINS_12__value_typeINS_12basic_stringIcNS_11char_traitsIcEENS1_IcEEEENS_3mapIS8_xNS_4lessIS8_EENS1_INS_4pairIKS8_xEEEEEEEEPvEEEEEC1B8ue170006ERSK_b, symObjAddr: 0x1BC04, symBinAddr: 0x10001EAF8, symSize: 0x48 }
  - { offsetInCU: 0x47A31, offset: 0x47A31, size: 0x8, addend: 0x0, symName: __ZNSt3__110unique_ptrINS_11__tree_nodeINS_12__value_typeINS_12basic_stringIcNS_11char_traitsIcEENS_9allocatorIcEEEENS_3mapIS8_xNS_4lessIS8_EENS6_INS_4pairIKS8_xEEEEEEEEPvEENS_22__tree_node_destructorINS6_ISJ_EEEEEC1B8ue170006ILb1EvEEPSJ_NS_16__dependent_typeINS_27__unique_ptr_deleter_sfinaeISM_EEXT_EE20__good_rval_ref_typeE, symObjAddr: 0x1BC4C, symBinAddr: 0x10001EB40, symSize: 0x3C }
  - { offsetInCU: 0x47A82, offset: 0x47A82, size: 0x8, addend: 0x0, symName: __ZNSt3__116allocator_traitsINS_9allocatorINS_11__tree_nodeINS_12__value_typeINS_12basic_stringIcNS_11char_traitsIcEENS1_IcEEEENS_3mapIS8_xNS_4lessIS8_EENS1_INS_4pairIKS8_xEEEEEEEEPvEEEEE9constructB8ue170006INSC_ISD_SG_EEJRKSN_EvEEvRSK_PT_DpOT0_, symObjAddr: 0x1BC88, symBinAddr: 0x10001EB7C, symSize: 0x34 }
  - { offsetInCU: 0x47AD9, offset: 0x47AD9, size: 0x8, addend: 0x0, symName: __ZNSt3__122__tree_key_value_typesINS_12__value_typeINS_12basic_stringIcNS_11char_traitsIcEENS_9allocatorIcEEEENS_3mapIS7_xNS_4lessIS7_EENS5_INS_4pairIKS7_xEEEEEEEEE9__get_ptrB8ue170006ERSG_, symObjAddr: 0x1BCBC, symBinAddr: 0x10001EBB0, symSize: 0x24 }
  - { offsetInCU: 0x47AFD, offset: 0x47AFD, size: 0x8, addend: 0x0, symName: __ZNKSt3__110unique_ptrINS_11__tree_nodeINS_12__value_typeINS_12basic_stringIcNS_11char_traitsIcEENS_9allocatorIcEEEENS_3mapIS8_xNS_4lessIS8_EENS6_INS_4pairIKS8_xEEEEEEEEPvEENS_22__tree_node_destructorINS6_ISJ_EEEEEptB8ue170006Ev, symObjAddr: 0x1BCE0, symBinAddr: 0x10001EBD4, symSize: 0x28 }
  - { offsetInCU: 0x47B23, offset: 0x47B23, size: 0x8, addend: 0x0, symName: __ZNSt3__110unique_ptrINS_11__tree_nodeINS_12__value_typeINS_12basic_stringIcNS_11char_traitsIcEENS_9allocatorIcEEEENS_3mapIS8_xNS_4lessIS8_EENS6_INS_4pairIKS8_xEEEEEEEEPvEENS_22__tree_node_destructorINS6_ISJ_EEEEE11get_deleterB8ue170006Ev, symObjAddr: 0x1BD08, symBinAddr: 0x10001EBFC, symSize: 0x24 }
  - { offsetInCU: 0x47B49, offset: 0x47B49, size: 0x8, addend: 0x0, symName: __ZNSt3__117__compressed_pairINS_15__tree_end_nodeIPNS_16__tree_node_baseIPvEEEENS_9allocatorINS_11__tree_nodeINS_12__value_typeINS_12basic_stringIcNS_11char_traitsIcEENS7_IcEEEENS_3mapISE_xNS_4lessISE_EENS7_INS_4pairIKSE_xEEEEEEEES3_EEEEE6secondB8ue170006Ev, symObjAddr: 0x1BD2C, symBinAddr: 0x10001EC20, symSize: 0x24 }
  - { offsetInCU: 0x47B6F, offset: 0x47B6F, size: 0x8, addend: 0x0, symName: __ZNSt3__122__compressed_pair_elemINS_9allocatorINS_11__tree_nodeINS_12__value_typeINS_12basic_stringIcNS_11char_traitsIcEENS1_IcEEEENS_3mapIS8_xNS_4lessIS8_EENS1_INS_4pairIKS8_xEEEEEEEEPvEEEELi1ELb1EE5__getB8ue170006Ev, symObjAddr: 0x1BD50, symBinAddr: 0x10001EC44, symSize: 0x14 }
  - { offsetInCU: 0x47B95, offset: 0x47B95, size: 0x8, addend: 0x0, symName: __ZNSt3__19allocatorINS_11__tree_nodeINS_12__value_typeINS_12basic_stringIcNS_11char_traitsIcEENS0_IcEEEENS_3mapIS7_xNS_4lessIS7_EENS0_INS_4pairIKS7_xEEEEEEEEPvEEE8allocateB8ue170006Em, symObjAddr: 0x1BD64, symBinAddr: 0x10001EC58, symSize: 0x5C }
  - { offsetInCU: 0x47BC9, offset: 0x47BC9, size: 0x8, addend: 0x0, symName: __ZNSt3__116allocator_traitsINS_9allocatorINS_11__tree_nodeINS_12__value_typeINS_12basic_stringIcNS_11char_traitsIcEENS1_IcEEEENS_3mapIS8_xNS_4lessIS8_EENS1_INS_4pairIKS8_xEEEEEEEEPvEEEEE8max_sizeB8ue170006ISK_vEEmRKSK_, symObjAddr: 0x1BDC0, symBinAddr: 0x10001ECB4, symSize: 0x24 }
  - { offsetInCU: 0x47BF7, offset: 0x47BF7, size: 0x8, addend: 0x0, symName: __ZNKSt3__19allocatorINS_11__tree_nodeINS_12__value_typeINS_12basic_stringIcNS_11char_traitsIcEENS0_IcEEEENS_3mapIS7_xNS_4lessIS7_EENS0_INS_4pairIKS7_xEEEEEEEEPvEEE8max_sizeB8ue170006Ev, symObjAddr: 0x1BDE4, symBinAddr: 0x10001ECD8, symSize: 0x18 }
  - { offsetInCU: 0x47C1D, offset: 0x47C1D, size: 0x8, addend: 0x0, symName: __ZNSt3__122__tree_node_destructorINS_9allocatorINS_11__tree_nodeINS_12__value_typeINS_12basic_stringIcNS_11char_traitsIcEENS1_IcEEEENS_3mapIS8_xNS_4lessIS8_EENS1_INS_4pairIKS8_xEEEEEEEEPvEEEEEC2B8ue170006ERSK_b, symObjAddr: 0x1BDFC, symBinAddr: 0x10001ECF0, symSize: 0x38 }
  - { offsetInCU: 0x47C65, offset: 0x47C65, size: 0x8, addend: 0x0, symName: __ZNSt3__110unique_ptrINS_11__tree_nodeINS_12__value_typeINS_12basic_stringIcNS_11char_traitsIcEENS_9allocatorIcEEEENS_3mapIS8_xNS_4lessIS8_EENS6_INS_4pairIKS8_xEEEEEEEEPvEENS_22__tree_node_destructorINS6_ISJ_EEEEEC2B8ue170006ILb1EvEEPSJ_NS_16__dependent_typeINS_27__unique_ptr_deleter_sfinaeISM_EEXT_EE20__good_rval_ref_typeE, symObjAddr: 0x1BE34, symBinAddr: 0x10001ED28, symSize: 0x48 }
  - { offsetInCU: 0x47CB6, offset: 0x47CB6, size: 0x8, addend: 0x0, symName: __ZNSt3__117__compressed_pairIPNS_11__tree_nodeINS_12__value_typeINS_12basic_stringIcNS_11char_traitsIcEENS_9allocatorIcEEEENS_3mapIS8_xNS_4lessIS8_EENS6_INS_4pairIKS8_xEEEEEEEEPvEENS_22__tree_node_destructorINS6_ISJ_EEEEEC1B8ue170006IRSK_SN_EEOT_OT0_, symObjAddr: 0x1BE7C, symBinAddr: 0x10001ED70, symSize: 0x3C }
  - { offsetInCU: 0x47D0E, offset: 0x47D0E, size: 0x8, addend: 0x0, symName: __ZNSt3__117__compressed_pairIPNS_11__tree_nodeINS_12__value_typeINS_12basic_stringIcNS_11char_traitsIcEENS_9allocatorIcEEEENS_3mapIS8_xNS_4lessIS8_EENS6_INS_4pairIKS8_xEEEEEEEEPvEENS_22__tree_node_destructorINS6_ISJ_EEEEEC2B8ue170006IRSK_SN_EEOT_OT0_, symObjAddr: 0x1BEB8, symBinAddr: 0x10001EDAC, symSize: 0x48 }
  - { offsetInCU: 0x47D66, offset: 0x47D66, size: 0x8, addend: 0x0, symName: __ZNSt3__122__compressed_pair_elemIPNS_11__tree_nodeINS_12__value_typeINS_12basic_stringIcNS_11char_traitsIcEENS_9allocatorIcEEEENS_3mapIS8_xNS_4lessIS8_EENS6_INS_4pairIKS8_xEEEEEEEEPvEELi0ELb0EEC2B8ue170006IRSK_vEEOT_, symObjAddr: 0x1BF00, symBinAddr: 0x10001EDF4, symSize: 0x24 }
  - { offsetInCU: 0x47DA8, offset: 0x47DA8, size: 0x8, addend: 0x0, symName: __ZNSt3__122__compressed_pair_elemINS_22__tree_node_destructorINS_9allocatorINS_11__tree_nodeINS_12__value_typeINS_12basic_stringIcNS_11char_traitsIcEENS2_IcEEEENS_3mapIS9_xNS_4lessIS9_EENS2_INS_4pairIKS9_xEEEEEEEEPvEEEEEELi1ELb0EEC2B8ue170006ISM_vEEOT_, symObjAddr: 0x1BF24, symBinAddr: 0x10001EE18, symSize: 0x24 }
  - { offsetInCU: 0x47DEA, offset: 0x47DEA, size: 0x8, addend: 0x0, symName: __ZNSt3__19allocatorINS_11__tree_nodeINS_12__value_typeINS_12basic_stringIcNS_11char_traitsIcEENS0_IcEEEENS_3mapIS7_xNS_4lessIS7_EENS0_INS_4pairIKS7_xEEEEEEEEPvEEE9constructB8ue170006INSB_ISC_SF_EEJRKSL_EEEvPT_DpOT0_, symObjAddr: 0x1BF48, symBinAddr: 0x10001EE3C, symSize: 0x30 }
  - { offsetInCU: 0x47E40, offset: 0x47E40, size: 0x8, addend: 0x0, symName: __ZNSt3__14pairIKNS_12basic_stringIcNS_11char_traitsIcEENS_9allocatorIcEEEENS_3mapIS6_xNS_4lessIS6_EENS4_INS0_IS7_xEEEEEEEC1B8ue170006ERKSE_, symObjAddr: 0x1BF78, symBinAddr: 0x10001EE6C, symSize: 0x34 }
  - { offsetInCU: 0x47E74, offset: 0x47E74, size: 0x8, addend: 0x0, symName: __ZNSt3__14pairIKNS_12basic_stringIcNS_11char_traitsIcEENS_9allocatorIcEEEENS_3mapIS6_xNS_4lessIS6_EENS4_INS0_IS7_xEEEEEEEC2B8ue170006ERKSE_, symObjAddr: 0x1BFAC, symBinAddr: 0x10001EEA0, symSize: 0x70 }
  - { offsetInCU: 0x47EA8, offset: 0x47EA8, size: 0x8, addend: 0x0, symName: __ZNSt3__13mapINS_12basic_stringIcNS_11char_traitsIcEENS_9allocatorIcEEEExNS_4lessIS6_EENS4_INS_4pairIKS6_xEEEEEC1B8ue170006ERKSD_, symObjAddr: 0x1C01C, symBinAddr: 0x10001EF10, symSize: 0x34 }
  - { offsetInCU: 0x47EE1, offset: 0x47EE1, size: 0x8, addend: 0x0, symName: __ZNSt3__13mapINS_12basic_stringIcNS_11char_traitsIcEENS_9allocatorIcEEEExNS_4lessIS6_EENS4_INS_4pairIKS6_xEEEEEC2B8ue170006ERKSD_, symObjAddr: 0x1C050, symBinAddr: 0x10001EF44, symSize: 0x88 }
  - { offsetInCU: 0x47F1A, offset: 0x47F1A, size: 0x8, addend: 0x0, symName: __ZNSt3__16__treeINS_12__value_typeINS_12basic_stringIcNS_11char_traitsIcEENS_9allocatorIcEEEExEENS_19__map_value_compareIS7_S8_NS_4lessIS7_EELb1EEENS5_IS8_EEEC1ERKSE_, symObjAddr: 0x1C0D8, symBinAddr: 0x10001EFCC, symSize: 0x34 }
  - { offsetInCU: 0x47F55, offset: 0x47F55, size: 0x8, addend: 0x0, symName: __ZNSt3__13mapINS_12basic_stringIcNS_11char_traitsIcEENS_9allocatorIcEEEExNS_4lessIS6_EENS4_INS_4pairIKS6_xEEEEE6insertB8ue170006INS_20__map_const_iteratorINS_21__tree_const_iteratorINS_12__value_typeIS6_xEEPNS_11__tree_nodeISI_PvEElEEEEEEvT_SP_, symObjAddr: 0x1C10C, symBinAddr: 0x10001F000, symSize: 0x8C }
  - { offsetInCU: 0x47FC0, offset: 0x47FC0, size: 0x8, addend: 0x0, symName: __ZNKSt3__13mapINS_12basic_stringIcNS_11char_traitsIcEENS_9allocatorIcEEEExNS_4lessIS6_EENS4_INS_4pairIKS6_xEEEEE5beginB8ue170006Ev, symObjAddr: 0x1C198, symBinAddr: 0x10001F08C, symSize: 0x38 }
  - { offsetInCU: 0x47FE6, offset: 0x47FE6, size: 0x8, addend: 0x0, symName: __ZNKSt3__13mapINS_12basic_stringIcNS_11char_traitsIcEENS_9allocatorIcEEEExNS_4lessIS6_EENS4_INS_4pairIKS6_xEEEEE3endB8ue170006Ev, symObjAddr: 0x1C1D0, symBinAddr: 0x10001F0C4, symSize: 0x38 }
  - { offsetInCU: 0x4800C, offset: 0x4800C, size: 0x8, addend: 0x0, symName: __ZNSt3__16__treeINS_12__value_typeINS_12basic_stringIcNS_11char_traitsIcEENS_9allocatorIcEEEExEENS_19__map_value_compareIS7_S8_NS_4lessIS7_EELb1EEENS5_IS8_EEED1Ev, symObjAddr: 0x1C208, symBinAddr: 0x10001F0FC, symSize: 0x2C }
  - { offsetInCU: 0x48038, offset: 0x48038, size: 0x8, addend: 0x0, symName: __ZNSt3__16__treeINS_12__value_typeINS_12basic_stringIcNS_11char_traitsIcEENS_9allocatorIcEEEExEENS_19__map_value_compareIS7_S8_NS_4lessIS7_EELb1EEENS5_IS8_EEEC2ERKSE_, symObjAddr: 0x1C234, symBinAddr: 0x10001F128, symSize: 0x9C }
  - { offsetInCU: 0x4807F, offset: 0x4807F, size: 0x8, addend: 0x0, symName: __ZNSt3__116allocator_traitsINS_9allocatorINS_11__tree_nodeINS_12__value_typeINS_12basic_stringIcNS_11char_traitsIcEENS1_IcEEEExEEPvEEEEE37select_on_container_copy_constructionB8ue170006ISC_vvEESC_RKSC_, symObjAddr: 0x1C2D0, symBinAddr: 0x10001F1C4, symSize: 0x10 }
  - { offsetInCU: 0x480AE, offset: 0x480AE, size: 0x8, addend: 0x0, symName: __ZNKSt3__16__treeINS_12__value_typeINS_12basic_stringIcNS_11char_traitsIcEENS_9allocatorIcEEEExEENS_19__map_value_compareIS7_S8_NS_4lessIS7_EELb1EEENS5_IS8_EEE12__node_allocB8ue170006Ev, symObjAddr: 0x1C2E0, symBinAddr: 0x10001F1D4, symSize: 0x28 }
  - { offsetInCU: 0x480DA, offset: 0x480DA, size: 0x8, addend: 0x0, symName: __ZNSt3__117__compressed_pairINS_15__tree_end_nodeIPNS_16__tree_node_baseIPvEEEENS_9allocatorINS_11__tree_nodeINS_12__value_typeINS_12basic_stringIcNS_11char_traitsIcEENS7_IcEEEExEES3_EEEEEC1B8ue170006INS_18__default_init_tagESH_EEOT_OT0_, symObjAddr: 0x1C308, symBinAddr: 0x10001F1FC, symSize: 0x3C }
  - { offsetInCU: 0x48132, offset: 0x48132, size: 0x8, addend: 0x0, symName: __ZNKSt3__16__treeINS_12__value_typeINS_12basic_stringIcNS_11char_traitsIcEENS_9allocatorIcEEEExEENS_19__map_value_compareIS7_S8_NS_4lessIS7_EELb1EEENS5_IS8_EEE10value_compB8ue170006Ev, symObjAddr: 0x1C344, symBinAddr: 0x10001F238, symSize: 0x28 }
  - { offsetInCU: 0x48158, offset: 0x48158, size: 0x8, addend: 0x0, symName: __ZNSt3__117__compressed_pairImNS_19__map_value_compareINS_12basic_stringIcNS_11char_traitsIcEENS_9allocatorIcEEEENS_12__value_typeIS7_xEENS_4lessIS7_EELb1EEEEC1B8ue170006IiRKSC_EEOT_OT0_, symObjAddr: 0x1C36C, symBinAddr: 0x10001F260, symSize: 0x3C }
  - { offsetInCU: 0x481B0, offset: 0x481B0, size: 0x8, addend: 0x0, symName: __ZNSt3__16__treeINS_12__value_typeINS_12basic_stringIcNS_11char_traitsIcEENS_9allocatorIcEEEExEENS_19__map_value_compareIS7_S8_NS_4lessIS7_EELb1EEENS5_IS8_EEE10__end_nodeB8ue170006Ev, symObjAddr: 0x1C3A8, symBinAddr: 0x10001F29C, symSize: 0x2C }
  - { offsetInCU: 0x481D6, offset: 0x481D6, size: 0x8, addend: 0x0, symName: __ZNSt3__16__treeINS_12__value_typeINS_12basic_stringIcNS_11char_traitsIcEENS_9allocatorIcEEEExEENS_19__map_value_compareIS7_S8_NS_4lessIS7_EELb1EEENS5_IS8_EEE12__begin_nodeB8ue170006Ev, symObjAddr: 0x1C3D4, symBinAddr: 0x10001F2C8, symSize: 0x14 }
  - { offsetInCU: 0x481FC, offset: 0x481FC, size: 0x8, addend: 0x0, symName: __ZNKSt3__117__compressed_pairINS_15__tree_end_nodeIPNS_16__tree_node_baseIPvEEEENS_9allocatorINS_11__tree_nodeINS_12__value_typeINS_12basic_stringIcNS_11char_traitsIcEENS7_IcEEEExEES3_EEEEE6secondB8ue170006Ev, symObjAddr: 0x1C3E8, symBinAddr: 0x10001F2DC, symSize: 0x24 }
  - { offsetInCU: 0x48222, offset: 0x48222, size: 0x8, addend: 0x0, symName: __ZNKSt3__122__compressed_pair_elemINS_9allocatorINS_11__tree_nodeINS_12__value_typeINS_12basic_stringIcNS_11char_traitsIcEENS1_IcEEEExEEPvEEEELi1ELb1EE5__getB8ue170006Ev, symObjAddr: 0x1C40C, symBinAddr: 0x10001F300, symSize: 0x14 }
  - { offsetInCU: 0x48248, offset: 0x48248, size: 0x8, addend: 0x0, symName: __ZNSt3__117__compressed_pairINS_15__tree_end_nodeIPNS_16__tree_node_baseIPvEEEENS_9allocatorINS_11__tree_nodeINS_12__value_typeINS_12basic_stringIcNS_11char_traitsIcEENS7_IcEEEExEES3_EEEEEC2B8ue170006INS_18__default_init_tagESH_EEOT_OT0_, symObjAddr: 0x1C420, symBinAddr: 0x10001F314, symSize: 0x40 }
  - { offsetInCU: 0x482A0, offset: 0x482A0, size: 0x8, addend: 0x0, symName: __ZNSt3__122__compressed_pair_elemINS_9allocatorINS_11__tree_nodeINS_12__value_typeINS_12basic_stringIcNS_11char_traitsIcEENS1_IcEEEExEEPvEEEELi1ELb1EEC2B8ue170006ISC_vEEOT_, symObjAddr: 0x1C460, symBinAddr: 0x10001F354, symSize: 0x18 }
  - { offsetInCU: 0x482E2, offset: 0x482E2, size: 0x8, addend: 0x0, symName: __ZNKSt3__117__compressed_pairImNS_19__map_value_compareINS_12basic_stringIcNS_11char_traitsIcEENS_9allocatorIcEEEENS_12__value_typeIS7_xEENS_4lessIS7_EELb1EEEE6secondB8ue170006Ev, symObjAddr: 0x1C478, symBinAddr: 0x10001F36C, symSize: 0x24 }
  - { offsetInCU: 0x48308, offset: 0x48308, size: 0x8, addend: 0x0, symName: __ZNKSt3__122__compressed_pair_elemINS_19__map_value_compareINS_12basic_stringIcNS_11char_traitsIcEENS_9allocatorIcEEEENS_12__value_typeIS7_xEENS_4lessIS7_EELb1EEELi1ELb1EE5__getB8ue170006Ev, symObjAddr: 0x1C49C, symBinAddr: 0x10001F390, symSize: 0x14 }
  - { offsetInCU: 0x4832E, offset: 0x4832E, size: 0x8, addend: 0x0, symName: __ZNSt3__117__compressed_pairImNS_19__map_value_compareINS_12basic_stringIcNS_11char_traitsIcEENS_9allocatorIcEEEENS_12__value_typeIS7_xEENS_4lessIS7_EELb1EEEEC2B8ue170006IiRKSC_EEOT_OT0_, symObjAddr: 0x1C4B0, symBinAddr: 0x10001F3A4, symSize: 0x44 }
  - { offsetInCU: 0x48386, offset: 0x48386, size: 0x8, addend: 0x0, symName: __ZNSt3__122__compressed_pair_elemINS_19__map_value_compareINS_12basic_stringIcNS_11char_traitsIcEENS_9allocatorIcEEEENS_12__value_typeIS7_xEENS_4lessIS7_EELb1EEELi1ELb1EEC2B8ue170006IRKSC_vEEOT_, symObjAddr: 0x1C4F4, symBinAddr: 0x10001F3E8, symSize: 0x18 }
  - { offsetInCU: 0x483C8, offset: 0x483C8, size: 0x8, addend: 0x0, symName: __ZNSt3__117__compressed_pairINS_15__tree_end_nodeIPNS_16__tree_node_baseIPvEEEENS_9allocatorINS_11__tree_nodeINS_12__value_typeINS_12basic_stringIcNS_11char_traitsIcEENS7_IcEEEExEES3_EEEEE5firstB8ue170006Ev, symObjAddr: 0x1C50C, symBinAddr: 0x10001F400, symSize: 0x24 }
  - { offsetInCU: 0x483EE, offset: 0x483EE, size: 0x8, addend: 0x0, symName: __ZNKSt3__13mapINS_12basic_stringIcNS_11char_traitsIcEENS_9allocatorIcEEEExNS_4lessIS6_EENS4_INS_4pairIKS6_xEEEEE4cendB8ue170006Ev, symObjAddr: 0x1C530, symBinAddr: 0x10001F424, symSize: 0x2C }
  - { offsetInCU: 0x48414, offset: 0x48414, size: 0x8, addend: 0x0, symName: __ZNSt3__13mapINS_12basic_stringIcNS_11char_traitsIcEENS_9allocatorIcEEEExNS_4lessIS6_EENS4_INS_4pairIKS6_xEEEEE6insertB8ue170006ENS_20__map_const_iteratorINS_21__tree_const_iteratorINS_12__value_typeIS6_xEEPNS_11__tree_nodeISH_PvEElEEEERKSB_, symObjAddr: 0x1C58C, symBinAddr: 0x10001F480, symSize: 0x50 }
  - { offsetInCU: 0x48458, offset: 0x48458, size: 0x8, addend: 0x0, symName: __ZNSt3__120__map_const_iteratorINS_21__tree_const_iteratorINS_12__value_typeINS_12basic_stringIcNS_11char_traitsIcEENS_9allocatorIcEEEExEEPNS_11__tree_nodeIS9_PvEElEEEC1B8ue170006ESE_, symObjAddr: 0x1C5DC, symBinAddr: 0x10001F4D0, symSize: 0x34 }
  - { offsetInCU: 0x48491, offset: 0x48491, size: 0x8, addend: 0x0, symName: __ZNKSt3__120__map_const_iteratorINS_21__tree_const_iteratorINS_12__value_typeINS_12basic_stringIcNS_11char_traitsIcEENS_9allocatorIcEEEExEEPNS_11__tree_nodeIS9_PvEElEEEdeB8ue170006Ev, symObjAddr: 0x1C610, symBinAddr: 0x10001F504, symSize: 0x28 }
  - { offsetInCU: 0x484B7, offset: 0x484B7, size: 0x8, addend: 0x0, symName: __ZNSt3__120__map_const_iteratorINS_21__tree_const_iteratorINS_12__value_typeINS_12basic_stringIcNS_11char_traitsIcEENS_9allocatorIcEEEExEEPNS_11__tree_nodeIS9_PvEElEEEppB8ue170006Ev, symObjAddr: 0x1C638, symBinAddr: 0x10001F52C, symSize: 0x2C }
  - { offsetInCU: 0x484DD, offset: 0x484DD, size: 0x8, addend: 0x0, symName: __ZNSt3__16__treeINS_12__value_typeINS_12basic_stringIcNS_11char_traitsIcEENS_9allocatorIcEEEExEENS_19__map_value_compareIS7_S8_NS_4lessIS7_EELb1EEENS5_IS8_EEE15__insert_uniqueB8ue170006ENS_21__tree_const_iteratorIS8_PNS_11__tree_nodeIS8_PvEElEERKNS_4pairIKS7_xEE, symObjAddr: 0x1C6C8, symBinAddr: 0x10001F5BC, symSize: 0x64 }
  - { offsetInCU: 0x48521, offset: 0x48521, size: 0x8, addend: 0x0, symName: __ZNSt3__114__map_iteratorINS_15__tree_iteratorINS_12__value_typeINS_12basic_stringIcNS_11char_traitsIcEENS_9allocatorIcEEEExEEPNS_11__tree_nodeIS9_PvEElEEEC1B8ue170006ESE_, symObjAddr: 0x1C72C, symBinAddr: 0x10001F620, symSize: 0x34 }
  - { offsetInCU: 0x4855A, offset: 0x4855A, size: 0x8, addend: 0x0, symName: __ZNSt3__16__treeINS_12__value_typeINS_12basic_stringIcNS_11char_traitsIcEENS_9allocatorIcEEEExEENS_19__map_value_compareIS7_S8_NS_4lessIS7_EELb1EEENS5_IS8_EEE30__emplace_hint_unique_key_argsIS7_JRKNS_4pairIKS7_xEEEEENSG_INS_15__tree_iteratorIS8_PNS_11__tree_nodeIS8_PvEElEEbEENS_21__tree_const_iteratorIS8_SP_lEERKT_DpOT0_, symObjAddr: 0x1C760, symBinAddr: 0x10001F654, symSize: 0x104 }
  - { offsetInCU: 0x48626, offset: 0x48626, size: 0x8, addend: 0x0, symName: __ZNSt3__122__tree_key_value_typesINS_12__value_typeINS_12basic_stringIcNS_11char_traitsIcEENS_9allocatorIcEEEExEEE9__get_keyB8ue170006IKNS_4pairIKS7_xEEEENS_9enable_ifIXsr17__is_same_uncvrefIT_SD_EE5valueERSC_E4typeERSG_, symObjAddr: 0x1C864, symBinAddr: 0x10001F758, symSize: 0x14 }
  - { offsetInCU: 0x48653, offset: 0x48653, size: 0x8, addend: 0x0, symName: __ZNSt3__16__treeINS_12__value_typeINS_12basic_stringIcNS_11char_traitsIcEENS_9allocatorIcEEEExEENS_19__map_value_compareIS7_S8_NS_4lessIS7_EELb1EEENS5_IS8_EEE12__find_equalIS7_EERPNS_16__tree_node_baseIPvEENS_21__tree_const_iteratorIS8_PNS_11__tree_nodeIS8_SH_EElEERPNS_15__tree_end_nodeISJ_EESK_RKT_, symObjAddr: 0x1C878, symBinAddr: 0x10001F76C, symSize: 0x304 }
  - { offsetInCU: 0x486FE, offset: 0x486FE, size: 0x8, addend: 0x0, symName: __ZNSt3__16__treeINS_12__value_typeINS_12basic_stringIcNS_11char_traitsIcEENS_9allocatorIcEEEExEENS_19__map_value_compareIS7_S8_NS_4lessIS7_EELb1EEENS5_IS8_EEE16__construct_nodeIJRKNS_4pairIKS7_xEEEEENS_10unique_ptrINS_11__tree_nodeIS8_PvEENS_22__tree_node_destructorINS5_ISO_EEEEEEDpOT_, symObjAddr: 0x1CB7C, symBinAddr: 0x10001FA70, symSize: 0x110 }
  - { offsetInCU: 0x4875F, offset: 0x4875F, size: 0x8, addend: 0x0, symName: __ZNSt3__16__treeINS_12__value_typeINS_12basic_stringIcNS_11char_traitsIcEENS_9allocatorIcEEEExEENS_19__map_value_compareIS7_S8_NS_4lessIS7_EELb1EEENS5_IS8_EEE16__insert_node_atEPNS_15__tree_end_nodeIPNS_16__tree_node_baseIPvEEEERSJ_SJ_, symObjAddr: 0x1CC8C, symBinAddr: 0x10001FB80, symSize: 0xCC }
  - { offsetInCU: 0x487B4, offset: 0x487B4, size: 0x8, addend: 0x0, symName: __ZNKSt3__110unique_ptrINS_11__tree_nodeINS_12__value_typeINS_12basic_stringIcNS_11char_traitsIcEENS_9allocatorIcEEEExEEPvEENS_22__tree_node_destructorINS6_ISB_EEEEE3getB8ue170006Ev, symObjAddr: 0x1CD58, symBinAddr: 0x10001FC4C, symSize: 0x28 }
  - { offsetInCU: 0x487DA, offset: 0x487DA, size: 0x8, addend: 0x0, symName: __ZNSt3__110unique_ptrINS_11__tree_nodeINS_12__value_typeINS_12basic_stringIcNS_11char_traitsIcEENS_9allocatorIcEEEExEEPvEENS_22__tree_node_destructorINS6_ISB_EEEEE7releaseB8ue170006Ev, symObjAddr: 0x1CD80, symBinAddr: 0x10001FC74, symSize: 0x44 }
  - { offsetInCU: 0x4880F, offset: 0x4880F, size: 0x8, addend: 0x0, symName: __ZNSt3__110unique_ptrINS_11__tree_nodeINS_12__value_typeINS_12basic_stringIcNS_11char_traitsIcEENS_9allocatorIcEEEExEEPvEENS_22__tree_node_destructorINS6_ISB_EEEEED1B8ue170006Ev, symObjAddr: 0x1CDC4, symBinAddr: 0x10001FCB8, symSize: 0x2C }
  - { offsetInCU: 0x48839, offset: 0x48839, size: 0x8, addend: 0x0, symName: __ZNSt3__115__tree_iteratorINS_12__value_typeINS_12basic_stringIcNS_11char_traitsIcEENS_9allocatorIcEEEExEEPNS_11__tree_nodeIS8_PvEElEC1B8ue170006ESC_, symObjAddr: 0x1CDF0, symBinAddr: 0x10001FCE4, symSize: 0x34 }
  - { offsetInCU: 0x48878, offset: 0x48878, size: 0x8, addend: 0x0, symName: __ZNSt3__14pairINS_15__tree_iteratorINS_12__value_typeINS_12basic_stringIcNS_11char_traitsIcEENS_9allocatorIcEEEExEEPNS_11__tree_nodeIS9_PvEElEEbEC1B8ue170006ISE_RbLSB_0EEEOT_OT0_, symObjAddr: 0x1CE24, symBinAddr: 0x10001FD18, symSize: 0x3C }
  - { offsetInCU: 0x488D6, offset: 0x488D6, size: 0x8, addend: 0x0, symName: __ZNSt3__16__treeINS_12__value_typeINS_12basic_stringIcNS_11char_traitsIcEENS_9allocatorIcEEEExEENS_19__map_value_compareIS7_S8_NS_4lessIS7_EELb1EEENS5_IS8_EEE3endB8ue170006Ev, symObjAddr: 0x1CE60, symBinAddr: 0x10001FD54, symSize: 0x34 }
  - { offsetInCU: 0x488FC, offset: 0x488FC, size: 0x8, addend: 0x0, symName: __ZNSt3__121__tree_const_iteratorINS_12__value_typeINS_12basic_stringIcNS_11char_traitsIcEENS_9allocatorIcEEEExEEPNS_11__tree_nodeIS8_PvEElEC1B8ue170006ENS_15__tree_iteratorIS8_SC_lEE, symObjAddr: 0x1CE94, symBinAddr: 0x10001FD88, symSize: 0x34 }
  - { offsetInCU: 0x48935, offset: 0x48935, size: 0x8, addend: 0x0, symName: __ZNSt3__16__treeINS_12__value_typeINS_12basic_stringIcNS_11char_traitsIcEENS_9allocatorIcEEEExEENS_19__map_value_compareIS7_S8_NS_4lessIS7_EELb1EEENS5_IS8_EEE10value_compB8ue170006Ev, symObjAddr: 0x1CEC8, symBinAddr: 0x10001FDBC, symSize: 0x28 }
  - { offsetInCU: 0x4895B, offset: 0x4895B, size: 0x8, addend: 0x0, symName: __ZNKSt3__119__map_value_compareINS_12basic_stringIcNS_11char_traitsIcEENS_9allocatorIcEEEENS_12__value_typeIS6_xEENS_4lessIS6_EELb1EEclB8ue170006ERKS6_RKS8_, symObjAddr: 0x1CEF0, symBinAddr: 0x10001FDE4, symSize: 0x50 }
  - { offsetInCU: 0x4899F, offset: 0x4899F, size: 0x8, addend: 0x0, symName: __ZNKSt3__121__tree_const_iteratorINS_12__value_typeINS_12basic_stringIcNS_11char_traitsIcEENS_9allocatorIcEEEExEEPNS_11__tree_nodeIS8_PvEElEdeB8ue170006Ev, symObjAddr: 0x1CF40, symBinAddr: 0x10001FE34, symSize: 0x28 }
  - { offsetInCU: 0x489C5, offset: 0x489C5, size: 0x8, addend: 0x0, symName: __ZNSt3__16__treeINS_12__value_typeINS_12basic_stringIcNS_11char_traitsIcEENS_9allocatorIcEEEExEENS_19__map_value_compareIS7_S8_NS_4lessIS7_EELb1EEENS5_IS8_EEE5beginB8ue170006Ev, symObjAddr: 0x1CF68, symBinAddr: 0x10001FE5C, symSize: 0x34 }
  - { offsetInCU: 0x489EB, offset: 0x489EB, size: 0x8, addend: 0x0, symName: __ZNKSt3__119__map_value_compareINS_12basic_stringIcNS_11char_traitsIcEENS_9allocatorIcEEEENS_12__value_typeIS6_xEENS_4lessIS6_EELb1EEclB8ue170006ERKS8_RKS6_, symObjAddr: 0x1CF9C, symBinAddr: 0x10001FE90, symSize: 0x48 }
  - { offsetInCU: 0x48A2F, offset: 0x48A2F, size: 0x8, addend: 0x0, symName: __ZNSt3__121__tree_const_iteratorINS_12__value_typeINS_12basic_stringIcNS_11char_traitsIcEENS_9allocatorIcEEEExEEPNS_11__tree_nodeIS8_PvEElEmmB8ue170006Ev, symObjAddr: 0x1CFE4, symBinAddr: 0x10001FED8, symSize: 0x38 }
  - { offsetInCU: 0x48A55, offset: 0x48A55, size: 0x8, addend: 0x0, symName: __ZNSt3__16__treeINS_12__value_typeINS_12basic_stringIcNS_11char_traitsIcEENS_9allocatorIcEEEExEENS_19__map_value_compareIS7_S8_NS_4lessIS7_EELb1EEENS5_IS8_EEE12__find_equalIS7_EERPNS_16__tree_node_baseIPvEERPNS_15__tree_end_nodeISJ_EERKT_, symObjAddr: 0x1D01C, symBinAddr: 0x10001FF10, symSize: 0x184 }
  - { offsetInCU: 0x48AC2, offset: 0x48AC2, size: 0x8, addend: 0x0, symName: __ZNKSt3__121__tree_const_iteratorINS_12__value_typeINS_12basic_stringIcNS_11char_traitsIcEENS_9allocatorIcEEEExEEPNS_11__tree_nodeIS8_PvEElE8__get_npB8ue170006Ev, symObjAddr: 0x1D1DC, symBinAddr: 0x1000200D0, symSize: 0x18 }
  - { offsetInCU: 0x48AE8, offset: 0x48AE8, size: 0x8, addend: 0x0, symName: __ZNSt3__115__tree_iteratorINS_12__value_typeINS_12basic_stringIcNS_11char_traitsIcEENS_9allocatorIcEEEExEEPNS_11__tree_nodeIS8_PvEElEC1B8ue170006EPNS_15__tree_end_nodeIPNS_16__tree_node_baseISA_EEEE, symObjAddr: 0x1D1F4, symBinAddr: 0x1000200E8, symSize: 0x34 }
  - { offsetInCU: 0x48B21, offset: 0x48B21, size: 0x8, addend: 0x0, symName: __ZNSt3__115__tree_iteratorINS_12__value_typeINS_12basic_stringIcNS_11char_traitsIcEENS_9allocatorIcEEEExEEPNS_11__tree_nodeIS8_PvEElEC2B8ue170006EPNS_15__tree_end_nodeIPNS_16__tree_node_baseISA_EEEE, symObjAddr: 0x1D228, symBinAddr: 0x10002011C, symSize: 0x20 }
  - { offsetInCU: 0x48B5A, offset: 0x48B5A, size: 0x8, addend: 0x0, symName: __ZNSt3__121__tree_const_iteratorINS_12__value_typeINS_12basic_stringIcNS_11char_traitsIcEENS_9allocatorIcEEEExEEPNS_11__tree_nodeIS8_PvEElEC2B8ue170006ENS_15__tree_iteratorIS8_SC_lEE, symObjAddr: 0x1D248, symBinAddr: 0x10002013C, symSize: 0x20 }
  - { offsetInCU: 0x48B93, offset: 0x48B93, size: 0x8, addend: 0x0, symName: __ZNSt3__117__compressed_pairImNS_19__map_value_compareINS_12basic_stringIcNS_11char_traitsIcEENS_9allocatorIcEEEENS_12__value_typeIS7_xEENS_4lessIS7_EELb1EEEE6secondB8ue170006Ev, symObjAddr: 0x1D268, symBinAddr: 0x10002015C, symSize: 0x24 }
  - { offsetInCU: 0x48BB9, offset: 0x48BB9, size: 0x8, addend: 0x0, symName: __ZNSt3__122__compressed_pair_elemINS_19__map_value_compareINS_12basic_stringIcNS_11char_traitsIcEENS_9allocatorIcEEEENS_12__value_typeIS7_xEENS_4lessIS7_EELb1EEELi1ELb1EE5__getB8ue170006Ev, symObjAddr: 0x1D28C, symBinAddr: 0x100020180, symSize: 0x14 }
  - { offsetInCU: 0x48BDF, offset: 0x48BDF, size: 0x8, addend: 0x0, symName: __ZNKSt3__112__value_typeINS_12basic_stringIcNS_11char_traitsIcEENS_9allocatorIcEEEExE11__get_valueB8ue170006Ev, symObjAddr: 0x1D2A0, symBinAddr: 0x100020194, symSize: 0x14 }
  - { offsetInCU: 0x48C05, offset: 0x48C05, size: 0x8, addend: 0x0, symName: __ZNKSt3__16__treeINS_12__value_typeINS_12basic_stringIcNS_11char_traitsIcEENS_9allocatorIcEEEExEENS_19__map_value_compareIS7_S8_NS_4lessIS7_EELb1EEENS5_IS8_EEE6__rootB8ue170006Ev, symObjAddr: 0x1D2B4, symBinAddr: 0x1000201A8, symSize: 0x28 }
  - { offsetInCU: 0x48C2B, offset: 0x48C2B, size: 0x8, addend: 0x0, symName: __ZNKSt3__16__treeINS_12__value_typeINS_12basic_stringIcNS_11char_traitsIcEENS_9allocatorIcEEEExEENS_19__map_value_compareIS7_S8_NS_4lessIS7_EELb1EEENS5_IS8_EEE10__root_ptrB8ue170006Ev, symObjAddr: 0x1D2DC, symBinAddr: 0x1000201D0, symSize: 0x24 }
  - { offsetInCU: 0x48C51, offset: 0x48C51, size: 0x8, addend: 0x0, symName: __ZNKSt3__16__treeINS_12__value_typeINS_12basic_stringIcNS_11char_traitsIcEENS_9allocatorIcEEEExEENS_19__map_value_compareIS7_S8_NS_4lessIS7_EELb1EEENS5_IS8_EEE10__end_nodeB8ue170006Ev, symObjAddr: 0x1D300, symBinAddr: 0x1000201F4, symSize: 0x2C }
  - { offsetInCU: 0x48C77, offset: 0x48C77, size: 0x8, addend: 0x0, symName: __ZNKSt3__117__compressed_pairINS_15__tree_end_nodeIPNS_16__tree_node_baseIPvEEEENS_9allocatorINS_11__tree_nodeINS_12__value_typeINS_12basic_stringIcNS_11char_traitsIcEENS7_IcEEEExEES3_EEEEE5firstB8ue170006Ev, symObjAddr: 0x1D32C, symBinAddr: 0x100020220, symSize: 0x24 }
  - { offsetInCU: 0x48C9D, offset: 0x48C9D, size: 0x8, addend: 0x0, symName: __ZNSt3__121__tree_const_iteratorINS_12__value_typeINS_12basic_stringIcNS_11char_traitsIcEENS_9allocatorIcEEEExEEPNS_11__tree_nodeIS8_PvEElEppB8ue170006Ev, symObjAddr: 0x1D42C, symBinAddr: 0x100020320, symSize: 0x38 }
  - { offsetInCU: 0x48CC3, offset: 0x48CC3, size: 0x8, addend: 0x0, symName: __ZNSt3__16__treeINS_12__value_typeINS_12basic_stringIcNS_11char_traitsIcEENS_9allocatorIcEEEExEENS_19__map_value_compareIS7_S8_NS_4lessIS7_EELb1EEENS5_IS8_EEE12__node_allocB8ue170006Ev, symObjAddr: 0x1D464, symBinAddr: 0x100020358, symSize: 0x28 }
  - { offsetInCU: 0x48CE9, offset: 0x48CE9, size: 0x8, addend: 0x0, symName: __ZNSt3__116allocator_traitsINS_9allocatorINS_11__tree_nodeINS_12__value_typeINS_12basic_stringIcNS_11char_traitsIcEENS1_IcEEEExEEPvEEEEE8allocateB8ue170006ERSC_m, symObjAddr: 0x1D48C, symBinAddr: 0x100020380, symSize: 0x2C }
  - { offsetInCU: 0x48D1C, offset: 0x48D1C, size: 0x8, addend: 0x0, symName: __ZNSt3__122__tree_node_destructorINS_9allocatorINS_11__tree_nodeINS_12__value_typeINS_12basic_stringIcNS_11char_traitsIcEENS1_IcEEEExEEPvEEEEEC1B8ue170006ERSC_b, symObjAddr: 0x1D4B8, symBinAddr: 0x1000203AC, symSize: 0x48 }
  - { offsetInCU: 0x48D6A, offset: 0x48D6A, size: 0x8, addend: 0x0, symName: __ZNSt3__110unique_ptrINS_11__tree_nodeINS_12__value_typeINS_12basic_stringIcNS_11char_traitsIcEENS_9allocatorIcEEEExEEPvEENS_22__tree_node_destructorINS6_ISB_EEEEEC1B8ue170006ILb1EvEEPSB_NS_16__dependent_typeINS_27__unique_ptr_deleter_sfinaeISE_EEXT_EE20__good_rval_ref_typeE, symObjAddr: 0x1D500, symBinAddr: 0x1000203F4, symSize: 0x3C }
  - { offsetInCU: 0x48DBB, offset: 0x48DBB, size: 0x8, addend: 0x0, symName: __ZNSt3__116allocator_traitsINS_9allocatorINS_11__tree_nodeINS_12__value_typeINS_12basic_stringIcNS_11char_traitsIcEENS1_IcEEEExEEPvEEEEE9constructB8ue170006INS_4pairIKS8_xEEJRKSH_EvEEvRSC_PT_DpOT0_, symObjAddr: 0x1D53C, symBinAddr: 0x100020430, symSize: 0x34 }
  - { offsetInCU: 0x48E12, offset: 0x48E12, size: 0x8, addend: 0x0, symName: __ZNSt3__122__tree_key_value_typesINS_12__value_typeINS_12basic_stringIcNS_11char_traitsIcEENS_9allocatorIcEEEExEEE9__get_ptrB8ue170006ERS8_, symObjAddr: 0x1D570, symBinAddr: 0x100020464, symSize: 0x24 }
  - { offsetInCU: 0x48E36, offset: 0x48E36, size: 0x8, addend: 0x0, symName: __ZNKSt3__110unique_ptrINS_11__tree_nodeINS_12__value_typeINS_12basic_stringIcNS_11char_traitsIcEENS_9allocatorIcEEEExEEPvEENS_22__tree_node_destructorINS6_ISB_EEEEEptB8ue170006Ev, symObjAddr: 0x1D594, symBinAddr: 0x100020488, symSize: 0x28 }
  - { offsetInCU: 0x48E5C, offset: 0x48E5C, size: 0x8, addend: 0x0, symName: __ZNSt3__110unique_ptrINS_11__tree_nodeINS_12__value_typeINS_12basic_stringIcNS_11char_traitsIcEENS_9allocatorIcEEEExEEPvEENS_22__tree_node_destructorINS6_ISB_EEEEE11get_deleterB8ue170006Ev, symObjAddr: 0x1D5BC, symBinAddr: 0x1000204B0, symSize: 0x24 }
  - { offsetInCU: 0x48E82, offset: 0x48E82, size: 0x8, addend: 0x0, symName: __ZNSt3__117__compressed_pairINS_15__tree_end_nodeIPNS_16__tree_node_baseIPvEEEENS_9allocatorINS_11__tree_nodeINS_12__value_typeINS_12basic_stringIcNS_11char_traitsIcEENS7_IcEEEExEES3_EEEEE6secondB8ue170006Ev, symObjAddr: 0x1D5E0, symBinAddr: 0x1000204D4, symSize: 0x24 }
  - { offsetInCU: 0x48EA8, offset: 0x48EA8, size: 0x8, addend: 0x0, symName: __ZNSt3__122__compressed_pair_elemINS_9allocatorINS_11__tree_nodeINS_12__value_typeINS_12basic_stringIcNS_11char_traitsIcEENS1_IcEEEExEEPvEEEELi1ELb1EE5__getB8ue170006Ev, symObjAddr: 0x1D604, symBinAddr: 0x1000204F8, symSize: 0x14 }
  - { offsetInCU: 0x48ECE, offset: 0x48ECE, size: 0x8, addend: 0x0, symName: __ZNSt3__19allocatorINS_11__tree_nodeINS_12__value_typeINS_12basic_stringIcNS_11char_traitsIcEENS0_IcEEEExEEPvEEE8allocateB8ue170006Em, symObjAddr: 0x1D618, symBinAddr: 0x10002050C, symSize: 0x58 }
  - { offsetInCU: 0x48F02, offset: 0x48F02, size: 0x8, addend: 0x0, symName: __ZNSt3__116allocator_traitsINS_9allocatorINS_11__tree_nodeINS_12__value_typeINS_12basic_stringIcNS_11char_traitsIcEENS1_IcEEEExEEPvEEEEE8max_sizeB8ue170006ISC_vEEmRKSC_, symObjAddr: 0x1D670, symBinAddr: 0x100020564, symSize: 0x24 }
  - { offsetInCU: 0x48F30, offset: 0x48F30, size: 0x8, addend: 0x0, symName: __ZNKSt3__19allocatorINS_11__tree_nodeINS_12__value_typeINS_12basic_stringIcNS_11char_traitsIcEENS0_IcEEEExEEPvEEE8max_sizeB8ue170006Ev, symObjAddr: 0x1D694, symBinAddr: 0x100020588, symSize: 0x14 }
  - { offsetInCU: 0x48F56, offset: 0x48F56, size: 0x8, addend: 0x0, symName: __ZNSt3__122__tree_node_destructorINS_9allocatorINS_11__tree_nodeINS_12__value_typeINS_12basic_stringIcNS_11char_traitsIcEENS1_IcEEEExEEPvEEEEEC2B8ue170006ERSC_b, symObjAddr: 0x1D6A8, symBinAddr: 0x10002059C, symSize: 0x38 }
  - { offsetInCU: 0x48F9E, offset: 0x48F9E, size: 0x8, addend: 0x0, symName: __ZNSt3__110unique_ptrINS_11__tree_nodeINS_12__value_typeINS_12basic_stringIcNS_11char_traitsIcEENS_9allocatorIcEEEExEEPvEENS_22__tree_node_destructorINS6_ISB_EEEEEC2B8ue170006ILb1EvEEPSB_NS_16__dependent_typeINS_27__unique_ptr_deleter_sfinaeISE_EEXT_EE20__good_rval_ref_typeE, symObjAddr: 0x1D6E0, symBinAddr: 0x1000205D4, symSize: 0x48 }
  - { offsetInCU: 0x48FEF, offset: 0x48FEF, size: 0x8, addend: 0x0, symName: __ZNSt3__117__compressed_pairIPNS_11__tree_nodeINS_12__value_typeINS_12basic_stringIcNS_11char_traitsIcEENS_9allocatorIcEEEExEEPvEENS_22__tree_node_destructorINS6_ISB_EEEEEC1B8ue170006IRSC_SF_EEOT_OT0_, symObjAddr: 0x1D728, symBinAddr: 0x10002061C, symSize: 0x3C }
  - { offsetInCU: 0x49047, offset: 0x49047, size: 0x8, addend: 0x0, symName: __ZNSt3__117__compressed_pairIPNS_11__tree_nodeINS_12__value_typeINS_12basic_stringIcNS_11char_traitsIcEENS_9allocatorIcEEEExEEPvEENS_22__tree_node_destructorINS6_ISB_EEEEEC2B8ue170006IRSC_SF_EEOT_OT0_, symObjAddr: 0x1D764, symBinAddr: 0x100020658, symSize: 0x48 }
  - { offsetInCU: 0x4909F, offset: 0x4909F, size: 0x8, addend: 0x0, symName: __ZNSt3__122__compressed_pair_elemIPNS_11__tree_nodeINS_12__value_typeINS_12basic_stringIcNS_11char_traitsIcEENS_9allocatorIcEEEExEEPvEELi0ELb0EEC2B8ue170006IRSC_vEEOT_, symObjAddr: 0x1D7AC, symBinAddr: 0x1000206A0, symSize: 0x24 }
  - { offsetInCU: 0x490E1, offset: 0x490E1, size: 0x8, addend: 0x0, symName: __ZNSt3__122__compressed_pair_elemINS_22__tree_node_destructorINS_9allocatorINS_11__tree_nodeINS_12__value_typeINS_12basic_stringIcNS_11char_traitsIcEENS2_IcEEEExEEPvEEEEEELi1ELb0EEC2B8ue170006ISE_vEEOT_, symObjAddr: 0x1D7D0, symBinAddr: 0x1000206C4, symSize: 0x24 }
  - { offsetInCU: 0x49123, offset: 0x49123, size: 0x8, addend: 0x0, symName: __ZNSt3__19allocatorINS_11__tree_nodeINS_12__value_typeINS_12basic_stringIcNS_11char_traitsIcEENS0_IcEEEExEEPvEEE9constructB8ue170006INS_4pairIKS7_xEEJRKSF_EEEvPT_DpOT0_, symObjAddr: 0x1D7F4, symBinAddr: 0x1000206E8, symSize: 0x30 }
  - { offsetInCU: 0x49179, offset: 0x49179, size: 0x8, addend: 0x0, symName: __ZNSt3__14pairIKNS_12basic_stringIcNS_11char_traitsIcEENS_9allocatorIcEEEExEC1B8ue170006ERKS8_, symObjAddr: 0x1D824, symBinAddr: 0x100020718, symSize: 0x34 }
  - { offsetInCU: 0x491AD, offset: 0x491AD, size: 0x8, addend: 0x0, symName: __ZNSt3__14pairIKNS_12basic_stringIcNS_11char_traitsIcEENS_9allocatorIcEEEExEC2B8ue170006ERKS8_, symObjAddr: 0x1D858, symBinAddr: 0x10002074C, symSize: 0x40 }
  - { offsetInCU: 0x491E1, offset: 0x491E1, size: 0x8, addend: 0x0, symName: __ZNSt3__112__value_typeINS_12basic_stringIcNS_11char_traitsIcEENS_9allocatorIcEEEExE11__get_valueB8ue170006Ev, symObjAddr: 0x1D898, symBinAddr: 0x10002078C, symSize: 0x14 }
  - { offsetInCU: 0x49207, offset: 0x49207, size: 0x8, addend: 0x0, symName: __ZNKSt3__117__compressed_pairIPNS_11__tree_nodeINS_12__value_typeINS_12basic_stringIcNS_11char_traitsIcEENS_9allocatorIcEEEExEEPvEENS_22__tree_node_destructorINS6_ISB_EEEEE5firstB8ue170006Ev, symObjAddr: 0x1D8AC, symBinAddr: 0x1000207A0, symSize: 0x24 }
  - { offsetInCU: 0x4922D, offset: 0x4922D, size: 0x8, addend: 0x0, symName: __ZNKSt3__122__compressed_pair_elemIPNS_11__tree_nodeINS_12__value_typeINS_12basic_stringIcNS_11char_traitsIcEENS_9allocatorIcEEEExEEPvEELi0ELb0EE5__getB8ue170006Ev, symObjAddr: 0x1D8D0, symBinAddr: 0x1000207C4, symSize: 0x14 }
  - { offsetInCU: 0x49253, offset: 0x49253, size: 0x8, addend: 0x0, symName: __ZNSt3__117__compressed_pairIPNS_11__tree_nodeINS_12__value_typeINS_12basic_stringIcNS_11char_traitsIcEENS_9allocatorIcEEEExEEPvEENS_22__tree_node_destructorINS6_ISB_EEEEE6secondB8ue170006Ev, symObjAddr: 0x1D8E4, symBinAddr: 0x1000207D8, symSize: 0x28 }
  - { offsetInCU: 0x49279, offset: 0x49279, size: 0x8, addend: 0x0, symName: __ZNSt3__122__compressed_pair_elemINS_22__tree_node_destructorINS_9allocatorINS_11__tree_nodeINS_12__value_typeINS_12basic_stringIcNS_11char_traitsIcEENS2_IcEEEExEEPvEEEEEELi1ELb0EE5__getB8ue170006Ev, symObjAddr: 0x1D90C, symBinAddr: 0x100020800, symSize: 0x14 }
  - { offsetInCU: 0x4929F, offset: 0x4929F, size: 0x8, addend: 0x0, symName: __ZNSt3__16__treeINS_12__value_typeINS_12basic_stringIcNS_11char_traitsIcEENS_9allocatorIcEEEExEENS_19__map_value_compareIS7_S8_NS_4lessIS7_EELb1EEENS5_IS8_EEE4sizeB8ue170006Ev, symObjAddr: 0x1D920, symBinAddr: 0x100020814, symSize: 0x28 }
  - { offsetInCU: 0x492C5, offset: 0x492C5, size: 0x8, addend: 0x0, symName: __ZNSt3__117__compressed_pairImNS_19__map_value_compareINS_12basic_stringIcNS_11char_traitsIcEENS_9allocatorIcEEEENS_12__value_typeIS7_xEENS_4lessIS7_EELb1EEEE5firstB8ue170006Ev, symObjAddr: 0x1D948, symBinAddr: 0x10002083C, symSize: 0x24 }
  - { offsetInCU: 0x492EB, offset: 0x492EB, size: 0x8, addend: 0x0, symName: __ZNSt3__117__compressed_pairIPNS_11__tree_nodeINS_12__value_typeINS_12basic_stringIcNS_11char_traitsIcEENS_9allocatorIcEEEExEEPvEENS_22__tree_node_destructorINS6_ISB_EEEEE5firstB8ue170006Ev, symObjAddr: 0x1D96C, symBinAddr: 0x100020860, symSize: 0x24 }
  - { offsetInCU: 0x49311, offset: 0x49311, size: 0x8, addend: 0x0, symName: __ZNSt3__122__compressed_pair_elemIPNS_11__tree_nodeINS_12__value_typeINS_12basic_stringIcNS_11char_traitsIcEENS_9allocatorIcEEEExEEPvEELi0ELb0EE5__getB8ue170006Ev, symObjAddr: 0x1D990, symBinAddr: 0x100020884, symSize: 0x14 }
  - { offsetInCU: 0x49337, offset: 0x49337, size: 0x8, addend: 0x0, symName: __ZNSt3__110unique_ptrINS_11__tree_nodeINS_12__value_typeINS_12basic_stringIcNS_11char_traitsIcEENS_9allocatorIcEEEExEEPvEENS_22__tree_node_destructorINS6_ISB_EEEEED2B8ue170006Ev, symObjAddr: 0x1D9A4, symBinAddr: 0x100020898, symSize: 0x30 }
  - { offsetInCU: 0x49361, offset: 0x49361, size: 0x8, addend: 0x0, symName: __ZNSt3__110unique_ptrINS_11__tree_nodeINS_12__value_typeINS_12basic_stringIcNS_11char_traitsIcEENS_9allocatorIcEEEExEEPvEENS_22__tree_node_destructorINS6_ISB_EEEEE5resetB8ue170006EPSB_, symObjAddr: 0x1D9D4, symBinAddr: 0x1000208C8, symSize: 0x78 }
  - { offsetInCU: 0x493A5, offset: 0x493A5, size: 0x8, addend: 0x0, symName: __ZNSt3__122__tree_node_destructorINS_9allocatorINS_11__tree_nodeINS_12__value_typeINS_12basic_stringIcNS_11char_traitsIcEENS1_IcEEEExEEPvEEEEEclB8ue170006EPSB_, symObjAddr: 0x1DA4C, symBinAddr: 0x100020940, symSize: 0x98 }
  - { offsetInCU: 0x493DA, offset: 0x493DA, size: 0x8, addend: 0x0, symName: __ZNSt3__116allocator_traitsINS_9allocatorINS_11__tree_nodeINS_12__value_typeINS_12basic_stringIcNS_11char_traitsIcEENS1_IcEEEExEEPvEEEEE7destroyB8ue170006INS_4pairIKS8_xEEvvEEvRSC_PT_, symObjAddr: 0x1DAE4, symBinAddr: 0x1000209D8, symSize: 0x28 }
  - { offsetInCU: 0x49414, offset: 0x49414, size: 0x8, addend: 0x0, symName: __ZNSt3__116allocator_traitsINS_9allocatorINS_11__tree_nodeINS_12__value_typeINS_12basic_stringIcNS_11char_traitsIcEENS1_IcEEEExEEPvEEEEE10deallocateB8ue170006ERSC_PSB_m, symObjAddr: 0x1DB0C, symBinAddr: 0x100020A00, symSize: 0x34 }
  - { offsetInCU: 0x49456, offset: 0x49456, size: 0x8, addend: 0x0, symName: __ZNSt3__14pairIKNS_12basic_stringIcNS_11char_traitsIcEENS_9allocatorIcEEEExED1Ev, symObjAddr: 0x1DB40, symBinAddr: 0x100020A34, symSize: 0x2C }
  - { offsetInCU: 0x49482, offset: 0x49482, size: 0x8, addend: 0x0, symName: __ZNSt3__14pairIKNS_12basic_stringIcNS_11char_traitsIcEENS_9allocatorIcEEEExED2Ev, symObjAddr: 0x1DB6C, symBinAddr: 0x100020A60, symSize: 0x2C }
  - { offsetInCU: 0x494AE, offset: 0x494AE, size: 0x8, addend: 0x0, symName: __ZNSt3__19allocatorINS_11__tree_nodeINS_12__value_typeINS_12basic_stringIcNS_11char_traitsIcEENS0_IcEEEExEEPvEEE10deallocateB8ue170006EPSA_m, symObjAddr: 0x1DB98, symBinAddr: 0x100020A8C, symSize: 0x40 }
  - { offsetInCU: 0x494F0, offset: 0x494F0, size: 0x8, addend: 0x0, symName: __ZNSt3__115__tree_iteratorINS_12__value_typeINS_12basic_stringIcNS_11char_traitsIcEENS_9allocatorIcEEEExEEPNS_11__tree_nodeIS8_PvEElEC2B8ue170006ESC_, symObjAddr: 0x1DBD8, symBinAddr: 0x100020ACC, symSize: 0x20 }
  - { offsetInCU: 0x49529, offset: 0x49529, size: 0x8, addend: 0x0, symName: __ZNSt3__14pairINS_15__tree_iteratorINS_12__value_typeINS_12basic_stringIcNS_11char_traitsIcEENS_9allocatorIcEEEExEEPNS_11__tree_nodeIS9_PvEElEEbEC2B8ue170006ISE_RbLSB_0EEEOT_OT0_, symObjAddr: 0x1DBF8, symBinAddr: 0x100020AEC, symSize: 0x38 }
  - { offsetInCU: 0x49587, offset: 0x49587, size: 0x8, addend: 0x0, symName: __ZNSt3__114__map_iteratorINS_15__tree_iteratorINS_12__value_typeINS_12basic_stringIcNS_11char_traitsIcEENS_9allocatorIcEEEExEEPNS_11__tree_nodeIS9_PvEElEEEC2B8ue170006ESE_, symObjAddr: 0x1DC30, symBinAddr: 0x100020B24, symSize: 0x20 }
  - { offsetInCU: 0x495C0, offset: 0x495C0, size: 0x8, addend: 0x0, symName: __ZNSt3__120__map_const_iteratorINS_21__tree_const_iteratorINS_12__value_typeINS_12basic_stringIcNS_11char_traitsIcEENS_9allocatorIcEEEExEEPNS_11__tree_nodeIS9_PvEElEEEC2B8ue170006ESE_, symObjAddr: 0x1DC50, symBinAddr: 0x100020B44, symSize: 0x20 }
  - { offsetInCU: 0x495F9, offset: 0x495F9, size: 0x8, addend: 0x0, symName: __ZNKSt3__121__tree_const_iteratorINS_12__value_typeINS_12basic_stringIcNS_11char_traitsIcEENS_9allocatorIcEEEExEEPNS_11__tree_nodeIS8_PvEElEptB8ue170006Ev, symObjAddr: 0x1DC70, symBinAddr: 0x100020B64, symSize: 0x2C }
  - { offsetInCU: 0x4961F, offset: 0x4961F, size: 0x8, addend: 0x0, symName: __ZNSt3__114pointer_traitsIPKNS_12__value_typeINS_12basic_stringIcNS_11char_traitsIcEENS_9allocatorIcEEEExEEE10pointer_toB8ue170006ERS9_, symObjAddr: 0x1DC9C, symBinAddr: 0x100020B90, symSize: 0x14 }
  - { offsetInCU: 0x49642, offset: 0x49642, size: 0x8, addend: 0x0, symName: __ZNKSt3__16__treeINS_12__value_typeINS_12basic_stringIcNS_11char_traitsIcEENS_9allocatorIcEEEExEENS_19__map_value_compareIS7_S8_NS_4lessIS7_EELb1EEENS5_IS8_EEE5beginB8ue170006Ev, symObjAddr: 0x1DCB0, symBinAddr: 0x100020BA4, symSize: 0x34 }
  - { offsetInCU: 0x49668, offset: 0x49668, size: 0x8, addend: 0x0, symName: __ZNKSt3__16__treeINS_12__value_typeINS_12basic_stringIcNS_11char_traitsIcEENS_9allocatorIcEEEExEENS_19__map_value_compareIS7_S8_NS_4lessIS7_EELb1EEENS5_IS8_EEE12__begin_nodeB8ue170006Ev, symObjAddr: 0x1DCE4, symBinAddr: 0x100020BD8, symSize: 0x14 }
  - { offsetInCU: 0x4968E, offset: 0x4968E, size: 0x8, addend: 0x0, symName: __ZNSt3__121__tree_const_iteratorINS_12__value_typeINS_12basic_stringIcNS_11char_traitsIcEENS_9allocatorIcEEEExEEPNS_11__tree_nodeIS8_PvEElEC1B8ue170006EPNS_15__tree_end_nodeIPNS_16__tree_node_baseISA_EEEE, symObjAddr: 0x1DCF8, symBinAddr: 0x100020BEC, symSize: 0x34 }
  - { offsetInCU: 0x496C7, offset: 0x496C7, size: 0x8, addend: 0x0, symName: __ZNSt3__121__tree_const_iteratorINS_12__value_typeINS_12basic_stringIcNS_11char_traitsIcEENS_9allocatorIcEEEExEEPNS_11__tree_nodeIS8_PvEElEC2B8ue170006EPNS_15__tree_end_nodeIPNS_16__tree_node_baseISA_EEEE, symObjAddr: 0x1DD2C, symBinAddr: 0x100020C20, symSize: 0x20 }
  - { offsetInCU: 0x49700, offset: 0x49700, size: 0x8, addend: 0x0, symName: __ZNKSt3__16__treeINS_12__value_typeINS_12basic_stringIcNS_11char_traitsIcEENS_9allocatorIcEEEExEENS_19__map_value_compareIS7_S8_NS_4lessIS7_EELb1EEENS5_IS8_EEE3endB8ue170006Ev, symObjAddr: 0x1DD4C, symBinAddr: 0x100020C40, symSize: 0x34 }
  - { offsetInCU: 0x49726, offset: 0x49726, size: 0x8, addend: 0x0, symName: __ZNSt3__16__treeINS_12__value_typeINS_12basic_stringIcNS_11char_traitsIcEENS_9allocatorIcEEEExEENS_19__map_value_compareIS7_S8_NS_4lessIS7_EELb1EEENS5_IS8_EEED2Ev, symObjAddr: 0x1DD80, symBinAddr: 0x100020C74, symSize: 0x38 }
  - { offsetInCU: 0x49752, offset: 0x49752, size: 0x8, addend: 0x0, symName: __ZNSt3__16__treeINS_12__value_typeINS_12basic_stringIcNS_11char_traitsIcEENS_9allocatorIcEEEExEENS_19__map_value_compareIS7_S8_NS_4lessIS7_EELb1EEENS5_IS8_EEE7destroyEPNS_11__tree_nodeIS8_PvEE, symObjAddr: 0x1DDB8, symBinAddr: 0x100020CAC, symSize: 0xA8 }
  - { offsetInCU: 0x4979E, offset: 0x4979E, size: 0x8, addend: 0x0, symName: __ZNSt3__112__value_typeINS_12basic_stringIcNS_11char_traitsIcEENS_9allocatorIcEEEENS_3mapIS6_xNS_4lessIS6_EENS4_INS_4pairIKS6_xEEEEEEE11__get_valueB8ue170006Ev, symObjAddr: 0x1DE60, symBinAddr: 0x100020D54, symSize: 0x14 }
  - { offsetInCU: 0x497C4, offset: 0x497C4, size: 0x8, addend: 0x0, symName: __ZNKSt3__117__compressed_pairIPNS_11__tree_nodeINS_12__value_typeINS_12basic_stringIcNS_11char_traitsIcEENS_9allocatorIcEEEENS_3mapIS8_xNS_4lessIS8_EENS6_INS_4pairIKS8_xEEEEEEEEPvEENS_22__tree_node_destructorINS6_ISJ_EEEEE5firstB8ue170006Ev, symObjAddr: 0x1DE74, symBinAddr: 0x100020D68, symSize: 0x24 }
  - { offsetInCU: 0x497EA, offset: 0x497EA, size: 0x8, addend: 0x0, symName: __ZNKSt3__122__compressed_pair_elemIPNS_11__tree_nodeINS_12__value_typeINS_12basic_stringIcNS_11char_traitsIcEENS_9allocatorIcEEEENS_3mapIS8_xNS_4lessIS8_EENS6_INS_4pairIKS8_xEEEEEEEEPvEELi0ELb0EE5__getB8ue170006Ev, symObjAddr: 0x1DE98, symBinAddr: 0x100020D8C, symSize: 0x14 }
  - { offsetInCU: 0x49810, offset: 0x49810, size: 0x8, addend: 0x0, symName: __ZNSt3__117__compressed_pairIPNS_11__tree_nodeINS_12__value_typeINS_12basic_stringIcNS_11char_traitsIcEENS_9allocatorIcEEEENS_3mapIS8_xNS_4lessIS8_EENS6_INS_4pairIKS8_xEEEEEEEEPvEENS_22__tree_node_destructorINS6_ISJ_EEEEE6secondB8ue170006Ev, symObjAddr: 0x1DEAC, symBinAddr: 0x100020DA0, symSize: 0x28 }
  - { offsetInCU: 0x49836, offset: 0x49836, size: 0x8, addend: 0x0, symName: __ZNSt3__122__compressed_pair_elemINS_22__tree_node_destructorINS_9allocatorINS_11__tree_nodeINS_12__value_typeINS_12basic_stringIcNS_11char_traitsIcEENS2_IcEEEENS_3mapIS9_xNS_4lessIS9_EENS2_INS_4pairIKS9_xEEEEEEEEPvEEEEEELi1ELb0EE5__getB8ue170006Ev, symObjAddr: 0x1DED4, symBinAddr: 0x100020DC8, symSize: 0x14 }
  - { offsetInCU: 0x4985C, offset: 0x4985C, size: 0x8, addend: 0x0, symName: __ZNSt3__16__treeINS_12__value_typeINS_12basic_stringIcNS_11char_traitsIcEENS_9allocatorIcEEEENS_3mapIS7_xNS_4lessIS7_EENS5_INS_4pairIKS7_xEEEEEEEENS_19__map_value_compareIS7_SG_SA_Lb1EEENS5_ISG_EEE4sizeB8ue170006Ev, symObjAddr: 0x1DEE8, symBinAddr: 0x100020DDC, symSize: 0x28 }
  - { offsetInCU: 0x49882, offset: 0x49882, size: 0x8, addend: 0x0, symName: __ZNSt3__117__compressed_pairImNS_19__map_value_compareINS_12basic_stringIcNS_11char_traitsIcEENS_9allocatorIcEEEENS_12__value_typeIS7_NS_3mapIS7_xNS_4lessIS7_EENS5_INS_4pairIKS7_xEEEEEEEESB_Lb1EEEE5firstB8ue170006Ev, symObjAddr: 0x1DF10, symBinAddr: 0x100020E04, symSize: 0x24 }
  - { offsetInCU: 0x498A8, offset: 0x498A8, size: 0x8, addend: 0x0, symName: __ZNSt3__117__compressed_pairIPNS_11__tree_nodeINS_12__value_typeINS_12basic_stringIcNS_11char_traitsIcEENS_9allocatorIcEEEENS_3mapIS8_xNS_4lessIS8_EENS6_INS_4pairIKS8_xEEEEEEEEPvEENS_22__tree_node_destructorINS6_ISJ_EEEEE5firstB8ue170006Ev, symObjAddr: 0x1DF34, symBinAddr: 0x100020E28, symSize: 0x24 }
  - { offsetInCU: 0x498CE, offset: 0x498CE, size: 0x8, addend: 0x0, symName: __ZNSt3__122__compressed_pair_elemIPNS_11__tree_nodeINS_12__value_typeINS_12basic_stringIcNS_11char_traitsIcEENS_9allocatorIcEEEENS_3mapIS8_xNS_4lessIS8_EENS6_INS_4pairIKS8_xEEEEEEEEPvEELi0ELb0EE5__getB8ue170006Ev, symObjAddr: 0x1DF58, symBinAddr: 0x100020E4C, symSize: 0x14 }
  - { offsetInCU: 0x498F4, offset: 0x498F4, size: 0x8, addend: 0x0, symName: __ZNSt3__110unique_ptrINS_11__tree_nodeINS_12__value_typeINS_12basic_stringIcNS_11char_traitsIcEENS_9allocatorIcEEEENS_3mapIS8_xNS_4lessIS8_EENS6_INS_4pairIKS8_xEEEEEEEEPvEENS_22__tree_node_destructorINS6_ISJ_EEEEED2B8ue170006Ev, symObjAddr: 0x1DF6C, symBinAddr: 0x100020E60, symSize: 0x30 }
  - { offsetInCU: 0x4991E, offset: 0x4991E, size: 0x8, addend: 0x0, symName: __ZNSt3__110unique_ptrINS_11__tree_nodeINS_12__value_typeINS_12basic_stringIcNS_11char_traitsIcEENS_9allocatorIcEEEENS_3mapIS8_xNS_4lessIS8_EENS6_INS_4pairIKS8_xEEEEEEEEPvEENS_22__tree_node_destructorINS6_ISJ_EEEEE5resetB8ue170006EPSJ_, symObjAddr: 0x1DF9C, symBinAddr: 0x100020E90, symSize: 0x78 }
  - { offsetInCU: 0x49962, offset: 0x49962, size: 0x8, addend: 0x0, symName: __ZNSt3__122__tree_node_destructorINS_9allocatorINS_11__tree_nodeINS_12__value_typeINS_12basic_stringIcNS_11char_traitsIcEENS1_IcEEEENS_3mapIS8_xNS_4lessIS8_EENS1_INS_4pairIKS8_xEEEEEEEEPvEEEEEclB8ue170006EPSJ_, symObjAddr: 0x1E014, symBinAddr: 0x100020F08, symSize: 0x98 }
  - { offsetInCU: 0x49997, offset: 0x49997, size: 0x8, addend: 0x0, symName: __ZNSt3__116allocator_traitsINS_9allocatorINS_11__tree_nodeINS_12__value_typeINS_12basic_stringIcNS_11char_traitsIcEENS1_IcEEEENS_3mapIS8_xNS_4lessIS8_EENS1_INS_4pairIKS8_xEEEEEEEEPvEEEEE7destroyB8ue170006INSC_ISD_SG_EEvvEEvRSK_PT_, symObjAddr: 0x1E0AC, symBinAddr: 0x100020FA0, symSize: 0x28 }
  - { offsetInCU: 0x499D1, offset: 0x499D1, size: 0x8, addend: 0x0, symName: __ZNSt3__116allocator_traitsINS_9allocatorINS_11__tree_nodeINS_12__value_typeINS_12basic_stringIcNS_11char_traitsIcEENS1_IcEEEENS_3mapIS8_xNS_4lessIS8_EENS1_INS_4pairIKS8_xEEEEEEEEPvEEEEE10deallocateB8ue170006ERSK_PSJ_m, symObjAddr: 0x1E0D4, symBinAddr: 0x100020FC8, symSize: 0x34 }
  - { offsetInCU: 0x49A13, offset: 0x49A13, size: 0x8, addend: 0x0, symName: __ZNSt3__14pairIKNS_12basic_stringIcNS_11char_traitsIcEENS_9allocatorIcEEEENS_3mapIS6_xNS_4lessIS6_EENS4_INS0_IS7_xEEEEEEED1Ev, symObjAddr: 0x1E108, symBinAddr: 0x100020FFC, symSize: 0x2C }
  - { offsetInCU: 0x49A3F, offset: 0x49A3F, size: 0x8, addend: 0x0, symName: __ZNSt3__14pairIKNS_12basic_stringIcNS_11char_traitsIcEENS_9allocatorIcEEEENS_3mapIS6_xNS_4lessIS6_EENS4_INS0_IS7_xEEEEEEED2Ev, symObjAddr: 0x1E134, symBinAddr: 0x100021028, symSize: 0x38 }
  - { offsetInCU: 0x49A6B, offset: 0x49A6B, size: 0x8, addend: 0x0, symName: __ZNSt3__13mapINS_12basic_stringIcNS_11char_traitsIcEENS_9allocatorIcEEEExNS_4lessIS6_EENS4_INS_4pairIKS6_xEEEEED1B8ue170006Ev, symObjAddr: 0x1E16C, symBinAddr: 0x100021060, symSize: 0x2C }
  - { offsetInCU: 0x49A95, offset: 0x49A95, size: 0x8, addend: 0x0, symName: __ZNSt3__13mapINS_12basic_stringIcNS_11char_traitsIcEENS_9allocatorIcEEEExNS_4lessIS6_EENS4_INS_4pairIKS6_xEEEEED2B8ue170006Ev, symObjAddr: 0x1E198, symBinAddr: 0x10002108C, symSize: 0x2C }
  - { offsetInCU: 0x49ABF, offset: 0x49ABF, size: 0x8, addend: 0x0, symName: __ZNSt3__19allocatorINS_11__tree_nodeINS_12__value_typeINS_12basic_stringIcNS_11char_traitsIcEENS0_IcEEEENS_3mapIS7_xNS_4lessIS7_EENS0_INS_4pairIKS7_xEEEEEEEEPvEEE10deallocateB8ue170006EPSI_m, symObjAddr: 0x1E1C4, symBinAddr: 0x1000210B8, symSize: 0x44 }
  - { offsetInCU: 0x49B01, offset: 0x49B01, size: 0x8, addend: 0x0, symName: __ZNSt3__115__tree_iteratorINS_12__value_typeINS_12basic_stringIcNS_11char_traitsIcEENS_9allocatorIcEEEENS_3mapIS7_xNS_4lessIS7_EENS5_INS_4pairIKS7_xEEEEEEEEPNS_11__tree_nodeISG_PvEElEC2B8ue170006ESK_, symObjAddr: 0x1E208, symBinAddr: 0x1000210FC, symSize: 0x20 }
  - { offsetInCU: 0x49B3A, offset: 0x49B3A, size: 0x8, addend: 0x0, symName: __ZNSt3__14pairINS_15__tree_iteratorINS_12__value_typeINS_12basic_stringIcNS_11char_traitsIcEENS_9allocatorIcEEEENS_3mapIS8_xNS_4lessIS8_EENS6_INS0_IKS8_xEEEEEEEEPNS_11__tree_nodeISG_PvEElEEbEC2B8ue170006ISL_RbLSI_0EEEOT_OT0_, symObjAddr: 0x1E228, symBinAddr: 0x10002111C, symSize: 0x38 }
  - { offsetInCU: 0x49B98, offset: 0x49B98, size: 0x8, addend: 0x0, symName: __ZNSt3__114__map_iteratorINS_15__tree_iteratorINS_12__value_typeINS_12basic_stringIcNS_11char_traitsIcEENS_9allocatorIcEEEENS_3mapIS8_xNS_4lessIS8_EENS6_INS_4pairIKS8_xEEEEEEEEPNS_11__tree_nodeISH_PvEElEEEC2B8ue170006ESM_, symObjAddr: 0x1E260, symBinAddr: 0x100021154, symSize: 0x20 }
  - { offsetInCU: 0x49BD1, offset: 0x49BD1, size: 0x8, addend: 0x0, symName: __ZNSt3__120__map_const_iteratorINS_21__tree_const_iteratorINS_12__value_typeINS_12basic_stringIcNS_11char_traitsIcEENS_9allocatorIcEEEENS_3mapIS8_xNS_4lessIS8_EENS6_INS_4pairIKS8_xEEEEEEEEPNS_11__tree_nodeISH_PvEElEEEC2B8ue170006ESM_, symObjAddr: 0x1E280, symBinAddr: 0x100021174, symSize: 0x20 }
  - { offsetInCU: 0x49C0A, offset: 0x49C0A, size: 0x8, addend: 0x0, symName: __ZNKSt3__121__tree_const_iteratorINS_12__value_typeINS_12basic_stringIcNS_11char_traitsIcEENS_9allocatorIcEEEENS_3mapIS7_xNS_4lessIS7_EENS5_INS_4pairIKS7_xEEEEEEEEPNS_11__tree_nodeISG_PvEElEptB8ue170006Ev, symObjAddr: 0x1E2A0, symBinAddr: 0x100021194, symSize: 0x2C }
  - { offsetInCU: 0x49C30, offset: 0x49C30, size: 0x8, addend: 0x0, symName: __ZNSt3__114pointer_traitsIPKNS_12__value_typeINS_12basic_stringIcNS_11char_traitsIcEENS_9allocatorIcEEEENS_3mapIS7_xNS_4lessIS7_EENS5_INS_4pairIKS7_xEEEEEEEEE10pointer_toB8ue170006ERSH_, symObjAddr: 0x1E2CC, symBinAddr: 0x1000211C0, symSize: 0x14 }
  - { offsetInCU: 0x49C53, offset: 0x49C53, size: 0x8, addend: 0x0, symName: __ZNKSt3__16__treeINS_12__value_typeINS_12basic_stringIcNS_11char_traitsIcEENS_9allocatorIcEEEENS_3mapIS7_xNS_4lessIS7_EENS5_INS_4pairIKS7_xEEEEEEEENS_19__map_value_compareIS7_SG_SA_Lb1EEENS5_ISG_EEE5beginB8ue170006Ev, symObjAddr: 0x1E2E0, symBinAddr: 0x1000211D4, symSize: 0x34 }
  - { offsetInCU: 0x49C79, offset: 0x49C79, size: 0x8, addend: 0x0, symName: __ZNKSt3__16__treeINS_12__value_typeINS_12basic_stringIcNS_11char_traitsIcEENS_9allocatorIcEEEENS_3mapIS7_xNS_4lessIS7_EENS5_INS_4pairIKS7_xEEEEEEEENS_19__map_value_compareIS7_SG_SA_Lb1EEENS5_ISG_EEE12__begin_nodeB8ue170006Ev, symObjAddr: 0x1E314, symBinAddr: 0x100021208, symSize: 0x14 }
  - { offsetInCU: 0x49C9F, offset: 0x49C9F, size: 0x8, addend: 0x0, symName: __ZNSt3__121__tree_const_iteratorINS_12__value_typeINS_12basic_stringIcNS_11char_traitsIcEENS_9allocatorIcEEEENS_3mapIS7_xNS_4lessIS7_EENS5_INS_4pairIKS7_xEEEEEEEEPNS_11__tree_nodeISG_PvEElEC1B8ue170006EPNS_15__tree_end_nodeIPNS_16__tree_node_baseISI_EEEE, symObjAddr: 0x1E328, symBinAddr: 0x10002121C, symSize: 0x34 }
  - { offsetInCU: 0x49CD8, offset: 0x49CD8, size: 0x8, addend: 0x0, symName: __ZNSt3__121__tree_const_iteratorINS_12__value_typeINS_12basic_stringIcNS_11char_traitsIcEENS_9allocatorIcEEEENS_3mapIS7_xNS_4lessIS7_EENS5_INS_4pairIKS7_xEEEEEEEEPNS_11__tree_nodeISG_PvEElEC2B8ue170006EPNS_15__tree_end_nodeIPNS_16__tree_node_baseISI_EEEE, symObjAddr: 0x1E35C, symBinAddr: 0x100021250, symSize: 0x20 }
  - { offsetInCU: 0x49D11, offset: 0x49D11, size: 0x8, addend: 0x0, symName: __ZNKSt3__16__treeINS_12__value_typeINS_12basic_stringIcNS_11char_traitsIcEENS_9allocatorIcEEEENS_3mapIS7_xNS_4lessIS7_EENS5_INS_4pairIKS7_xEEEEEEEENS_19__map_value_compareIS7_SG_SA_Lb1EEENS5_ISG_EEE3endB8ue170006Ev, symObjAddr: 0x1E37C, symBinAddr: 0x100021270, symSize: 0x34 }
  - { offsetInCU: 0x49D37, offset: 0x49D37, size: 0x8, addend: 0x0, symName: __ZNSt3__16__treeINS_12__value_typeINS_12basic_stringIcNS_11char_traitsIcEENS_9allocatorIcEEEENS_3mapIS7_xNS_4lessIS7_EENS5_INS_4pairIKS7_xEEEEEEEENS_19__map_value_compareIS7_SG_SA_Lb1EEENS5_ISG_EEED2Ev, symObjAddr: 0x1E3B0, symBinAddr: 0x1000212A4, symSize: 0x38 }
  - { offsetInCU: 0x49D63, offset: 0x49D63, size: 0x8, addend: 0x0, symName: __ZNSt3__16__treeINS_12__value_typeINS_12basic_stringIcNS_11char_traitsIcEENS_9allocatorIcEEEENS_3mapIS7_xNS_4lessIS7_EENS5_INS_4pairIKS7_xEEEEEEEENS_19__map_value_compareIS7_SG_SA_Lb1EEENS5_ISG_EEE7destroyEPNS_11__tree_nodeISG_PvEE, symObjAddr: 0x1E3E8, symBinAddr: 0x1000212DC, symSize: 0xA8 }
  - { offsetInCU: 0x49DAF, offset: 0x49DAF, size: 0x8, addend: 0x0, symName: __ZNSt3__13mapINS_12basic_stringIcNS_11char_traitsIcEENS_9allocatorIcEEEENS0_IS6_xNS_4lessIS6_EENS4_INS_4pairIKS6_xEEEEEES8_NS4_INS9_ISA_SD_EEEEED2B8ue170006Ev, symObjAddr: 0x1E490, symBinAddr: 0x100021384, symSize: 0x2C }
  - { offsetInCU: 0x49DD9, offset: 0x49DD9, size: 0x8, addend: 0x0, symName: __ZNSt3__13mapINS_12basic_stringIcNS_11char_traitsIcEENS_9allocatorIcEEEENS_6vectorIS6_NS4_IS6_EEEENS_4lessIS6_EENS4_INS_4pairIKS6_S9_EEEEED2B8ue170006Ev, symObjAddr: 0x1E4BC, symBinAddr: 0x1000213B0, symSize: 0x2C }
  - { offsetInCU: 0x49E03, offset: 0x49E03, size: 0x8, addend: 0x0, symName: __ZNSt3__13mapINS_12basic_stringIcNS_11char_traitsIcEENS_9allocatorIcEEEE7MonomerNS_4lessIS6_EENS4_INS_4pairIKS6_S7_EEEEED2B8ue170006Ev, symObjAddr: 0x1E4E8, symBinAddr: 0x1000213DC, symSize: 0x2C }
  - { offsetInCU: 0x49E2D, offset: 0x49E2D, size: 0x8, addend: 0x0, symName: __ZNSt3__16chrono8durationIdNS_5ratioILl1ELl1EEEEC2B8ue170006IxNS2_ILl1ELl1000000000EEEEERKNS1_IT_T0_EEPNS_9enable_ifIXaasr13__no_overflowIS8_S3_EE5valueooL_ZNS_17integral_constantIbLb1EE5valueEEaaeqsr13__no_overflowIS8_S3_E4typeE3denLi1Entsr23treat_as_floating_pointIS7_EE5valueEvE4typeE, symObjAddr: 0x1E514, symBinAddr: 0x100021408, symSize: 0x48 }
  - { offsetInCU: 0x49E83, offset: 0x49E83, size: 0x8, addend: 0x0, symName: __ZNKSt3__16chrono8durationIxNS_5ratioILl1ELl1000000000EEEE5countB8ue170006Ev, symObjAddr: 0x1E5DC, symBinAddr: 0x1000214D0, symSize: 0x18 }
  - { offsetInCU: 0x49EA9, offset: 0x49EA9, size: 0x8, addend: 0x0, symName: __ZNSt3__16chrono8durationIdNS_5ratioILl1ELl1EEEEC1B8ue170006IdEERKT_PNS_9enable_ifIXaasr14is_convertibleIS8_dEE5valueooL_ZNS_17integral_constantIbLb1EE5valueEEntsr23treat_as_floating_pointIS6_EE5valueEvE4typeE, symObjAddr: 0x1E5F4, symBinAddr: 0x1000214E8, symSize: 0x3C }
  - { offsetInCU: 0x49EF5, offset: 0x49EF5, size: 0x8, addend: 0x0, symName: __ZNSt3__16chrono8durationIdNS_5ratioILl1ELl1EEEEC2B8ue170006IdEERKT_PNS_9enable_ifIXaasr14is_convertibleIS8_dEE5valueooL_ZNS_17integral_constantIbLb1EE5valueEEntsr23treat_as_floating_pointIS6_EE5valueEvE4typeE, symObjAddr: 0x1E630, symBinAddr: 0x100021524, symSize: 0x28 }
  - { offsetInCU: 0x49F41, offset: 0x49F41, size: 0x8, addend: 0x0, symName: __ZN8ReactionC2ERKS_, symObjAddr: 0x1E658, symBinAddr: 0x10002154C, symSize: 0x204 }
  - { offsetInCU: 0x49F76, offset: 0x49F76, size: 0x8, addend: 0x0, symName: __ZN21chosenReactionChannelC2ERKS_, symObjAddr: 0x1E85C, symBinAddr: 0x100021750, symSize: 0x90 }
  - { offsetInCU: 0x49FAB, offset: 0x49FAB, size: 0x8, addend: 0x0, symName: __ZN8ReactionD2Ev, symObjAddr: 0x1E8EC, symBinAddr: 0x1000217E0, symSize: 0x8C }
  - { offsetInCU: 0x49FD7, offset: 0x49FD7, size: 0x8, addend: 0x0, symName: __ZN14MolWtVariablesC2ERKS_, symObjAddr: 0x1E978, symBinAddr: 0x10002186C, symSize: 0x4C }
  - { offsetInCU: 0x4A00C, offset: 0x4A00C, size: 0x8, addend: 0x0, symName: __ZNSt3__112basic_stringIcNS_11char_traitsIcEENS_9allocatorIcEEEaSB8ue170006EOS5_, symObjAddr: 0x1E9C4, symBinAddr: 0x1000218B8, symSize: 0x34 }
  - { offsetInCU: 0x4A041, offset: 0x4A041, size: 0x8, addend: 0x0, symName: __ZNSt3__112basic_stringIcNS_11char_traitsIcEENS_9allocatorIcEEE13__move_assignB8ue170006ERS5_NS_17integral_constantIbLb1EEE, symObjAddr: 0x1E9F8, symBinAddr: 0x1000218EC, symSize: 0xC8 }
  - { offsetInCU: 0x4A083, offset: 0x4A083, size: 0x8, addend: 0x0, symName: __ZNSt3__116allocator_traitsINS_9allocatorIcEEE10deallocateB8ue170006ERS2_Pcm, symObjAddr: 0x1EAC0, symBinAddr: 0x1000219B4, symSize: 0x34 }
  - { offsetInCU: 0x4A0C5, offset: 0x4A0C5, size: 0x8, addend: 0x0, symName: __ZNSt3__112basic_stringIcNS_11char_traitsIcEENS_9allocatorIcEEE7__allocB8ue170006Ev, symObjAddr: 0x1EAF4, symBinAddr: 0x1000219E8, symSize: 0x24 }
  - { offsetInCU: 0x4A0EB, offset: 0x4A0EB, size: 0x8, addend: 0x0, symName: __ZNSt3__112basic_stringIcNS_11char_traitsIcEENS_9allocatorIcEEE18__get_long_pointerB8ue170006Ev, symObjAddr: 0x1EB18, symBinAddr: 0x100021A0C, symSize: 0x28 }
  - { offsetInCU: 0x4A111, offset: 0x4A111, size: 0x8, addend: 0x0, symName: __ZNKSt3__112basic_stringIcNS_11char_traitsIcEENS_9allocatorIcEEE14__get_long_capB8ue170006Ev, symObjAddr: 0x1EB40, symBinAddr: 0x100021A34, symSize: 0x30 }
  - { offsetInCU: 0x4A137, offset: 0x4A137, size: 0x8, addend: 0x0, symName: __ZNSt3__112basic_stringIcNS_11char_traitsIcEENS_9allocatorIcEEE19__move_assign_allocB8ue170006ERS5_, symObjAddr: 0x1EB70, symBinAddr: 0x100021A64, symSize: 0x2C }
  - { offsetInCU: 0x4A16C, offset: 0x4A16C, size: 0x8, addend: 0x0, symName: __ZNSt3__117__compressed_pairINS_12basic_stringIcNS_11char_traitsIcEENS_9allocatorIcEEE5__repES5_E5firstB8ue170006Ev, symObjAddr: 0x1EB9C, symBinAddr: 0x100021A90, symSize: 0x24 }
  - { offsetInCU: 0x4A192, offset: 0x4A192, size: 0x8, addend: 0x0, symName: __ZNSt3__112basic_stringIcNS_11char_traitsIcEENS_9allocatorIcEEE16__set_short_sizeB8ue170006Em, symObjAddr: 0x1EBC0, symBinAddr: 0x100021AB4, symSize: 0x78 }
  - { offsetInCU: 0x4A1C7, offset: 0x4A1C7, size: 0x8, addend: 0x0, symName: __ZNSt3__111char_traitsIcE6assignB8ue170006ERcRKc, symObjAddr: 0x1EC38, symBinAddr: 0x100021B2C, symSize: 0x24 }
  - { offsetInCU: 0x4A1F8, offset: 0x4A1F8, size: 0x8, addend: 0x0, symName: __ZNSt3__112basic_stringIcNS_11char_traitsIcEENS_9allocatorIcEEE19__get_short_pointerB8ue170006Ev, symObjAddr: 0x1EC5C, symBinAddr: 0x100021B50, symSize: 0x28 }
  - { offsetInCU: 0x4A21E, offset: 0x4A21E, size: 0x8, addend: 0x0, symName: __ZNSt3__19allocatorIcE10deallocateB8ue170006EPcm, symObjAddr: 0x1EC84, symBinAddr: 0x100021B78, symSize: 0x40 }
  - { offsetInCU: 0x4A260, offset: 0x4A260, size: 0x8, addend: 0x0, symName: __ZNSt3__117__compressed_pairINS_12basic_stringIcNS_11char_traitsIcEENS_9allocatorIcEEE5__repES5_E6secondB8ue170006Ev, symObjAddr: 0x1ECC4, symBinAddr: 0x100021BB8, symSize: 0x24 }
  - { offsetInCU: 0x4A286, offset: 0x4A286, size: 0x8, addend: 0x0, symName: __ZNSt3__122__compressed_pair_elemINS_9allocatorIcEELi1ELb1EE5__getB8ue170006Ev, symObjAddr: 0x1ECE8, symBinAddr: 0x100021BDC, symSize: 0x14 }
  - { offsetInCU: 0x4A2AC, offset: 0x4A2AC, size: 0x8, addend: 0x0, symName: __ZNSt3__112basic_stringIcNS_11char_traitsIcEENS_9allocatorIcEEE19__move_assign_allocB8ue170006ERS5_NS_17integral_constantIbLb1EEE, symObjAddr: 0x1ECFC, symBinAddr: 0x100021BF0, symSize: 0x38 }
  - { offsetInCU: 0x4A2EC, offset: 0x4A2EC, size: 0x8, addend: 0x0, symName: __ZNSt3__122__compressed_pair_elemINS_12basic_stringIcNS_11char_traitsIcEENS_9allocatorIcEEE5__repELi0ELb0EE5__getB8ue170006Ev, symObjAddr: 0x1ED34, symBinAddr: 0x100021C28, symSize: 0x14 }
  - { offsetInCU: 0x4A312, offset: 0x4A312, size: 0x8, addend: 0x0, symName: __ZNSt3__114pointer_traitsIPcE10pointer_toB8ue170006ERc, symObjAddr: 0x1ED48, symBinAddr: 0x100021C3C, symSize: 0x14 }
  - { offsetInCU: 0x4A335, offset: 0x4A335, size: 0x8, addend: 0x0, symName: __ZN14MolWtVariablesD2Ev, symObjAddr: 0x1ED5C, symBinAddr: 0x100021C50, symSize: 0x30 }
  - { offsetInCU: 0x4A361, offset: 0x4A361, size: 0x8, addend: 0x0, symName: __ZNSt3__114basic_ofstreamIcNS_11char_traitsIcEEED2Ev, symObjAddr: 0x1ED8C, symBinAddr: 0x100021C80, symSize: 0x64 }
  - { offsetInCU: 0x4A39B, offset: 0x4A39B, size: 0x8, addend: 0x0, symName: __ZTv0_n24_NSt3__114basic_ofstreamIcNS_11char_traitsIcEEED1Ev, symObjAddr: 0x1EDF0, symBinAddr: 0x100021CE4, symSize: 0x28 }
  - { offsetInCU: 0x4A3B2, offset: 0x4A3B2, size: 0x8, addend: 0x0, symName: __ZN15SystemVariablesD2Ev, symObjAddr: 0x1EE18, symBinAddr: 0x100021D0C, symSize: 0xB0 }
  - { offsetInCU: 0x4A3DE, offset: 0x4A3DE, size: 0x8, addend: 0x0, symName: __ZN17InitialConditionsD2Ev, symObjAddr: 0x1EEC8, symBinAddr: 0x100021DBC, symSize: 0x54 }
  - { offsetInCU: 0x4A40A, offset: 0x4A40A, size: 0x8, addend: 0x0, symName: __ZN5boost6detail11multi_array10extent_genILm0EEC2Ev, symObjAddr: 0x1EF1C, symBinAddr: 0x100021E10, symSize: 0x2C }
  - { offsetInCU: 0x4A434, offset: 0x4A434, size: 0x8, addend: 0x0, symName: __ZN5boost5arrayINS_6detail11multi_array12extent_rangeIlmEELm1EEC1Ev, symObjAddr: 0x1EF48, symBinAddr: 0x100021E3C, symSize: 0x2C }
  - { offsetInCU: 0x4A460, offset: 0x4A460, size: 0x8, addend: 0x0, symName: __ZN5boost5arrayINS_6detail11multi_array12extent_rangeIlmEELm1EEC2Ev, symObjAddr: 0x1EF74, symBinAddr: 0x100021E68, symSize: 0x68 }
  - { offsetInCU: 0x4A48C, offset: 0x4A48C, size: 0x8, addend: 0x0, symName: __ZN5boost6detail11multi_array12extent_rangeIlmEC1Ev, symObjAddr: 0x1EFDC, symBinAddr: 0x100021ED0, symSize: 0x2C }
  - { offsetInCU: 0x4A4B6, offset: 0x4A4B6, size: 0x8, addend: 0x0, symName: __ZN5boost6detail11multi_array12extent_rangeIlmEC2Ev, symObjAddr: 0x1F008, symBinAddr: 0x100021EFC, symSize: 0x3C }
  - { offsetInCU: 0x4A4E0, offset: 0x4A4E0, size: 0x8, addend: 0x0, symName: __ZNSt3__14pairIllEC2B8ue170006IiiLPv0EEEOT_OT0_, symObjAddr: 0x1F044, symBinAddr: 0x100021F38, symSize: 0x34 }
  - { offsetInCU: 0x4A53E, offset: 0x4A53E, size: 0x8, addend: 0x0, symName: __ZN5boost6detail11multi_array9index_genILi0ELi0EEC2Ev, symObjAddr: 0x1F078, symBinAddr: 0x100021F6C, symSize: 0x2C }
  - { offsetInCU: 0x4A568, offset: 0x4A568, size: 0x8, addend: 0x0, symName: __ZN5boost5arrayINS_6detail11multi_array11index_rangeIlmEELm1EEC1Ev, symObjAddr: 0x1F0A4, symBinAddr: 0x100021F98, symSize: 0x2C }
  - { offsetInCU: 0x4A594, offset: 0x4A594, size: 0x8, addend: 0x0, symName: __ZN5boost5arrayINS_6detail11multi_array11index_rangeIlmEELm1EEC2Ev, symObjAddr: 0x1F0D0, symBinAddr: 0x100021FC4, symSize: 0x68 }
  - { offsetInCU: 0x4A5C0, offset: 0x4A5C0, size: 0x8, addend: 0x0, symName: __ZN5boost6detail11multi_array11index_rangeIlmEC1Ev, symObjAddr: 0x1F138, symBinAddr: 0x10002202C, symSize: 0x2C }
  - { offsetInCU: 0x4A5EA, offset: 0x4A5EA, size: 0x8, addend: 0x0, symName: __ZN5boost6detail11multi_array11index_rangeIlmEC2Ev, symObjAddr: 0x1F164, symBinAddr: 0x100022058, symSize: 0x4C }
  - { offsetInCU: 0x4A614, offset: 0x4A614, size: 0x8, addend: 0x0, symName: __ZN5boost6detail11multi_array11index_rangeIlmE10from_startEv, symObjAddr: 0x1F1B0, symBinAddr: 0x1000220A4, symSize: 0x14 }
  - { offsetInCU: 0x4A628, offset: 0x4A628, size: 0x8, addend: 0x0, symName: __ZN5boost6detail11multi_array11index_rangeIlmE6to_endEv, symObjAddr: 0x1F1C4, symBinAddr: 0x1000220B8, symSize: 0x14 }
  - { offsetInCU: 0x4A63C, offset: 0x4A63C, size: 0x8, addend: 0x0, symName: __ZNSt3__114numeric_limitsIlE3minB8ue170006Ev, symObjAddr: 0x1F1D8, symBinAddr: 0x1000220CC, symSize: 0x14 }
  - { offsetInCU: 0x4A650, offset: 0x4A650, size: 0x8, addend: 0x0, symName: __ZNSt3__123__libcpp_numeric_limitsIlLb1EE3minB8ue170006Ev, symObjAddr: 0x1F1EC, symBinAddr: 0x1000220E0, symSize: 0x8 }
  - { offsetInCU: 0x4A664, offset: 0x4A664, size: 0x8, addend: 0x0, symName: __ZN5boost6detail35make_property_map_from_arg_pack_genINS_5graph8keywords3tag9color_mapENS_18default_color_typeEEC2ES6_, symObjAddr: 0x1F1F4, symBinAddr: 0x1000220E8, symSize: 0x20 }
  - { offsetInCU: 0x4A69D, offset: 0x4A69D, size: 0x8, addend: 0x0, symName: __ZNSt3__112basic_stringIcNS_11char_traitsIcEENS_9allocatorIcEEEC2B8ue170006ILi0EEEPKc, symObjAddr: 0x1F214, symBinAddr: 0x100022108, symSize: 0x58 }
  - { offsetInCU: 0x4A6DC, offset: 0x4A6DC, size: 0x8, addend: 0x0, symName: __ZNSt3__117__compressed_pairINS_12basic_stringIcNS_11char_traitsIcEENS_9allocatorIcEEE5__repES5_EC1B8ue170006INS_18__default_init_tagESA_EEOT_OT0_, symObjAddr: 0x1F26C, symBinAddr: 0x100022160, symSize: 0x3C }
  - { offsetInCU: 0x4A734, offset: 0x4A734, size: 0x8, addend: 0x0, symName: __ZNSt3__111char_traitsIcE6lengthB8ue170006EPKc, symObjAddr: 0x1F2A8, symBinAddr: 0x10002219C, symSize: 0x34 }
  - { offsetInCU: 0x4A757, offset: 0x4A757, size: 0x8, addend: 0x0, symName: __ZNSt3__117__compressed_pairINS_12basic_stringIcNS_11char_traitsIcEENS_9allocatorIcEEE5__repES5_EC2B8ue170006INS_18__default_init_tagESA_EEOT_OT0_, symObjAddr: 0x1F2DC, symBinAddr: 0x1000221D0, symSize: 0x3C }
  - { offsetInCU: 0x4A7AF, offset: 0x4A7AF, size: 0x8, addend: 0x0, symName: __ZNSt3__122__compressed_pair_elemINS_12basic_stringIcNS_11char_traitsIcEENS_9allocatorIcEEE5__repELi0ELb0EEC2B8ue170006ENS_18__default_init_tagE, symObjAddr: 0x1F318, symBinAddr: 0x10002220C, symSize: 0x14 }
  - { offsetInCU: 0x4A7E3, offset: 0x4A7E3, size: 0x8, addend: 0x0, symName: __ZNSt3__122__compressed_pair_elemINS_9allocatorIcEELi1ELb1EEC2B8ue170006ENS_18__default_init_tagE, symObjAddr: 0x1F32C, symBinAddr: 0x100022220, symSize: 0x2C }
  - { offsetInCU: 0x4A817, offset: 0x4A817, size: 0x8, addend: 0x0, symName: __ZNSt3__19allocatorIcEC2B8ue170006Ev, symObjAddr: 0x1F358, symBinAddr: 0x10002224C, symSize: 0x2C }
  - { offsetInCU: 0x4A841, offset: 0x4A841, size: 0x8, addend: 0x0, symName: __ZNSt3__116__non_trivial_ifILb1ENS_9allocatorIcEEEC2B8ue170006Ev, symObjAddr: 0x1F384, symBinAddr: 0x100022278, symSize: 0x14 }
  - { offsetInCU: 0x4A883, offset: 0x4A883, size: 0x8, addend: 0x0, symName: __ZNSt3__16__treeINS_12__value_typeINS_12basic_stringIcNS_11char_traitsIcEENS_9allocatorIcEEEEdEENS_19__map_value_compareIS7_S8_NS_4lessIS7_EELb1EEENS5_IS8_EEE25__emplace_unique_key_argsIS7_JRKNS_21piecewise_construct_tENS_5tupleIJRKS7_EEENSJ_IJEEEEEENS_4pairINS_15__tree_iteratorIS8_PNS_11__tree_nodeIS8_PvEElEEbEERKT_DpOT0_, symObjAddr: 0x1F3BC, symBinAddr: 0x1000222B0, symSize: 0x100 }
  - { offsetInCU: 0x4A959, offset: 0x4A959, size: 0x8, addend: 0x0, symName: __ZNKSt3__115__tree_iteratorINS_12__value_typeINS_12basic_stringIcNS_11char_traitsIcEENS_9allocatorIcEEEEdEEPNS_11__tree_nodeIS8_PvEElEptB8ue170006Ev, symObjAddr: 0x1F4EC, symBinAddr: 0x1000223E0, symSize: 0x2C }
  - { offsetInCU: 0x4A97F, offset: 0x4A97F, size: 0x8, addend: 0x0, symName: __ZNSt3__112__value_typeINS_12basic_stringIcNS_11char_traitsIcEENS_9allocatorIcEEEEdE11__get_valueB8ue170006Ev, symObjAddr: 0x1F518, symBinAddr: 0x10002240C, symSize: 0x14 }
  - { offsetInCU: 0x4A9A5, offset: 0x4A9A5, size: 0x8, addend: 0x0, symName: __ZNSt3__16__treeINS_12__value_typeINS_12basic_stringIcNS_11char_traitsIcEENS_9allocatorIcEEEEdEENS_19__map_value_compareIS7_S8_NS_4lessIS7_EELb1EEENS5_IS8_EEE12__find_equalIS7_EERPNS_16__tree_node_baseIPvEERPNS_15__tree_end_nodeISJ_EERKT_, symObjAddr: 0x1F52C, symBinAddr: 0x100022420, symSize: 0x184 }
  - { offsetInCU: 0x4AA12, offset: 0x4AA12, size: 0x8, addend: 0x0, symName: __ZNSt3__16__treeINS_12__value_typeINS_12basic_stringIcNS_11char_traitsIcEENS_9allocatorIcEEEEdEENS_19__map_value_compareIS7_S8_NS_4lessIS7_EELb1EEENS5_IS8_EEE16__construct_nodeIJRKNS_21piecewise_construct_tENS_5tupleIJRKS7_EEENSJ_IJEEEEEENS_10unique_ptrINS_11__tree_nodeIS8_PvEENS_22__tree_node_destructorINS5_ISR_EEEEEEDpOT_, symObjAddr: 0x1F6B0, symBinAddr: 0x1000225A4, symSize: 0x120 }
  - { offsetInCU: 0x4AA9B, offset: 0x4AA9B, size: 0x8, addend: 0x0, symName: __ZNSt3__16__treeINS_12__value_typeINS_12basic_stringIcNS_11char_traitsIcEENS_9allocatorIcEEEEdEENS_19__map_value_compareIS7_S8_NS_4lessIS7_EELb1EEENS5_IS8_EEE16__insert_node_atEPNS_15__tree_end_nodeIPNS_16__tree_node_baseIPvEEEERSJ_SJ_, symObjAddr: 0x1F7D0, symBinAddr: 0x1000226C4, symSize: 0xCC }
  - { offsetInCU: 0x4AAF0, offset: 0x4AAF0, size: 0x8, addend: 0x0, symName: __ZNKSt3__110unique_ptrINS_11__tree_nodeINS_12__value_typeINS_12basic_stringIcNS_11char_traitsIcEENS_9allocatorIcEEEEdEEPvEENS_22__tree_node_destructorINS6_ISB_EEEEE3getB8ue170006Ev, symObjAddr: 0x1F89C, symBinAddr: 0x100022790, symSize: 0x28 }
  - { offsetInCU: 0x4AB16, offset: 0x4AB16, size: 0x8, addend: 0x0, symName: __ZNSt3__110unique_ptrINS_11__tree_nodeINS_12__value_typeINS_12basic_stringIcNS_11char_traitsIcEENS_9allocatorIcEEEEdEEPvEENS_22__tree_node_destructorINS6_ISB_EEEEE7releaseB8ue170006Ev, symObjAddr: 0x1F8C4, symBinAddr: 0x1000227B8, symSize: 0x44 }
  - { offsetInCU: 0x4AB4B, offset: 0x4AB4B, size: 0x8, addend: 0x0, symName: __ZNSt3__110unique_ptrINS_11__tree_nodeINS_12__value_typeINS_12basic_stringIcNS_11char_traitsIcEENS_9allocatorIcEEEEdEEPvEENS_22__tree_node_destructorINS6_ISB_EEEEED1B8ue170006Ev, symObjAddr: 0x1F908, symBinAddr: 0x1000227FC, symSize: 0x2C }
  - { offsetInCU: 0x4AB75, offset: 0x4AB75, size: 0x8, addend: 0x0, symName: __ZNSt3__115__tree_iteratorINS_12__value_typeINS_12basic_stringIcNS_11char_traitsIcEENS_9allocatorIcEEEEdEEPNS_11__tree_nodeIS8_PvEElEC1B8ue170006ESC_, symObjAddr: 0x1F934, symBinAddr: 0x100022828, symSize: 0x34 }
  - { offsetInCU: 0x4ABB4, offset: 0x4ABB4, size: 0x8, addend: 0x0, symName: __ZNSt3__14pairINS_15__tree_iteratorINS_12__value_typeINS_12basic_stringIcNS_11char_traitsIcEENS_9allocatorIcEEEEdEEPNS_11__tree_nodeIS9_PvEElEEbEC1B8ue170006ISE_RbLSB_0EEEOT_OT0_, symObjAddr: 0x1F968, symBinAddr: 0x10002285C, symSize: 0x3C }
  - { offsetInCU: 0x4AC12, offset: 0x4AC12, size: 0x8, addend: 0x0, symName: __ZNKSt3__16__treeINS_12__value_typeINS_12basic_stringIcNS_11char_traitsIcEENS_9allocatorIcEEEEdEENS_19__map_value_compareIS7_S8_NS_4lessIS7_EELb1EEENS5_IS8_EEE6__rootB8ue170006Ev, symObjAddr: 0x1F9A4, symBinAddr: 0x100022898, symSize: 0x28 }
  - { offsetInCU: 0x4AC38, offset: 0x4AC38, size: 0x8, addend: 0x0, symName: __ZNKSt3__16__treeINS_12__value_typeINS_12basic_stringIcNS_11char_traitsIcEENS_9allocatorIcEEEEdEENS_19__map_value_compareIS7_S8_NS_4lessIS7_EELb1EEENS5_IS8_EEE10__root_ptrB8ue170006Ev, symObjAddr: 0x1F9CC, symBinAddr: 0x1000228C0, symSize: 0x24 }
  - { offsetInCU: 0x4AC5E, offset: 0x4AC5E, size: 0x8, addend: 0x0, symName: __ZNSt3__16__treeINS_12__value_typeINS_12basic_stringIcNS_11char_traitsIcEENS_9allocatorIcEEEEdEENS_19__map_value_compareIS7_S8_NS_4lessIS7_EELb1EEENS5_IS8_EEE10value_compB8ue170006Ev, symObjAddr: 0x1F9F0, symBinAddr: 0x1000228E4, symSize: 0x28 }
  - { offsetInCU: 0x4AC84, offset: 0x4AC84, size: 0x8, addend: 0x0, symName: __ZNKSt3__119__map_value_compareINS_12basic_stringIcNS_11char_traitsIcEENS_9allocatorIcEEEENS_12__value_typeIS6_dEENS_4lessIS6_EELb1EEclB8ue170006ERKS6_RKS8_, symObjAddr: 0x1FA18, symBinAddr: 0x10002290C, symSize: 0x50 }
  - { offsetInCU: 0x4ACC8, offset: 0x4ACC8, size: 0x8, addend: 0x0, symName: __ZNKSt3__119__map_value_compareINS_12basic_stringIcNS_11char_traitsIcEENS_9allocatorIcEEEENS_12__value_typeIS6_dEENS_4lessIS6_EELb1EEclB8ue170006ERKS8_RKS6_, symObjAddr: 0x1FA68, symBinAddr: 0x10002295C, symSize: 0x48 }
  - { offsetInCU: 0x4AD0C, offset: 0x4AD0C, size: 0x8, addend: 0x0, symName: __ZNSt3__16__treeINS_12__value_typeINS_12basic_stringIcNS_11char_traitsIcEENS_9allocatorIcEEEEdEENS_19__map_value_compareIS7_S8_NS_4lessIS7_EELb1EEENS5_IS8_EEE10__end_nodeB8ue170006Ev, symObjAddr: 0x1FAB0, symBinAddr: 0x1000229A4, symSize: 0x2C }
  - { offsetInCU: 0x4AD32, offset: 0x4AD32, size: 0x8, addend: 0x0, symName: __ZNKSt3__16__treeINS_12__value_typeINS_12basic_stringIcNS_11char_traitsIcEENS_9allocatorIcEEEEdEENS_19__map_value_compareIS7_S8_NS_4lessIS7_EELb1EEENS5_IS8_EEE10__end_nodeB8ue170006Ev, symObjAddr: 0x1FADC, symBinAddr: 0x1000229D0, symSize: 0x2C }
  - { offsetInCU: 0x4AD58, offset: 0x4AD58, size: 0x8, addend: 0x0, symName: __ZNKSt3__117__compressed_pairINS_15__tree_end_nodeIPNS_16__tree_node_baseIPvEEEENS_9allocatorINS_11__tree_nodeINS_12__value_typeINS_12basic_stringIcNS_11char_traitsIcEENS7_IcEEEEdEES3_EEEEE5firstB8ue170006Ev, symObjAddr: 0x1FB08, symBinAddr: 0x1000229FC, symSize: 0x24 }
  - { offsetInCU: 0x4AD7E, offset: 0x4AD7E, size: 0x8, addend: 0x0, symName: __ZNSt3__117__compressed_pairImNS_19__map_value_compareINS_12basic_stringIcNS_11char_traitsIcEENS_9allocatorIcEEEENS_12__value_typeIS7_dEENS_4lessIS7_EELb1EEEE6secondB8ue170006Ev, symObjAddr: 0x1FB2C, symBinAddr: 0x100022A20, symSize: 0x24 }
  - { offsetInCU: 0x4ADA4, offset: 0x4ADA4, size: 0x8, addend: 0x0, symName: __ZNSt3__122__compressed_pair_elemINS_19__map_value_compareINS_12basic_stringIcNS_11char_traitsIcEENS_9allocatorIcEEEENS_12__value_typeIS7_dEENS_4lessIS7_EELb1EEELi1ELb1EE5__getB8ue170006Ev, symObjAddr: 0x1FB50, symBinAddr: 0x100022A44, symSize: 0x14 }
  - { offsetInCU: 0x4ADCA, offset: 0x4ADCA, size: 0x8, addend: 0x0, symName: __ZNKSt3__112__value_typeINS_12basic_stringIcNS_11char_traitsIcEENS_9allocatorIcEEEEdE11__get_valueB8ue170006Ev, symObjAddr: 0x1FB64, symBinAddr: 0x100022A58, symSize: 0x14 }
  - { offsetInCU: 0x4ADF0, offset: 0x4ADF0, size: 0x8, addend: 0x0, symName: __ZNSt3__117__compressed_pairINS_15__tree_end_nodeIPNS_16__tree_node_baseIPvEEEENS_9allocatorINS_11__tree_nodeINS_12__value_typeINS_12basic_stringIcNS_11char_traitsIcEENS7_IcEEEEdEES3_EEEEE5firstB8ue170006Ev, symObjAddr: 0x1FB78, symBinAddr: 0x100022A6C, symSize: 0x24 }
  - { offsetInCU: 0x4AE16, offset: 0x4AE16, size: 0x8, addend: 0x0, symName: __ZNSt3__16__treeINS_12__value_typeINS_12basic_stringIcNS_11char_traitsIcEENS_9allocatorIcEEEEdEENS_19__map_value_compareIS7_S8_NS_4lessIS7_EELb1EEENS5_IS8_EEE12__node_allocB8ue170006Ev, symObjAddr: 0x1FB9C, symBinAddr: 0x100022A90, symSize: 0x28 }
  - { offsetInCU: 0x4AE3C, offset: 0x4AE3C, size: 0x8, addend: 0x0, symName: __ZNSt3__116allocator_traitsINS_9allocatorINS_11__tree_nodeINS_12__value_typeINS_12basic_stringIcNS_11char_traitsIcEENS1_IcEEEEdEEPvEEEEE8allocateB8ue170006ERSC_m, symObjAddr: 0x1FBC4, symBinAddr: 0x100022AB8, symSize: 0x2C }
  - { offsetInCU: 0x4AE6F, offset: 0x4AE6F, size: 0x8, addend: 0x0, symName: __ZNSt3__122__tree_node_destructorINS_9allocatorINS_11__tree_nodeINS_12__value_typeINS_12basic_stringIcNS_11char_traitsIcEENS1_IcEEEEdEEPvEEEEEC1B8ue170006ERSC_b, symObjAddr: 0x1FBF0, symBinAddr: 0x100022AE4, symSize: 0x48 }
  - { offsetInCU: 0x4AEBD, offset: 0x4AEBD, size: 0x8, addend: 0x0, symName: __ZNSt3__110unique_ptrINS_11__tree_nodeINS_12__value_typeINS_12basic_stringIcNS_11char_traitsIcEENS_9allocatorIcEEEEdEEPvEENS_22__tree_node_destructorINS6_ISB_EEEEEC1B8ue170006ILb1EvEEPSB_NS_16__dependent_typeINS_27__unique_ptr_deleter_sfinaeISE_EEXT_EE20__good_rval_ref_typeE, symObjAddr: 0x1FC38, symBinAddr: 0x100022B2C, symSize: 0x3C }
  - { offsetInCU: 0x4AF0E, offset: 0x4AF0E, size: 0x8, addend: 0x0, symName: __ZNSt3__116allocator_traitsINS_9allocatorINS_11__tree_nodeINS_12__value_typeINS_12basic_stringIcNS_11char_traitsIcEENS1_IcEEEEdEEPvEEEEE9constructB8ue170006INS_4pairIKS8_dEEJRKNS_21piecewise_construct_tENS_5tupleIJRSG_EEENSL_IJEEEEvEEvRSC_PT_DpOT0_, symObjAddr: 0x1FC74, symBinAddr: 0x100022B68, symSize: 0x44 }
  - { offsetInCU: 0x4AF8D, offset: 0x4AF8D, size: 0x8, addend: 0x0, symName: __ZNSt3__122__tree_key_value_typesINS_12__value_typeINS_12basic_stringIcNS_11char_traitsIcEENS_9allocatorIcEEEEdEEE9__get_ptrB8ue170006ERS8_, symObjAddr: 0x1FCB8, symBinAddr: 0x100022BAC, symSize: 0x24 }
  - { offsetInCU: 0x4AFB1, offset: 0x4AFB1, size: 0x8, addend: 0x0, symName: __ZNKSt3__110unique_ptrINS_11__tree_nodeINS_12__value_typeINS_12basic_stringIcNS_11char_traitsIcEENS_9allocatorIcEEEEdEEPvEENS_22__tree_node_destructorINS6_ISB_EEEEEptB8ue170006Ev, symObjAddr: 0x1FCDC, symBinAddr: 0x100022BD0, symSize: 0x28 }
  - { offsetInCU: 0x4AFD7, offset: 0x4AFD7, size: 0x8, addend: 0x0, symName: __ZNSt3__110unique_ptrINS_11__tree_nodeINS_12__value_typeINS_12basic_stringIcNS_11char_traitsIcEENS_9allocatorIcEEEEdEEPvEENS_22__tree_node_destructorINS6_ISB_EEEEE11get_deleterB8ue170006Ev, symObjAddr: 0x1FD04, symBinAddr: 0x100022BF8, symSize: 0x24 }
  - { offsetInCU: 0x4AFFD, offset: 0x4AFFD, size: 0x8, addend: 0x0, symName: __ZNSt3__117__compressed_pairINS_15__tree_end_nodeIPNS_16__tree_node_baseIPvEEEENS_9allocatorINS_11__tree_nodeINS_12__value_typeINS_12basic_stringIcNS_11char_traitsIcEENS7_IcEEEEdEES3_EEEEE6secondB8ue170006Ev, symObjAddr: 0x1FD28, symBinAddr: 0x100022C1C, symSize: 0x24 }
  - { offsetInCU: 0x4B023, offset: 0x4B023, size: 0x8, addend: 0x0, symName: __ZNSt3__122__compressed_pair_elemINS_9allocatorINS_11__tree_nodeINS_12__value_typeINS_12basic_stringIcNS_11char_traitsIcEENS1_IcEEEEdEEPvEEEELi1ELb1EE5__getB8ue170006Ev, symObjAddr: 0x1FD4C, symBinAddr: 0x100022C40, symSize: 0x14 }
  - { offsetInCU: 0x4B049, offset: 0x4B049, size: 0x8, addend: 0x0, symName: __ZNSt3__19allocatorINS_11__tree_nodeINS_12__value_typeINS_12basic_stringIcNS_11char_traitsIcEENS0_IcEEEEdEEPvEEE8allocateB8ue170006Em, symObjAddr: 0x1FD60, symBinAddr: 0x100022C54, symSize: 0x58 }
  - { offsetInCU: 0x4B089, offset: 0x4B089, size: 0x8, addend: 0x0, symName: __ZNSt3__116allocator_traitsINS_9allocatorINS_11__tree_nodeINS_12__value_typeINS_12basic_stringIcNS_11char_traitsIcEENS1_IcEEEEdEEPvEEEEE8max_sizeB8ue170006ISC_vEEmRKSC_, symObjAddr: 0x1FDB8, symBinAddr: 0x100022CAC, symSize: 0x24 }
  - { offsetInCU: 0x4B0B7, offset: 0x4B0B7, size: 0x8, addend: 0x0, symName: __ZNKSt3__19allocatorINS_11__tree_nodeINS_12__value_typeINS_12basic_stringIcNS_11char_traitsIcEENS0_IcEEEEdEEPvEEE8max_sizeB8ue170006Ev, symObjAddr: 0x1FDDC, symBinAddr: 0x100022CD0, symSize: 0x14 }
  - { offsetInCU: 0x4B0DD, offset: 0x4B0DD, size: 0x8, addend: 0x0, symName: __ZNSt3__122__tree_node_destructorINS_9allocatorINS_11__tree_nodeINS_12__value_typeINS_12basic_stringIcNS_11char_traitsIcEENS1_IcEEEEdEEPvEEEEEC2B8ue170006ERSC_b, symObjAddr: 0x1FDF0, symBinAddr: 0x100022CE4, symSize: 0x38 }
  - { offsetInCU: 0x4B125, offset: 0x4B125, size: 0x8, addend: 0x0, symName: __ZNSt3__110unique_ptrINS_11__tree_nodeINS_12__value_typeINS_12basic_stringIcNS_11char_traitsIcEENS_9allocatorIcEEEEdEEPvEENS_22__tree_node_destructorINS6_ISB_EEEEEC2B8ue170006ILb1EvEEPSB_NS_16__dependent_typeINS_27__unique_ptr_deleter_sfinaeISE_EEXT_EE20__good_rval_ref_typeE, symObjAddr: 0x1FE28, symBinAddr: 0x100022D1C, symSize: 0x48 }
  - { offsetInCU: 0x4B176, offset: 0x4B176, size: 0x8, addend: 0x0, symName: __ZNSt3__117__compressed_pairIPNS_11__tree_nodeINS_12__value_typeINS_12basic_stringIcNS_11char_traitsIcEENS_9allocatorIcEEEEdEEPvEENS_22__tree_node_destructorINS6_ISB_EEEEEC1B8ue170006IRSC_SF_EEOT_OT0_, symObjAddr: 0x1FE70, symBinAddr: 0x100022D64, symSize: 0x3C }
  - { offsetInCU: 0x4B1CE, offset: 0x4B1CE, size: 0x8, addend: 0x0, symName: __ZNSt3__117__compressed_pairIPNS_11__tree_nodeINS_12__value_typeINS_12basic_stringIcNS_11char_traitsIcEENS_9allocatorIcEEEEdEEPvEENS_22__tree_node_destructorINS6_ISB_EEEEEC2B8ue170006IRSC_SF_EEOT_OT0_, symObjAddr: 0x1FEAC, symBinAddr: 0x100022DA0, symSize: 0x48 }
  - { offsetInCU: 0x4B226, offset: 0x4B226, size: 0x8, addend: 0x0, symName: __ZNSt3__122__compressed_pair_elemIPNS_11__tree_nodeINS_12__value_typeINS_12basic_stringIcNS_11char_traitsIcEENS_9allocatorIcEEEEdEEPvEELi0ELb0EEC2B8ue170006IRSC_vEEOT_, symObjAddr: 0x1FEF4, symBinAddr: 0x100022DE8, symSize: 0x24 }
  - { offsetInCU: 0x4B268, offset: 0x4B268, size: 0x8, addend: 0x0, symName: __ZNSt3__122__compressed_pair_elemINS_22__tree_node_destructorINS_9allocatorINS_11__tree_nodeINS_12__value_typeINS_12basic_stringIcNS_11char_traitsIcEENS2_IcEEEEdEEPvEEEEEELi1ELb0EEC2B8ue170006ISE_vEEOT_, symObjAddr: 0x1FF18, symBinAddr: 0x100022E0C, symSize: 0x24 }
  - { offsetInCU: 0x4B2AA, offset: 0x4B2AA, size: 0x8, addend: 0x0, symName: __ZNSt3__19allocatorINS_11__tree_nodeINS_12__value_typeINS_12basic_stringIcNS_11char_traitsIcEENS0_IcEEEEdEEPvEEE9constructB8ue170006INS_4pairIKS7_dEEJRKNS_21piecewise_construct_tENS_5tupleIJRSE_EEENSJ_IJEEEEEEvPT_DpOT0_, symObjAddr: 0x1FF3C, symBinAddr: 0x100022E30, symSize: 0x44 }
  - { offsetInCU: 0x4B326, offset: 0x4B326, size: 0x8, addend: 0x0, symName: __ZNSt3__14pairIKNS_12basic_stringIcNS_11char_traitsIcEENS_9allocatorIcEEEEdEC1B8ue170006IJRS7_EJEEENS_21piecewise_construct_tENS_5tupleIJDpT_EEENSC_IJDpT0_EEE, symObjAddr: 0x1FF80, symBinAddr: 0x100022E74, symSize: 0x3C }
  - { offsetInCU: 0x4B38D, offset: 0x4B38D, size: 0x8, addend: 0x0, symName: __ZNSt3__14pairIKNS_12basic_stringIcNS_11char_traitsIcEENS_9allocatorIcEEEEdEC1B8ue170006IJRS7_EJEJLm0EEJEEENS_21piecewise_construct_tERNS_5tupleIJDpT_EEERNSC_IJDpT0_EEENS_15__tuple_indicesIJXspT1_EEEENSL_IJXspT2_EEEE, symObjAddr: 0x1FFBC, symBinAddr: 0x100022EB0, symSize: 0x3C }
  - { offsetInCU: 0x4B41A, offset: 0x4B41A, size: 0x8, addend: 0x0, symName: __ZNSt3__14pairIKNS_12basic_stringIcNS_11char_traitsIcEENS_9allocatorIcEEEEdEC2B8ue170006IJRS7_EJEJLm0EEJEEENS_21piecewise_construct_tERNS_5tupleIJDpT_EEERNSC_IJDpT0_EEENS_15__tuple_indicesIJXspT1_EEEENSL_IJXspT2_EEEE, symObjAddr: 0x1FFF8, symBinAddr: 0x100022EEC, symSize: 0x4C }
  - { offsetInCU: 0x4B4A7, offset: 0x4B4A7, size: 0x8, addend: 0x0, symName: __ZNSt3__112__tuple_leafILm0ERKNS_12basic_stringIcNS_11char_traitsIcEENS_9allocatorIcEEEELb0EE3getB8ue170006Ev, symObjAddr: 0x20068, symBinAddr: 0x100022F5C, symSize: 0x18 }
  - { offsetInCU: 0x4B4CD, offset: 0x4B4CD, size: 0x8, addend: 0x0, symName: __ZNKSt3__117__compressed_pairIPNS_11__tree_nodeINS_12__value_typeINS_12basic_stringIcNS_11char_traitsIcEENS_9allocatorIcEEEEdEEPvEENS_22__tree_node_destructorINS6_ISB_EEEEE5firstB8ue170006Ev, symObjAddr: 0x20080, symBinAddr: 0x100022F74, symSize: 0x24 }
  - { offsetInCU: 0x4B4F3, offset: 0x4B4F3, size: 0x8, addend: 0x0, symName: __ZNKSt3__122__compressed_pair_elemIPNS_11__tree_nodeINS_12__value_typeINS_12basic_stringIcNS_11char_traitsIcEENS_9allocatorIcEEEEdEEPvEELi0ELb0EE5__getB8ue170006Ev, symObjAddr: 0x200A4, symBinAddr: 0x100022F98, symSize: 0x14 }
  - { offsetInCU: 0x4B519, offset: 0x4B519, size: 0x8, addend: 0x0, symName: __ZNSt3__117__compressed_pairIPNS_11__tree_nodeINS_12__value_typeINS_12basic_stringIcNS_11char_traitsIcEENS_9allocatorIcEEEEdEEPvEENS_22__tree_node_destructorINS6_ISB_EEEEE6secondB8ue170006Ev, symObjAddr: 0x200B8, symBinAddr: 0x100022FAC, symSize: 0x28 }
  - { offsetInCU: 0x4B53F, offset: 0x4B53F, size: 0x8, addend: 0x0, symName: __ZNSt3__122__compressed_pair_elemINS_22__tree_node_destructorINS_9allocatorINS_11__tree_nodeINS_12__value_typeINS_12basic_stringIcNS_11char_traitsIcEENS2_IcEEEEdEEPvEEEEEELi1ELb0EE5__getB8ue170006Ev, symObjAddr: 0x200E0, symBinAddr: 0x100022FD4, symSize: 0x14 }
  - { offsetInCU: 0x4B565, offset: 0x4B565, size: 0x8, addend: 0x0, symName: __ZNSt3__16__treeINS_12__value_typeINS_12basic_stringIcNS_11char_traitsIcEENS_9allocatorIcEEEEdEENS_19__map_value_compareIS7_S8_NS_4lessIS7_EELb1EEENS5_IS8_EEE12__begin_nodeB8ue170006Ev, symObjAddr: 0x200F4, symBinAddr: 0x100022FE8, symSize: 0x14 }
  - { offsetInCU: 0x4B58B, offset: 0x4B58B, size: 0x8, addend: 0x0, symName: __ZNSt3__16__treeINS_12__value_typeINS_12basic_stringIcNS_11char_traitsIcEENS_9allocatorIcEEEEdEENS_19__map_value_compareIS7_S8_NS_4lessIS7_EELb1EEENS5_IS8_EEE4sizeB8ue170006Ev, symObjAddr: 0x20108, symBinAddr: 0x100022FFC, symSize: 0x28 }
  - { offsetInCU: 0x4B5B1, offset: 0x4B5B1, size: 0x8, addend: 0x0, symName: __ZNSt3__117__compressed_pairImNS_19__map_value_compareINS_12basic_stringIcNS_11char_traitsIcEENS_9allocatorIcEEEENS_12__value_typeIS7_dEENS_4lessIS7_EELb1EEEE5firstB8ue170006Ev, symObjAddr: 0x20130, symBinAddr: 0x100023024, symSize: 0x24 }
  - { offsetInCU: 0x4B5D7, offset: 0x4B5D7, size: 0x8, addend: 0x0, symName: __ZNSt3__117__compressed_pairIPNS_11__tree_nodeINS_12__value_typeINS_12basic_stringIcNS_11char_traitsIcEENS_9allocatorIcEEEEdEEPvEENS_22__tree_node_destructorINS6_ISB_EEEEE5firstB8ue170006Ev, symObjAddr: 0x20154, symBinAddr: 0x100023048, symSize: 0x24 }
  - { offsetInCU: 0x4B5FD, offset: 0x4B5FD, size: 0x8, addend: 0x0, symName: __ZNSt3__122__compressed_pair_elemIPNS_11__tree_nodeINS_12__value_typeINS_12basic_stringIcNS_11char_traitsIcEENS_9allocatorIcEEEEdEEPvEELi0ELb0EE5__getB8ue170006Ev, symObjAddr: 0x20178, symBinAddr: 0x10002306C, symSize: 0x14 }
  - { offsetInCU: 0x4B623, offset: 0x4B623, size: 0x8, addend: 0x0, symName: __ZNSt3__110unique_ptrINS_11__tree_nodeINS_12__value_typeINS_12basic_stringIcNS_11char_traitsIcEENS_9allocatorIcEEEEdEEPvEENS_22__tree_node_destructorINS6_ISB_EEEEED2B8ue170006Ev, symObjAddr: 0x2018C, symBinAddr: 0x100023080, symSize: 0x30 }
  - { offsetInCU: 0x4B64D, offset: 0x4B64D, size: 0x8, addend: 0x0, symName: __ZNSt3__110unique_ptrINS_11__tree_nodeINS_12__value_typeINS_12basic_stringIcNS_11char_traitsIcEENS_9allocatorIcEEEEdEEPvEENS_22__tree_node_destructorINS6_ISB_EEEEE5resetB8ue170006EPSB_, symObjAddr: 0x201BC, symBinAddr: 0x1000230B0, symSize: 0x78 }
  - { offsetInCU: 0x4B691, offset: 0x4B691, size: 0x8, addend: 0x0, symName: __ZNSt3__122__tree_node_destructorINS_9allocatorINS_11__tree_nodeINS_12__value_typeINS_12basic_stringIcNS_11char_traitsIcEENS1_IcEEEEdEEPvEEEEEclB8ue170006EPSB_, symObjAddr: 0x20234, symBinAddr: 0x100023128, symSize: 0x98 }
  - { offsetInCU: 0x4B6C6, offset: 0x4B6C6, size: 0x8, addend: 0x0, symName: __ZNSt3__116allocator_traitsINS_9allocatorINS_11__tree_nodeINS_12__value_typeINS_12basic_stringIcNS_11char_traitsIcEENS1_IcEEEEdEEPvEEEEE7destroyB8ue170006INS_4pairIKS8_dEEvvEEvRSC_PT_, symObjAddr: 0x202CC, symBinAddr: 0x1000231C0, symSize: 0x28 }
  - { offsetInCU: 0x4B700, offset: 0x4B700, size: 0x8, addend: 0x0, symName: __ZNSt3__116allocator_traitsINS_9allocatorINS_11__tree_nodeINS_12__value_typeINS_12basic_stringIcNS_11char_traitsIcEENS1_IcEEEEdEEPvEEEEE10deallocateB8ue170006ERSC_PSB_m, symObjAddr: 0x202F4, symBinAddr: 0x1000231E8, symSize: 0x34 }
  - { offsetInCU: 0x4B742, offset: 0x4B742, size: 0x8, addend: 0x0, symName: __ZNSt3__14pairIKNS_12basic_stringIcNS_11char_traitsIcEENS_9allocatorIcEEEEdED1Ev, symObjAddr: 0x20328, symBinAddr: 0x10002321C, symSize: 0x2C }
  - { offsetInCU: 0x4B76E, offset: 0x4B76E, size: 0x8, addend: 0x0, symName: __ZNSt3__14pairIKNS_12basic_stringIcNS_11char_traitsIcEENS_9allocatorIcEEEEdED2Ev, symObjAddr: 0x20354, symBinAddr: 0x100023248, symSize: 0x2C }
  - { offsetInCU: 0x4B79A, offset: 0x4B79A, size: 0x8, addend: 0x0, symName: __ZNSt3__19allocatorINS_11__tree_nodeINS_12__value_typeINS_12basic_stringIcNS_11char_traitsIcEENS0_IcEEEEdEEPvEEE10deallocateB8ue170006EPSA_m, symObjAddr: 0x20380, symBinAddr: 0x100023274, symSize: 0x40 }
  - { offsetInCU: 0x4B7DC, offset: 0x4B7DC, size: 0x8, addend: 0x0, symName: __ZNSt3__115__tree_iteratorINS_12__value_typeINS_12basic_stringIcNS_11char_traitsIcEENS_9allocatorIcEEEEdEEPNS_11__tree_nodeIS8_PvEElEC2B8ue170006ESC_, symObjAddr: 0x203C0, symBinAddr: 0x1000232B4, symSize: 0x20 }
  - { offsetInCU: 0x4B815, offset: 0x4B815, size: 0x8, addend: 0x0, symName: __ZNSt3__14pairINS_15__tree_iteratorINS_12__value_typeINS_12basic_stringIcNS_11char_traitsIcEENS_9allocatorIcEEEEdEEPNS_11__tree_nodeIS9_PvEElEEbEC2B8ue170006ISE_RbLSB_0EEEOT_OT0_, symObjAddr: 0x203E0, symBinAddr: 0x1000232D4, symSize: 0x38 }
  - { offsetInCU: 0x4B873, offset: 0x4B873, size: 0x8, addend: 0x0, symName: __ZNSt3__15tupleIJRKNS_12basic_stringIcNS_11char_traitsIcEENS_9allocatorIcEEEEEEC1B8ue170006INS_4_AndELi0EEES8_, symObjAddr: 0x20418, symBinAddr: 0x10002330C, symSize: 0x34 }
  - { offsetInCU: 0x4B8BB, offset: 0x4B8BB, size: 0x8, addend: 0x0, symName: __ZNSt3__15tupleIJRKNS_12basic_stringIcNS_11char_traitsIcEENS_9allocatorIcEEEEEEC2B8ue170006INS_4_AndELi0EEES8_, symObjAddr: 0x2044C, symBinAddr: 0x100023340, symSize: 0x34 }
  - { offsetInCU: 0x4B903, offset: 0x4B903, size: 0x8, addend: 0x0, symName: __ZNSt3__112__tuple_implINS_15__tuple_indicesIJLm0EEEEJRKNS_12basic_stringIcNS_11char_traitsIcEENS_9allocatorIcEEEEEEC1B8ue170006IJLm0EEJSA_EJEJEJSA_EEENS1_IJXspT_EEEENS_13__tuple_typesIJDpT0_EEENS1_IJXspT1_EEEENSE_IJDpT2_EEEDpOT3_, symObjAddr: 0x20480, symBinAddr: 0x100023374, symSize: 0x34 }
  - { offsetInCU: 0x4B994, offset: 0x4B994, size: 0x8, addend: 0x0, symName: __ZNSt3__112__tuple_implINS_15__tuple_indicesIJLm0EEEEJRKNS_12basic_stringIcNS_11char_traitsIcEENS_9allocatorIcEEEEEEC2B8ue170006IJLm0EEJSA_EJEJEJSA_EEENS1_IJXspT_EEEENS_13__tuple_typesIJDpT0_EEENS1_IJXspT1_EEEENSE_IJDpT2_EEEDpOT3_, symObjAddr: 0x204B4, symBinAddr: 0x1000233A8, symSize: 0x34 }
  - { offsetInCU: 0x4BA25, offset: 0x4BA25, size: 0x8, addend: 0x0, symName: __ZNSt3__112__tuple_leafILm0ERKNS_12basic_stringIcNS_11char_traitsIcEENS_9allocatorIcEEEELb0EEC2B8ue170006IS8_vEEOT_, symObjAddr: 0x204E8, symBinAddr: 0x1000233DC, symSize: 0x20 }
  - { offsetInCU: 0x4BA68, offset: 0x4BA68, size: 0x8, addend: 0x0, symName: __ZNSt3__114pointer_traitsIPNS_12__value_typeINS_12basic_stringIcNS_11char_traitsIcEENS_9allocatorIcEEEEdEEE10pointer_toB8ue170006ERS8_, symObjAddr: 0x20508, symBinAddr: 0x1000233FC, symSize: 0x14 }
  - { offsetInCU: 0x4BA8B, offset: 0x4BA8B, size: 0x8, addend: 0x0, symName: __ZNKSt3__115__tree_iteratorINS_12__value_typeINS_12basic_stringIcNS_11char_traitsIcEENS_9allocatorIcEEEEdEEPNS_11__tree_nodeIS8_PvEElE8__get_npB8ue170006Ev, symObjAddr: 0x2051C, symBinAddr: 0x100023410, symSize: 0x18 }
  - { offsetInCU: 0x4BAB1, offset: 0x4BAB1, size: 0x8, addend: 0x0, symName: __ZNSt3__16chrono10time_pointINS0_12steady_clockENS0_8durationIxNS_5ratioILl1ELl1000000000EEEEEEC2B8ue170006Ev, symObjAddr: 0x20534, symBinAddr: 0x100023428, symSize: 0x34 }
  - { offsetInCU: 0x4BADB, offset: 0x4BADB, size: 0x8, addend: 0x0, symName: __ZNSt3__16chrono8durationIxNS_5ratioILl1ELl1000000000EEEE4zeroB8ue170006Ev, symObjAddr: 0x20568, symBinAddr: 0x10002345C, symSize: 0x3C }
  - { offsetInCU: 0x4BAEF, offset: 0x4BAEF, size: 0x8, addend: 0x0, symName: __ZNSt3__16chrono15duration_valuesIxE4zeroB8ue170006Ev, symObjAddr: 0x205A4, symBinAddr: 0x100023498, symSize: 0x8 }
  - { offsetInCU: 0x4BB0F, offset: 0x4BB0F, size: 0x8, addend: 0x0, symName: __ZNSt3__16chrono8durationIxNS_5ratioILl1ELl1000000000EEEEC1B8ue170006IxEERKT_PNS_9enable_ifIXaasr14is_convertibleIS8_xEE5valueooL_ZNS_17integral_constantIbLb0EE5valueEEntsr23treat_as_floating_pointIS6_EE5valueEvE4typeE, symObjAddr: 0x205AC, symBinAddr: 0x1000234A0, symSize: 0x3C }
  - { offsetInCU: 0x4BB5B, offset: 0x4BB5B, size: 0x8, addend: 0x0, symName: __ZNSt3__16chrono8durationIxNS_5ratioILl1ELl1000000000EEEEC2B8ue170006IxEERKT_PNS_9enable_ifIXaasr14is_convertibleIS8_xEE5valueooL_ZNS_17integral_constantIbLb0EE5valueEEntsr23treat_as_floating_pointIS6_EE5valueEvE4typeE, symObjAddr: 0x205E8, symBinAddr: 0x1000234DC, symSize: 0x28 }
  - { offsetInCU: 0x4BBA7, offset: 0x4BBA7, size: 0x8, addend: 0x0, symName: __ZNSt3__13mapINS_12basic_stringIcNS_11char_traitsIcEENS_9allocatorIcEEEENS_6chrono8durationIdNS_5ratioILl1ELl1EEEEENS_4lessIS6_EENS4_INS_4pairIKS6_SB_EEEEEC2B8ue170006Ev, symObjAddr: 0x20610, symBinAddr: 0x100023504, symSize: 0x40 }
  - { offsetInCU: 0x4BBD1, offset: 0x4BBD1, size: 0x8, addend: 0x0, symName: __ZNSt3__119__map_value_compareINS_12basic_stringIcNS_11char_traitsIcEENS_9allocatorIcEEEENS_12__value_typeIS6_NS_6chrono8durationIdNS_5ratioILl1ELl1EEEEEEENS_4lessIS6_EELb1EEC1B8ue170006ESF_, symObjAddr: 0x20650, symBinAddr: 0x100023544, symSize: 0x2C }
  - { offsetInCU: 0x4BC0A, offset: 0x4BC0A, size: 0x8, addend: 0x0, symName: __ZNSt3__16__treeINS_12__value_typeINS_12basic_stringIcNS_11char_traitsIcEENS_9allocatorIcEEEENS_6chrono8durationIdNS_5ratioILl1ELl1EEEEEEENS_19__map_value_compareIS7_SD_NS_4lessIS7_EELb1EEENS5_ISD_EEEC1ERKSH_, symObjAddr: 0x2067C, symBinAddr: 0x100023570, symSize: 0x34 }
  - { offsetInCU: 0x4BC45, offset: 0x4BC45, size: 0x8, addend: 0x0, symName: __ZNSt3__119__map_value_compareINS_12basic_stringIcNS_11char_traitsIcEENS_9allocatorIcEEEENS_12__value_typeIS6_NS_6chrono8durationIdNS_5ratioILl1ELl1EEEEEEENS_4lessIS6_EELb1EEC2B8ue170006ESF_, symObjAddr: 0x206B0, symBinAddr: 0x1000235A4, symSize: 0x14 }
  - { offsetInCU: 0x4BC7E, offset: 0x4BC7E, size: 0x8, addend: 0x0, symName: __ZNSt3__16__treeINS_12__value_typeINS_12basic_stringIcNS_11char_traitsIcEENS_9allocatorIcEEEENS_6chrono8durationIdNS_5ratioILl1ELl1EEEEEEENS_19__map_value_compareIS7_SD_NS_4lessIS7_EELb1EEENS5_ISD_EEEC2ERKSH_, symObjAddr: 0x206C4, symBinAddr: 0x1000235B8, symSize: 0x7C }
  - { offsetInCU: 0x4BCB9, offset: 0x4BCB9, size: 0x8, addend: 0x0, symName: __ZNSt3__117__compressed_pairINS_15__tree_end_nodeIPNS_16__tree_node_baseIPvEEEENS_9allocatorINS_11__tree_nodeINS_12__value_typeINS_12basic_stringIcNS_11char_traitsIcEENS7_IcEEEENS_6chrono8durationIdNS_5ratioILl1ELl1EEEEEEES3_EEEEEC1B8ue170006ILb1EvEEv, symObjAddr: 0x20740, symBinAddr: 0x100023634, symSize: 0x2C }
  - { offsetInCU: 0x4BCEE, offset: 0x4BCEE, size: 0x8, addend: 0x0, symName: __ZNSt3__117__compressed_pairImNS_19__map_value_compareINS_12basic_stringIcNS_11char_traitsIcEENS_9allocatorIcEEEENS_12__value_typeIS7_NS_6chrono8durationIdNS_5ratioILl1ELl1EEEEEEENS_4lessIS7_EELb1EEEEC1B8ue170006IiRKSH_EEOT_OT0_, symObjAddr: 0x2076C, symBinAddr: 0x100023660, symSize: 0x3C }
  - { offsetInCU: 0x4BD46, offset: 0x4BD46, size: 0x8, addend: 0x0, symName: __ZNSt3__16__treeINS_12__value_typeINS_12basic_stringIcNS_11char_traitsIcEENS_9allocatorIcEEEENS_6chrono8durationIdNS_5ratioILl1ELl1EEEEEEENS_19__map_value_compareIS7_SD_NS_4lessIS7_EELb1EEENS5_ISD_EEE10__end_nodeB8ue170006Ev, symObjAddr: 0x207A8, symBinAddr: 0x10002369C, symSize: 0x2C }
  - { offsetInCU: 0x4BD6C, offset: 0x4BD6C, size: 0x8, addend: 0x0, symName: __ZNSt3__16__treeINS_12__value_typeINS_12basic_stringIcNS_11char_traitsIcEENS_9allocatorIcEEEENS_6chrono8durationIdNS_5ratioILl1ELl1EEEEEEENS_19__map_value_compareIS7_SD_NS_4lessIS7_EELb1EEENS5_ISD_EEE12__begin_nodeB8ue170006Ev, symObjAddr: 0x207D4, symBinAddr: 0x1000236C8, symSize: 0x14 }
  - { offsetInCU: 0x4BD92, offset: 0x4BD92, size: 0x8, addend: 0x0, symName: __ZNSt3__117__compressed_pairINS_15__tree_end_nodeIPNS_16__tree_node_baseIPvEEEENS_9allocatorINS_11__tree_nodeINS_12__value_typeINS_12basic_stringIcNS_11char_traitsIcEENS7_IcEEEENS_6chrono8durationIdNS_5ratioILl1ELl1EEEEEEES3_EEEEEC2B8ue170006ILb1EvEEv, symObjAddr: 0x207E8, symBinAddr: 0x1000236DC, symSize: 0x34 }
  - { offsetInCU: 0x4BDC7, offset: 0x4BDC7, size: 0x8, addend: 0x0, symName: __ZNSt3__122__compressed_pair_elemINS_15__tree_end_nodeIPNS_16__tree_node_baseIPvEEEELi0ELb0EEC2B8ue170006ENS_16__value_init_tagE, symObjAddr: 0x2081C, symBinAddr: 0x100023710, symSize: 0x2C }
  - { offsetInCU: 0x4BDFB, offset: 0x4BDFB, size: 0x8, addend: 0x0, symName: __ZNSt3__122__compressed_pair_elemINS_9allocatorINS_11__tree_nodeINS_12__value_typeINS_12basic_stringIcNS_11char_traitsIcEENS1_IcEEEENS_6chrono8durationIdNS_5ratioILl1ELl1EEEEEEEPvEEEELi1ELb1EEC2B8ue170006ENS_16__value_init_tagE, symObjAddr: 0x20848, symBinAddr: 0x10002373C, symSize: 0x2C }
  - { offsetInCU: 0x4BE2F, offset: 0x4BE2F, size: 0x8, addend: 0x0, symName: __ZNSt3__19allocatorINS_11__tree_nodeINS_12__value_typeINS_12basic_stringIcNS_11char_traitsIcEENS0_IcEEEENS_6chrono8durationIdNS_5ratioILl1ELl1EEEEEEEPvEEEC2B8ue170006Ev, symObjAddr: 0x20874, symBinAddr: 0x100023768, symSize: 0x2C }
  - { offsetInCU: 0x4BE59, offset: 0x4BE59, size: 0x8, addend: 0x0, symName: __ZNSt3__116__non_trivial_ifILb1ENS_9allocatorINS_11__tree_nodeINS_12__value_typeINS_12basic_stringIcNS_11char_traitsIcEENS1_IcEEEENS_6chrono8durationIdNS_5ratioILl1ELl1EEEEEEEPvEEEEEC2B8ue170006Ev, symObjAddr: 0x208A0, symBinAddr: 0x100023794, symSize: 0x14 }
  - { offsetInCU: 0x4BE83, offset: 0x4BE83, size: 0x8, addend: 0x0, symName: __ZNSt3__117__compressed_pairImNS_19__map_value_compareINS_12basic_stringIcNS_11char_traitsIcEENS_9allocatorIcEEEENS_12__value_typeIS7_NS_6chrono8durationIdNS_5ratioILl1ELl1EEEEEEENS_4lessIS7_EELb1EEEEC2B8ue170006IiRKSH_EEOT_OT0_, symObjAddr: 0x208B4, symBinAddr: 0x1000237A8, symSize: 0x44 }
  - { offsetInCU: 0x4BEDB, offset: 0x4BEDB, size: 0x8, addend: 0x0, symName: __ZNSt3__122__compressed_pair_elemINS_19__map_value_compareINS_12basic_stringIcNS_11char_traitsIcEENS_9allocatorIcEEEENS_12__value_typeIS7_NS_6chrono8durationIdNS_5ratioILl1ELl1EEEEEEENS_4lessIS7_EELb1EEELi1ELb1EEC2B8ue170006IRKSH_vEEOT_, symObjAddr: 0x208F8, symBinAddr: 0x1000237EC, symSize: 0x18 }
  - { offsetInCU: 0x4BF1D, offset: 0x4BF1D, size: 0x8, addend: 0x0, symName: __ZNSt3__117__compressed_pairINS_15__tree_end_nodeIPNS_16__tree_node_baseIPvEEEENS_9allocatorINS_11__tree_nodeINS_12__value_typeINS_12basic_stringIcNS_11char_traitsIcEENS7_IcEEEENS_6chrono8durationIdNS_5ratioILl1ELl1EEEEEEES3_EEEEE5firstB8ue170006Ev, symObjAddr: 0x20910, symBinAddr: 0x100023804, symSize: 0x24 }
  - { offsetInCU: 0x4BF43, offset: 0x4BF43, size: 0x8, addend: 0x0, symName: __ZNSt3__13mapINS_12basic_stringIcNS_11char_traitsIcEENS_9allocatorIcEEEENS_6chrono8durationIdNS_5ratioILl1ELl1EEEEENS_4lessIS6_EENS4_INS_4pairIKS6_SB_EEEEED2B8ue170006Ev, symObjAddr: 0x20934, symBinAddr: 0x100023828, symSize: 0x2C }
  - { offsetInCU: 0x4BF6D, offset: 0x4BF6D, size: 0x8, addend: 0x0, symName: __ZNSt3__16__treeINS_12__value_typeINS_12basic_stringIcNS_11char_traitsIcEENS_9allocatorIcEEEENS_6chrono8durationIdNS_5ratioILl1ELl1EEEEEEENS_19__map_value_compareIS7_SD_NS_4lessIS7_EELb1EEENS5_ISD_EEED1Ev, symObjAddr: 0x20960, symBinAddr: 0x100023854, symSize: 0x2C }
  - { offsetInCU: 0x4BF99, offset: 0x4BF99, size: 0x8, addend: 0x0, symName: __ZNSt3__16__treeINS_12__value_typeINS_12basic_stringIcNS_11char_traitsIcEENS_9allocatorIcEEEENS_6chrono8durationIdNS_5ratioILl1ELl1EEEEEEENS_19__map_value_compareIS7_SD_NS_4lessIS7_EELb1EEENS5_ISD_EEED2Ev, symObjAddr: 0x2098C, symBinAddr: 0x100023880, symSize: 0x38 }
  - { offsetInCU: 0x4BFC5, offset: 0x4BFC5, size: 0x8, addend: 0x0, symName: __ZNSt3__16__treeINS_12__value_typeINS_12basic_stringIcNS_11char_traitsIcEENS_9allocatorIcEEEENS_6chrono8durationIdNS_5ratioILl1ELl1EEEEEEENS_19__map_value_compareIS7_SD_NS_4lessIS7_EELb1EEENS5_ISD_EEE7destroyEPNS_11__tree_nodeISD_PvEE, symObjAddr: 0x209C4, symBinAddr: 0x1000238B8, symSize: 0xAC }
  - { offsetInCU: 0x4C011, offset: 0x4C011, size: 0x8, addend: 0x0, symName: __ZNKSt3__16__treeINS_12__value_typeINS_12basic_stringIcNS_11char_traitsIcEENS_9allocatorIcEEEENS_6chrono8durationIdNS_5ratioILl1ELl1EEEEEEENS_19__map_value_compareIS7_SD_NS_4lessIS7_EELb1EEENS5_ISD_EEE6__rootB8ue170006Ev, symObjAddr: 0x20A70, symBinAddr: 0x100023964, symSize: 0x28 }
  - { offsetInCU: 0x4C037, offset: 0x4C037, size: 0x8, addend: 0x0, symName: __ZNSt3__16__treeINS_12__value_typeINS_12basic_stringIcNS_11char_traitsIcEENS_9allocatorIcEEEENS_6chrono8durationIdNS_5ratioILl1ELl1EEEEEEENS_19__map_value_compareIS7_SD_NS_4lessIS7_EELb1EEENS5_ISD_EEE12__node_allocB8ue170006Ev, symObjAddr: 0x20A98, symBinAddr: 0x10002398C, symSize: 0x28 }
  - { offsetInCU: 0x4C05D, offset: 0x4C05D, size: 0x8, addend: 0x0, symName: __ZNSt3__116allocator_traitsINS_9allocatorINS_11__tree_nodeINS_12__value_typeINS_12basic_stringIcNS_11char_traitsIcEENS1_IcEEEENS_6chrono8durationIdNS_5ratioILl1ELl1EEEEEEEPvEEEEE7destroyB8ue170006INS_4pairIKS8_SD_EEvvEEvRSH_PT_, symObjAddr: 0x20AC0, symBinAddr: 0x1000239B4, symSize: 0x28 }
  - { offsetInCU: 0x4C097, offset: 0x4C097, size: 0x8, addend: 0x0, symName: __ZNSt3__122__tree_key_value_typesINS_12__value_typeINS_12basic_stringIcNS_11char_traitsIcEENS_9allocatorIcEEEENS_6chrono8durationIdNS_5ratioILl1ELl1EEEEEEEE9__get_ptrB8ue170006ERSD_, symObjAddr: 0x20AE8, symBinAddr: 0x1000239DC, symSize: 0x24 }
  - { offsetInCU: 0x4C0BB, offset: 0x4C0BB, size: 0x8, addend: 0x0, symName: __ZNSt3__116allocator_traitsINS_9allocatorINS_11__tree_nodeINS_12__value_typeINS_12basic_stringIcNS_11char_traitsIcEENS1_IcEEEENS_6chrono8durationIdNS_5ratioILl1ELl1EEEEEEEPvEEEEE10deallocateB8ue170006ERSH_PSG_m, symObjAddr: 0x20B0C, symBinAddr: 0x100023A00, symSize: 0x34 }
  - { offsetInCU: 0x4C0FD, offset: 0x4C0FD, size: 0x8, addend: 0x0, symName: __ZNSt3__117__compressed_pairINS_15__tree_end_nodeIPNS_16__tree_node_baseIPvEEEENS_9allocatorINS_11__tree_nodeINS_12__value_typeINS_12basic_stringIcNS_11char_traitsIcEENS7_IcEEEENS_6chrono8durationIdNS_5ratioILl1ELl1EEEEEEES3_EEEEE6secondB8ue170006Ev, symObjAddr: 0x20B40, symBinAddr: 0x100023A34, symSize: 0x24 }
  - { offsetInCU: 0x4C123, offset: 0x4C123, size: 0x8, addend: 0x0, symName: __ZNSt3__122__compressed_pair_elemINS_9allocatorINS_11__tree_nodeINS_12__value_typeINS_12basic_stringIcNS_11char_traitsIcEENS1_IcEEEENS_6chrono8durationIdNS_5ratioILl1ELl1EEEEEEEPvEEEELi1ELb1EE5__getB8ue170006Ev, symObjAddr: 0x20B64, symBinAddr: 0x100023A58, symSize: 0x14 }
  - { offsetInCU: 0x4C149, offset: 0x4C149, size: 0x8, addend: 0x0, symName: __ZNSt3__14pairIKNS_12basic_stringIcNS_11char_traitsIcEENS_9allocatorIcEEEENS_6chrono8durationIdNS_5ratioILl1ELl1EEEEEED1Ev, symObjAddr: 0x20B78, symBinAddr: 0x100023A6C, symSize: 0x2C }
  - { offsetInCU: 0x4C175, offset: 0x4C175, size: 0x8, addend: 0x0, symName: __ZNSt3__14pairIKNS_12basic_stringIcNS_11char_traitsIcEENS_9allocatorIcEEEENS_6chrono8durationIdNS_5ratioILl1ELl1EEEEEED2Ev, symObjAddr: 0x20BA4, symBinAddr: 0x100023A98, symSize: 0x2C }
  - { offsetInCU: 0x4C1A1, offset: 0x4C1A1, size: 0x8, addend: 0x0, symName: __ZNSt3__112__value_typeINS_12basic_stringIcNS_11char_traitsIcEENS_9allocatorIcEEEENS_6chrono8durationIdNS_5ratioILl1ELl1EEEEEE11__get_valueB8ue170006Ev, symObjAddr: 0x20BD0, symBinAddr: 0x100023AC4, symSize: 0x14 }
  - { offsetInCU: 0x4C1C7, offset: 0x4C1C7, size: 0x8, addend: 0x0, symName: __ZNSt3__19allocatorINS_11__tree_nodeINS_12__value_typeINS_12basic_stringIcNS_11char_traitsIcEENS0_IcEEEENS_6chrono8durationIdNS_5ratioILl1ELl1EEEEEEEPvEEE10deallocateB8ue170006EPSF_m, symObjAddr: 0x20BE4, symBinAddr: 0x100023AD8, symSize: 0x40 }
  - { offsetInCU: 0x4C209, offset: 0x4C209, size: 0x8, addend: 0x0, symName: __ZNKSt3__16__treeINS_12__value_typeINS_12basic_stringIcNS_11char_traitsIcEENS_9allocatorIcEEEENS_6chrono8durationIdNS_5ratioILl1ELl1EEEEEEENS_19__map_value_compareIS7_SD_NS_4lessIS7_EELb1EEENS5_ISD_EEE10__end_nodeB8ue170006Ev, symObjAddr: 0x20C24, symBinAddr: 0x100023B18, symSize: 0x2C }
  - { offsetInCU: 0x4C22F, offset: 0x4C22F, size: 0x8, addend: 0x0, symName: __ZNKSt3__117__compressed_pairINS_15__tree_end_nodeIPNS_16__tree_node_baseIPvEEEENS_9allocatorINS_11__tree_nodeINS_12__value_typeINS_12basic_stringIcNS_11char_traitsIcEENS7_IcEEEENS_6chrono8durationIdNS_5ratioILl1ELl1EEEEEEES3_EEEEE5firstB8ue170006Ev, symObjAddr: 0x20C50, symBinAddr: 0x100023B44, symSize: 0x24 }
  - { offsetInCU: 0x4C255, offset: 0x4C255, size: 0x8, addend: 0x0, symName: __ZNSt3__16__treeINS_12__value_typeINS_12basic_stringIcNS_11char_traitsIcEENS_9allocatorIcEEEENS_6chrono8durationIdNS_5ratioILl1ELl1EEEEEEENS_19__map_value_compareIS7_SD_NS_4lessIS7_EELb1EEENS5_ISD_EEE25__emplace_unique_key_argsIS7_JRKNS_21piecewise_construct_tENS_5tupleIJOS7_EEENSO_IJEEEEEENS_4pairINS_15__tree_iteratorISD_PNS_11__tree_nodeISD_PvEElEEbEERKT_DpOT0_, symObjAddr: 0x20C74, symBinAddr: 0x100023B68, symSize: 0x100 }
  - { offsetInCU: 0x4C32B, offset: 0x4C32B, size: 0x8, addend: 0x0, symName: __ZNKSt3__115__tree_iteratorINS_12__value_typeINS_12basic_stringIcNS_11char_traitsIcEENS_9allocatorIcEEEENS_6chrono8durationIdNS_5ratioILl1ELl1EEEEEEEPNS_11__tree_nodeISD_PvEElEptB8ue170006Ev, symObjAddr: 0x20DA0, symBinAddr: 0x100023C94, symSize: 0x2C }
  - { offsetInCU: 0x4C351, offset: 0x4C351, size: 0x8, addend: 0x0, symName: __ZNSt3__16__treeINS_12__value_typeINS_12basic_stringIcNS_11char_traitsIcEENS_9allocatorIcEEEENS_6chrono8durationIdNS_5ratioILl1ELl1EEEEEEENS_19__map_value_compareIS7_SD_NS_4lessIS7_EELb1EEENS5_ISD_EEE12__find_equalIS7_EERPNS_16__tree_node_baseIPvEERPNS_15__tree_end_nodeISO_EERKT_, symObjAddr: 0x20DCC, symBinAddr: 0x100023CC0, symSize: 0x184 }
  - { offsetInCU: 0x4C3BE, offset: 0x4C3BE, size: 0x8, addend: 0x0, symName: __ZNSt3__16__treeINS_12__value_typeINS_12basic_stringIcNS_11char_traitsIcEENS_9allocatorIcEEEENS_6chrono8durationIdNS_5ratioILl1ELl1EEEEEEENS_19__map_value_compareIS7_SD_NS_4lessIS7_EELb1EEENS5_ISD_EEE16__construct_nodeIJRKNS_21piecewise_construct_tENS_5tupleIJOS7_EEENSO_IJEEEEEENS_10unique_ptrINS_11__tree_nodeISD_PvEENS_22__tree_node_destructorINS5_ISV_EEEEEEDpOT_, symObjAddr: 0x20F50, symBinAddr: 0x100023E44, symSize: 0x120 }
  - { offsetInCU: 0x4C447, offset: 0x4C447, size: 0x8, addend: 0x0, symName: __ZNSt3__16__treeINS_12__value_typeINS_12basic_stringIcNS_11char_traitsIcEENS_9allocatorIcEEEENS_6chrono8durationIdNS_5ratioILl1ELl1EEEEEEENS_19__map_value_compareIS7_SD_NS_4lessIS7_EELb1EEENS5_ISD_EEE16__insert_node_atEPNS_15__tree_end_nodeIPNS_16__tree_node_baseIPvEEEERSO_SO_, symObjAddr: 0x21070, symBinAddr: 0x100023F64, symSize: 0xCC }
  - { offsetInCU: 0x4C49C, offset: 0x4C49C, size: 0x8, addend: 0x0, symName: __ZNKSt3__110unique_ptrINS_11__tree_nodeINS_12__value_typeINS_12basic_stringIcNS_11char_traitsIcEENS_9allocatorIcEEEENS_6chrono8durationIdNS_5ratioILl1ELl1EEEEEEEPvEENS_22__tree_node_destructorINS6_ISG_EEEEE3getB8ue170006Ev, symObjAddr: 0x2113C, symBinAddr: 0x100024030, symSize: 0x28 }
  - { offsetInCU: 0x4C4C2, offset: 0x4C4C2, size: 0x8, addend: 0x0, symName: __ZNSt3__110unique_ptrINS_11__tree_nodeINS_12__value_typeINS_12basic_stringIcNS_11char_traitsIcEENS_9allocatorIcEEEENS_6chrono8durationIdNS_5ratioILl1ELl1EEEEEEEPvEENS_22__tree_node_destructorINS6_ISG_EEEEE7releaseB8ue170006Ev, symObjAddr: 0x21164, symBinAddr: 0x100024058, symSize: 0x44 }
  - { offsetInCU: 0x4C4F7, offset: 0x4C4F7, size: 0x8, addend: 0x0, symName: __ZNSt3__110unique_ptrINS_11__tree_nodeINS_12__value_typeINS_12basic_stringIcNS_11char_traitsIcEENS_9allocatorIcEEEENS_6chrono8durationIdNS_5ratioILl1ELl1EEEEEEEPvEENS_22__tree_node_destructorINS6_ISG_EEEEED1B8ue170006Ev, symObjAddr: 0x211A8, symBinAddr: 0x10002409C, symSize: 0x2C }
  - { offsetInCU: 0x4C521, offset: 0x4C521, size: 0x8, addend: 0x0, symName: __ZNSt3__115__tree_iteratorINS_12__value_typeINS_12basic_stringIcNS_11char_traitsIcEENS_9allocatorIcEEEENS_6chrono8durationIdNS_5ratioILl1ELl1EEEEEEEPNS_11__tree_nodeISD_PvEElEC1B8ue170006ESH_, symObjAddr: 0x211D4, symBinAddr: 0x1000240C8, symSize: 0x34 }
  - { offsetInCU: 0x4C560, offset: 0x4C560, size: 0x8, addend: 0x0, symName: __ZNSt3__14pairINS_15__tree_iteratorINS_12__value_typeINS_12basic_stringIcNS_11char_traitsIcEENS_9allocatorIcEEEENS_6chrono8durationIdNS_5ratioILl1ELl1EEEEEEEPNS_11__tree_nodeISE_PvEElEEbEC1B8ue170006ISJ_RbLSG_0EEEOT_OT0_, symObjAddr: 0x21208, symBinAddr: 0x1000240FC, symSize: 0x3C }
  - { offsetInCU: 0x4C5BE, offset: 0x4C5BE, size: 0x8, addend: 0x0, symName: __ZNKSt3__16__treeINS_12__value_typeINS_12basic_stringIcNS_11char_traitsIcEENS_9allocatorIcEEEENS_6chrono8durationIdNS_5ratioILl1ELl1EEEEEEENS_19__map_value_compareIS7_SD_NS_4lessIS7_EELb1EEENS5_ISD_EEE10__root_ptrB8ue170006Ev, symObjAddr: 0x21244, symBinAddr: 0x100024138, symSize: 0x24 }
  - { offsetInCU: 0x4C5E4, offset: 0x4C5E4, size: 0x8, addend: 0x0, symName: __ZNSt3__16__treeINS_12__value_typeINS_12basic_stringIcNS_11char_traitsIcEENS_9allocatorIcEEEENS_6chrono8durationIdNS_5ratioILl1ELl1EEEEEEENS_19__map_value_compareIS7_SD_NS_4lessIS7_EELb1EEENS5_ISD_EEE10value_compB8ue170006Ev, symObjAddr: 0x21268, symBinAddr: 0x10002415C, symSize: 0x28 }
  - { offsetInCU: 0x4C60A, offset: 0x4C60A, size: 0x8, addend: 0x0, symName: __ZNKSt3__119__map_value_compareINS_12basic_stringIcNS_11char_traitsIcEENS_9allocatorIcEEEENS_12__value_typeIS6_NS_6chrono8durationIdNS_5ratioILl1ELl1EEEEEEENS_4lessIS6_EELb1EEclB8ue170006ERKS6_RKSD_, symObjAddr: 0x21290, symBinAddr: 0x100024184, symSize: 0x50 }
  - { offsetInCU: 0x4C64E, offset: 0x4C64E, size: 0x8, addend: 0x0, symName: __ZNKSt3__119__map_value_compareINS_12basic_stringIcNS_11char_traitsIcEENS_9allocatorIcEEEENS_12__value_typeIS6_NS_6chrono8durationIdNS_5ratioILl1ELl1EEEEEEENS_4lessIS6_EELb1EEclB8ue170006ERKSD_RKS6_, symObjAddr: 0x212E0, symBinAddr: 0x1000241D4, symSize: 0x48 }
  - { offsetInCU: 0x4C692, offset: 0x4C692, size: 0x8, addend: 0x0, symName: __ZNSt3__117__compressed_pairImNS_19__map_value_compareINS_12basic_stringIcNS_11char_traitsIcEENS_9allocatorIcEEEENS_12__value_typeIS7_NS_6chrono8durationIdNS_5ratioILl1ELl1EEEEEEENS_4lessIS7_EELb1EEEE6secondB8ue170006Ev, symObjAddr: 0x21328, symBinAddr: 0x10002421C, symSize: 0x24 }
  - { offsetInCU: 0x4C6B8, offset: 0x4C6B8, size: 0x8, addend: 0x0, symName: __ZNSt3__122__compressed_pair_elemINS_19__map_value_compareINS_12basic_stringIcNS_11char_traitsIcEENS_9allocatorIcEEEENS_12__value_typeIS7_NS_6chrono8durationIdNS_5ratioILl1ELl1EEEEEEENS_4lessIS7_EELb1EEELi1ELb1EE5__getB8ue170006Ev, symObjAddr: 0x2134C, symBinAddr: 0x100024240, symSize: 0x14 }
  - { offsetInCU: 0x4C6DE, offset: 0x4C6DE, size: 0x8, addend: 0x0, symName: __ZNKSt3__112__value_typeINS_12basic_stringIcNS_11char_traitsIcEENS_9allocatorIcEEEENS_6chrono8durationIdNS_5ratioILl1ELl1EEEEEE11__get_valueB8ue170006Ev, symObjAddr: 0x21360, symBinAddr: 0x100024254, symSize: 0x14 }
  - { offsetInCU: 0x4C704, offset: 0x4C704, size: 0x8, addend: 0x0, symName: __ZNSt3__116allocator_traitsINS_9allocatorINS_11__tree_nodeINS_12__value_typeINS_12basic_stringIcNS_11char_traitsIcEENS1_IcEEEENS_6chrono8durationIdNS_5ratioILl1ELl1EEEEEEEPvEEEEE8allocateB8ue170006ERSH_m, symObjAddr: 0x21374, symBinAddr: 0x100024268, symSize: 0x2C }
  - { offsetInCU: 0x4C737, offset: 0x4C737, size: 0x8, addend: 0x0, symName: __ZNSt3__122__tree_node_destructorINS_9allocatorINS_11__tree_nodeINS_12__value_typeINS_12basic_stringIcNS_11char_traitsIcEENS1_IcEEEENS_6chrono8durationIdNS_5ratioILl1ELl1EEEEEEEPvEEEEEC1B8ue170006ERSH_b, symObjAddr: 0x213A0, symBinAddr: 0x100024294, symSize: 0x48 }
  - { offsetInCU: 0x4C785, offset: 0x4C785, size: 0x8, addend: 0x0, symName: __ZNSt3__110unique_ptrINS_11__tree_nodeINS_12__value_typeINS_12basic_stringIcNS_11char_traitsIcEENS_9allocatorIcEEEENS_6chrono8durationIdNS_5ratioILl1ELl1EEEEEEEPvEENS_22__tree_node_destructorINS6_ISG_EEEEEC1B8ue170006ILb1EvEEPSG_NS_16__dependent_typeINS_27__unique_ptr_deleter_sfinaeISJ_EEXT_EE20__good_rval_ref_typeE, symObjAddr: 0x213E8, symBinAddr: 0x1000242DC, symSize: 0x3C }
  - { offsetInCU: 0x4C7D6, offset: 0x4C7D6, size: 0x8, addend: 0x0, symName: __ZNSt3__116allocator_traitsINS_9allocatorINS_11__tree_nodeINS_12__value_typeINS_12basic_stringIcNS_11char_traitsIcEENS1_IcEEEENS_6chrono8durationIdNS_5ratioILl1ELl1EEEEEEEPvEEEEE9constructB8ue170006INS_4pairIKS8_SD_EEJRKNS_21piecewise_construct_tENS_5tupleIJOS8_EEENSQ_IJEEEEvEEvRSH_PT_DpOT0_, symObjAddr: 0x21424, symBinAddr: 0x100024318, symSize: 0x44 }
  - { offsetInCU: 0x4C855, offset: 0x4C855, size: 0x8, addend: 0x0, symName: __ZNKSt3__110unique_ptrINS_11__tree_nodeINS_12__value_typeINS_12basic_stringIcNS_11char_traitsIcEENS_9allocatorIcEEEENS_6chrono8durationIdNS_5ratioILl1ELl1EEEEEEEPvEENS_22__tree_node_destructorINS6_ISG_EEEEEptB8ue170006Ev, symObjAddr: 0x21468, symBinAddr: 0x10002435C, symSize: 0x28 }
  - { offsetInCU: 0x4C87B, offset: 0x4C87B, size: 0x8, addend: 0x0, symName: __ZNSt3__110unique_ptrINS_11__tree_nodeINS_12__value_typeINS_12basic_stringIcNS_11char_traitsIcEENS_9allocatorIcEEEENS_6chrono8durationIdNS_5ratioILl1ELl1EEEEEEEPvEENS_22__tree_node_destructorINS6_ISG_EEEEE11get_deleterB8ue170006Ev, symObjAddr: 0x21490, symBinAddr: 0x100024384, symSize: 0x24 }
  - { offsetInCU: 0x4C8A1, offset: 0x4C8A1, size: 0x8, addend: 0x0, symName: __ZNSt3__19allocatorINS_11__tree_nodeINS_12__value_typeINS_12basic_stringIcNS_11char_traitsIcEENS0_IcEEEENS_6chrono8durationIdNS_5ratioILl1ELl1EEEEEEEPvEEE8allocateB8ue170006Em, symObjAddr: 0x214B4, symBinAddr: 0x1000243A8, symSize: 0x58 }
  - { offsetInCU: 0x4C8E1, offset: 0x4C8E1, size: 0x8, addend: 0x0, symName: __ZNSt3__116allocator_traitsINS_9allocatorINS_11__tree_nodeINS_12__value_typeINS_12basic_stringIcNS_11char_traitsIcEENS1_IcEEEENS_6chrono8durationIdNS_5ratioILl1ELl1EEEEEEEPvEEEEE8max_sizeB8ue170006ISH_vEEmRKSH_, symObjAddr: 0x2150C, symBinAddr: 0x100024400, symSize: 0x24 }
  - { offsetInCU: 0x4C90F, offset: 0x4C90F, size: 0x8, addend: 0x0, symName: __ZNKSt3__19allocatorINS_11__tree_nodeINS_12__value_typeINS_12basic_stringIcNS_11char_traitsIcEENS0_IcEEEENS_6chrono8durationIdNS_5ratioILl1ELl1EEEEEEEPvEEE8max_sizeB8ue170006Ev, symObjAddr: 0x21530, symBinAddr: 0x100024424, symSize: 0x14 }
  - { offsetInCU: 0x4C935, offset: 0x4C935, size: 0x8, addend: 0x0, symName: __ZNSt3__122__tree_node_destructorINS_9allocatorINS_11__tree_nodeINS_12__value_typeINS_12basic_stringIcNS_11char_traitsIcEENS1_IcEEEENS_6chrono8durationIdNS_5ratioILl1ELl1EEEEEEEPvEEEEEC2B8ue170006ERSH_b, symObjAddr: 0x21544, symBinAddr: 0x100024438, symSize: 0x38 }
  - { offsetInCU: 0x4C97D, offset: 0x4C97D, size: 0x8, addend: 0x0, symName: __ZNSt3__110unique_ptrINS_11__tree_nodeINS_12__value_typeINS_12basic_stringIcNS_11char_traitsIcEENS_9allocatorIcEEEENS_6chrono8durationIdNS_5ratioILl1ELl1EEEEEEEPvEENS_22__tree_node_destructorINS6_ISG_EEEEEC2B8ue170006ILb1EvEEPSG_NS_16__dependent_typeINS_27__unique_ptr_deleter_sfinaeISJ_EEXT_EE20__good_rval_ref_typeE, symObjAddr: 0x2157C, symBinAddr: 0x100024470, symSize: 0x48 }
  - { offsetInCU: 0x4C9CE, offset: 0x4C9CE, size: 0x8, addend: 0x0, symName: __ZNSt3__117__compressed_pairIPNS_11__tree_nodeINS_12__value_typeINS_12basic_stringIcNS_11char_traitsIcEENS_9allocatorIcEEEENS_6chrono8durationIdNS_5ratioILl1ELl1EEEEEEEPvEENS_22__tree_node_destructorINS6_ISG_EEEEEC1B8ue170006IRSH_SK_EEOT_OT0_, symObjAddr: 0x215C4, symBinAddr: 0x1000244B8, symSize: 0x3C }
  - { offsetInCU: 0x4CA26, offset: 0x4CA26, size: 0x8, addend: 0x0, symName: __ZNSt3__117__compressed_pairIPNS_11__tree_nodeINS_12__value_typeINS_12basic_stringIcNS_11char_traitsIcEENS_9allocatorIcEEEENS_6chrono8durationIdNS_5ratioILl1ELl1EEEEEEEPvEENS_22__tree_node_destructorINS6_ISG_EEEEEC2B8ue170006IRSH_SK_EEOT_OT0_, symObjAddr: 0x21600, symBinAddr: 0x1000244F4, symSize: 0x48 }
  - { offsetInCU: 0x4CA7E, offset: 0x4CA7E, size: 0x8, addend: 0x0, symName: __ZNSt3__122__compressed_pair_elemIPNS_11__tree_nodeINS_12__value_typeINS_12basic_stringIcNS_11char_traitsIcEENS_9allocatorIcEEEENS_6chrono8durationIdNS_5ratioILl1ELl1EEEEEEEPvEELi0ELb0EEC2B8ue170006IRSH_vEEOT_, symObjAddr: 0x21648, symBinAddr: 0x10002453C, symSize: 0x24 }
  - { offsetInCU: 0x4CAC0, offset: 0x4CAC0, size: 0x8, addend: 0x0, symName: __ZNSt3__122__compressed_pair_elemINS_22__tree_node_destructorINS_9allocatorINS_11__tree_nodeINS_12__value_typeINS_12basic_stringIcNS_11char_traitsIcEENS2_IcEEEENS_6chrono8durationIdNS_5ratioILl1ELl1EEEEEEEPvEEEEEELi1ELb0EEC2B8ue170006ISJ_vEEOT_, symObjAddr: 0x2166C, symBinAddr: 0x100024560, symSize: 0x24 }
  - { offsetInCU: 0x4CB02, offset: 0x4CB02, size: 0x8, addend: 0x0, symName: __ZNSt3__19allocatorINS_11__tree_nodeINS_12__value_typeINS_12basic_stringIcNS_11char_traitsIcEENS0_IcEEEENS_6chrono8durationIdNS_5ratioILl1ELl1EEEEEEEPvEEE9constructB8ue170006INS_4pairIKS7_SC_EEJRKNS_21piecewise_construct_tENS_5tupleIJOS7_EEENSO_IJEEEEEEvPT_DpOT0_, symObjAddr: 0x21690, symBinAddr: 0x100024584, symSize: 0x44 }
  - { offsetInCU: 0x4CB7E, offset: 0x4CB7E, size: 0x8, addend: 0x0, symName: __ZNSt3__14pairIKNS_12basic_stringIcNS_11char_traitsIcEENS_9allocatorIcEEEENS_6chrono8durationIdNS_5ratioILl1ELl1EEEEEEC1B8ue170006IJOS6_EJEEENS_21piecewise_construct_tENS_5tupleIJDpT_EEENSH_IJDpT0_EEE, symObjAddr: 0x216D4, symBinAddr: 0x1000245C8, symSize: 0x44 }
  - { offsetInCU: 0x4CBE5, offset: 0x4CBE5, size: 0x8, addend: 0x0, symName: __ZNSt3__14pairIKNS_12basic_stringIcNS_11char_traitsIcEENS_9allocatorIcEEEENS_6chrono8durationIdNS_5ratioILl1ELl1EEEEEEC1B8ue170006IJOS6_EJEJLm0EEJEEENS_21piecewise_construct_tERNS_5tupleIJDpT_EEERNSH_IJDpT0_EEENS_15__tuple_indicesIJXspT1_EEEENSQ_IJXspT2_EEEE, symObjAddr: 0x21718, symBinAddr: 0x10002460C, symSize: 0x3C }
  - { offsetInCU: 0x4CC72, offset: 0x4CC72, size: 0x8, addend: 0x0, symName: __ZNSt3__14pairIKNS_12basic_stringIcNS_11char_traitsIcEENS_9allocatorIcEEEENS_6chrono8durationIdNS_5ratioILl1ELl1EEEEEEC2B8ue170006IJOS6_EJEJLm0EEJEEENS_21piecewise_construct_tERNS_5tupleIJDpT_EEERNSH_IJDpT0_EEENS_15__tuple_indicesIJXspT1_EEEENSQ_IJXspT2_EEEE, symObjAddr: 0x21754, symBinAddr: 0x100024648, symSize: 0x48 }
  - { offsetInCU: 0x4CCFF, offset: 0x4CCFF, size: 0x8, addend: 0x0, symName: __ZNSt3__112basic_stringIcNS_11char_traitsIcEENS_9allocatorIcEEEC1B8ue170006EOS5_, symObjAddr: 0x217C0, symBinAddr: 0x1000246B4, symSize: 0x34 }
  - { offsetInCU: 0x4CD38, offset: 0x4CD38, size: 0x8, addend: 0x0, symName: __ZNSt3__112__tuple_leafILm0EONS_12basic_stringIcNS_11char_traitsIcEENS_9allocatorIcEEEELb0EE3getB8ue170006Ev, symObjAddr: 0x217F4, symBinAddr: 0x1000246E8, symSize: 0x18 }
  - { offsetInCU: 0x4CD5E, offset: 0x4CD5E, size: 0x8, addend: 0x0, symName: __ZNSt3__112basic_stringIcNS_11char_traitsIcEENS_9allocatorIcEEEC2B8ue170006EOS5_, symObjAddr: 0x2180C, symBinAddr: 0x100024700, symSize: 0x50 }
  - { offsetInCU: 0x4CD97, offset: 0x4CD97, size: 0x8, addend: 0x0, symName: __ZNSt3__112basic_stringIcNS_11char_traitsIcEENS_9allocatorIcEEE14__default_initB8ue170006Ev, symObjAddr: 0x2185C, symBinAddr: 0x100024750, symSize: 0x40 }
  - { offsetInCU: 0x4CDBD, offset: 0x4CDBD, size: 0x8, addend: 0x0, symName: __ZNKSt3__117__compressed_pairIPNS_11__tree_nodeINS_12__value_typeINS_12basic_stringIcNS_11char_traitsIcEENS_9allocatorIcEEEENS_6chrono8durationIdNS_5ratioILl1ELl1EEEEEEEPvEENS_22__tree_node_destructorINS6_ISG_EEEEE5firstB8ue170006Ev, symObjAddr: 0x2189C, symBinAddr: 0x100024790, symSize: 0x24 }
  - { offsetInCU: 0x4CDE3, offset: 0x4CDE3, size: 0x8, addend: 0x0, symName: __ZNKSt3__122__compressed_pair_elemIPNS_11__tree_nodeINS_12__value_typeINS_12basic_stringIcNS_11char_traitsIcEENS_9allocatorIcEEEENS_6chrono8durationIdNS_5ratioILl1ELl1EEEEEEEPvEELi0ELb0EE5__getB8ue170006Ev, symObjAddr: 0x218C0, symBinAddr: 0x1000247B4, symSize: 0x14 }
  - { offsetInCU: 0x4CE09, offset: 0x4CE09, size: 0x8, addend: 0x0, symName: __ZNSt3__117__compressed_pairIPNS_11__tree_nodeINS_12__value_typeINS_12basic_stringIcNS_11char_traitsIcEENS_9allocatorIcEEEENS_6chrono8durationIdNS_5ratioILl1ELl1EEEEEEEPvEENS_22__tree_node_destructorINS6_ISG_EEEEE6secondB8ue170006Ev, symObjAddr: 0x218D4, symBinAddr: 0x1000247C8, symSize: 0x28 }
  - { offsetInCU: 0x4CE2F, offset: 0x4CE2F, size: 0x8, addend: 0x0, symName: __ZNSt3__122__compressed_pair_elemINS_22__tree_node_destructorINS_9allocatorINS_11__tree_nodeINS_12__value_typeINS_12basic_stringIcNS_11char_traitsIcEENS2_IcEEEENS_6chrono8durationIdNS_5ratioILl1ELl1EEEEEEEPvEEEEEELi1ELb0EE5__getB8ue170006Ev, symObjAddr: 0x218FC, symBinAddr: 0x1000247F0, symSize: 0x14 }
  - { offsetInCU: 0x4CE55, offset: 0x4CE55, size: 0x8, addend: 0x0, symName: __ZNSt3__16__treeINS_12__value_typeINS_12basic_stringIcNS_11char_traitsIcEENS_9allocatorIcEEEENS_6chrono8durationIdNS_5ratioILl1ELl1EEEEEEENS_19__map_value_compareIS7_SD_NS_4lessIS7_EELb1EEENS5_ISD_EEE4sizeB8ue170006Ev, symObjAddr: 0x21910, symBinAddr: 0x100024804, symSize: 0x28 }
  - { offsetInCU: 0x4CE7B, offset: 0x4CE7B, size: 0x8, addend: 0x0, symName: __ZNSt3__117__compressed_pairImNS_19__map_value_compareINS_12basic_stringIcNS_11char_traitsIcEENS_9allocatorIcEEEENS_12__value_typeIS7_NS_6chrono8durationIdNS_5ratioILl1ELl1EEEEEEENS_4lessIS7_EELb1EEEE5firstB8ue170006Ev, symObjAddr: 0x21938, symBinAddr: 0x10002482C, symSize: 0x24 }
  - { offsetInCU: 0x4CEA1, offset: 0x4CEA1, size: 0x8, addend: 0x0, symName: __ZNSt3__117__compressed_pairIPNS_11__tree_nodeINS_12__value_typeINS_12basic_stringIcNS_11char_traitsIcEENS_9allocatorIcEEEENS_6chrono8durationIdNS_5ratioILl1ELl1EEEEEEEPvEENS_22__tree_node_destructorINS6_ISG_EEEEE5firstB8ue170006Ev, symObjAddr: 0x2195C, symBinAddr: 0x100024850, symSize: 0x24 }
  - { offsetInCU: 0x4CEC7, offset: 0x4CEC7, size: 0x8, addend: 0x0, symName: __ZNSt3__122__compressed_pair_elemIPNS_11__tree_nodeINS_12__value_typeINS_12basic_stringIcNS_11char_traitsIcEENS_9allocatorIcEEEENS_6chrono8durationIdNS_5ratioILl1ELl1EEEEEEEPvEELi0ELb0EE5__getB8ue170006Ev, symObjAddr: 0x21980, symBinAddr: 0x100024874, symSize: 0x14 }
  - { offsetInCU: 0x4CEED, offset: 0x4CEED, size: 0x8, addend: 0x0, symName: __ZNSt3__110unique_ptrINS_11__tree_nodeINS_12__value_typeINS_12basic_stringIcNS_11char_traitsIcEENS_9allocatorIcEEEENS_6chrono8durationIdNS_5ratioILl1ELl1EEEEEEEPvEENS_22__tree_node_destructorINS6_ISG_EEEEED2B8ue170006Ev, symObjAddr: 0x21994, symBinAddr: 0x100024888, symSize: 0x30 }
  - { offsetInCU: 0x4CF17, offset: 0x4CF17, size: 0x8, addend: 0x0, symName: __ZNSt3__110unique_ptrINS_11__tree_nodeINS_12__value_typeINS_12basic_stringIcNS_11char_traitsIcEENS_9allocatorIcEEEENS_6chrono8durationIdNS_5ratioILl1ELl1EEEEEEEPvEENS_22__tree_node_destructorINS6_ISG_EEEEE5resetB8ue170006EPSG_, symObjAddr: 0x219C4, symBinAddr: 0x1000248B8, symSize: 0x78 }
  - { offsetInCU: 0x4CF5B, offset: 0x4CF5B, size: 0x8, addend: 0x0, symName: __ZNSt3__122__tree_node_destructorINS_9allocatorINS_11__tree_nodeINS_12__value_typeINS_12basic_stringIcNS_11char_traitsIcEENS1_IcEEEENS_6chrono8durationIdNS_5ratioILl1ELl1EEEEEEEPvEEEEEclB8ue170006EPSG_, symObjAddr: 0x21A3C, symBinAddr: 0x100024930, symSize: 0x94 }
  - { offsetInCU: 0x4CF90, offset: 0x4CF90, size: 0x8, addend: 0x0, symName: __ZNSt3__115__tree_iteratorINS_12__value_typeINS_12basic_stringIcNS_11char_traitsIcEENS_9allocatorIcEEEENS_6chrono8durationIdNS_5ratioILl1ELl1EEEEEEEPNS_11__tree_nodeISD_PvEElEC2B8ue170006ESH_, symObjAddr: 0x21AD0, symBinAddr: 0x1000249C4, symSize: 0x20 }
  - { offsetInCU: 0x4CFC9, offset: 0x4CFC9, size: 0x8, addend: 0x0, symName: __ZNSt3__14pairINS_15__tree_iteratorINS_12__value_typeINS_12basic_stringIcNS_11char_traitsIcEENS_9allocatorIcEEEENS_6chrono8durationIdNS_5ratioILl1ELl1EEEEEEEPNS_11__tree_nodeISE_PvEElEEbEC2B8ue170006ISJ_RbLSG_0EEEOT_OT0_, symObjAddr: 0x21AF0, symBinAddr: 0x1000249E4, symSize: 0x38 }
  - { offsetInCU: 0x4D027, offset: 0x4D027, size: 0x8, addend: 0x0, symName: __ZNSt3__15tupleIJONS_12basic_stringIcNS_11char_traitsIcEENS_9allocatorIcEEEEEEC1B8ue170006IJS6_ELi0EEEDpOT_, symObjAddr: 0x21B28, symBinAddr: 0x100024A1C, symSize: 0x34 }
  - { offsetInCU: 0x4D071, offset: 0x4D071, size: 0x8, addend: 0x0, symName: __ZNSt3__15tupleIJONS_12basic_stringIcNS_11char_traitsIcEENS_9allocatorIcEEEEEEC2B8ue170006IJS6_ELi0EEEDpOT_, symObjAddr: 0x21B5C, symBinAddr: 0x100024A50, symSize: 0x34 }
  - { offsetInCU: 0x4D0BB, offset: 0x4D0BB, size: 0x8, addend: 0x0, symName: __ZNSt3__112__tuple_implINS_15__tuple_indicesIJLm0EEEEJONS_12basic_stringIcNS_11char_traitsIcEENS_9allocatorIcEEEEEEC1B8ue170006IJLm0EEJS9_EJEJEJS8_EEENS1_IJXspT_EEEENS_13__tuple_typesIJDpT0_EEENS1_IJXspT1_EEEENSD_IJDpT2_EEEDpOT3_, symObjAddr: 0x21B90, symBinAddr: 0x100024A84, symSize: 0x34 }
  - { offsetInCU: 0x4D14C, offset: 0x4D14C, size: 0x8, addend: 0x0, symName: __ZNSt3__112__tuple_implINS_15__tuple_indicesIJLm0EEEEJONS_12basic_stringIcNS_11char_traitsIcEENS_9allocatorIcEEEEEEC2B8ue170006IJLm0EEJS9_EJEJEJS8_EEENS1_IJXspT_EEEENS_13__tuple_typesIJDpT0_EEENS1_IJXspT1_EEEENSD_IJDpT2_EEEDpOT3_, symObjAddr: 0x21BC4, symBinAddr: 0x100024AB8, symSize: 0x34 }
  - { offsetInCU: 0x4D1DD, offset: 0x4D1DD, size: 0x8, addend: 0x0, symName: __ZNSt3__112__tuple_leafILm0EONS_12basic_stringIcNS_11char_traitsIcEENS_9allocatorIcEEEELb0EEC2B8ue170006IS6_vEEOT_, symObjAddr: 0x21BF8, symBinAddr: 0x100024AEC, symSize: 0x20 }
  - { offsetInCU: 0x4D220, offset: 0x4D220, size: 0x8, addend: 0x0, symName: __ZNSt3__114pointer_traitsIPNS_12__value_typeINS_12basic_stringIcNS_11char_traitsIcEENS_9allocatorIcEEEENS_6chrono8durationIdNS_5ratioILl1ELl1EEEEEEEE10pointer_toB8ue170006ERSD_, symObjAddr: 0x21C18, symBinAddr: 0x100024B0C, symSize: 0x14 }
  - { offsetInCU: 0x4D243, offset: 0x4D243, size: 0x8, addend: 0x0, symName: __ZNKSt3__115__tree_iteratorINS_12__value_typeINS_12basic_stringIcNS_11char_traitsIcEENS_9allocatorIcEEEENS_6chrono8durationIdNS_5ratioILl1ELl1EEEEEEEPNS_11__tree_nodeISD_PvEElE8__get_npB8ue170006Ev, symObjAddr: 0x21C2C, symBinAddr: 0x100024B20, symSize: 0x18 }
  - { offsetInCU: 0x4D269, offset: 0x4D269, size: 0x8, addend: 0x0, symName: __ZNSt3__123mersenne_twister_engineIjLm32ELm624ELm397ELm31ELj2567483615ELm11ELj4294967295ELm7ELj2636928640ELm15ELj4022730752ELm18ELj1812433253EEC2B8ue170006Ej, symObjAddr: 0x21C44, symBinAddr: 0x100024B38, symSize: 0x34 }
  - { offsetInCU: 0x4D2A1, offset: 0x4D2A1, size: 0x8, addend: 0x0, symName: __ZNSt3__123mersenne_twister_engineIjLm32ELm624ELm397ELm31ELj2567483615ELm11ELj4294967295ELm7ELj2636928640ELm15ELj4022730752ELm18ELj1812433253EE4seedEj, symObjAddr: 0x21C78, symBinAddr: 0x100024B6C, symSize: 0xC4 }
  - { offsetInCU: 0x4D2F5, offset: 0x4D2F5, size: 0x8, addend: 0x0, symName: __ZNSt3__123mersenne_twister_engineIjLm32ELm624ELm397ELm31ELj2567483615ELm11ELj4294967295ELm7ELj2636928640ELm15ELj4022730752ELm18ELj1812433253EE8__rshiftB8ue170006ILm30EEENS_9enable_ifIXltT_L_ZNS1_3_DtEEEjE4typeEj, symObjAddr: 0x21D3C, symBinAddr: 0x100024C30, symSize: 0x18 }
  - { offsetInCU: 0x4D322, offset: 0x4D322, size: 0x8, addend: 0x0, symName: __ZNSt3__125uniform_real_distributionIdEC2B8ue170006Edd, symObjAddr: 0x21D54, symBinAddr: 0x100024C48, symSize: 0x3C }
  - { offsetInCU: 0x4D368, offset: 0x4D368, size: 0x8, addend: 0x0, symName: __ZNSt3__125uniform_real_distributionIdE10param_typeC1B8ue170006Edd, symObjAddr: 0x21D90, symBinAddr: 0x100024C84, symSize: 0x3C }
  - { offsetInCU: 0x4D3AE, offset: 0x4D3AE, size: 0x8, addend: 0x0, symName: __ZNSt3__125uniform_real_distributionIdE10param_typeC2B8ue170006Edd, symObjAddr: 0x21DCC, symBinAddr: 0x100024CC0, symSize: 0x2C }
  - { offsetInCU: 0x4D3F4, offset: 0x4D3F4, size: 0x8, addend: 0x0, symName: __ZNSt3__16vectorI5ChainNS_9allocatorIS1_EEED2B8ue170006Ev, symObjAddr: 0x21DF8, symBinAddr: 0x100024CEC, symSize: 0x44 }
  - { offsetInCU: 0x4D41E, offset: 0x4D41E, size: 0x8, addend: 0x0, symName: __ZNSt3__16vectorI5ChainNS_9allocatorIS1_EEE16__destroy_vectorC1B8ue170006ERS4_, symObjAddr: 0x21E3C, symBinAddr: 0x100024D30, symSize: 0x34 }
  - { offsetInCU: 0x4D457, offset: 0x4D457, size: 0x8, addend: 0x0, symName: __ZNSt3__16vectorI5ChainNS_9allocatorIS1_EEE16__destroy_vectorclB8ue170006Ev, symObjAddr: 0x21E70, symBinAddr: 0x100024D64, symSize: 0x90 }
  - { offsetInCU: 0x4D47D, offset: 0x4D47D, size: 0x8, addend: 0x0, symName: __ZNSt3__16vectorI5ChainNS_9allocatorIS1_EEE16__destroy_vectorC2B8ue170006ERS4_, symObjAddr: 0x21F00, symBinAddr: 0x100024DF4, symSize: 0x20 }
  - { offsetInCU: 0x4D4B6, offset: 0x4D4B6, size: 0x8, addend: 0x0, symName: __ZNSt3__16vectorI5ChainNS_9allocatorIS1_EEE7__clearB8ue170006Ev, symObjAddr: 0x21F20, symBinAddr: 0x100024E14, symSize: 0x28 }
  - { offsetInCU: 0x4D4DC, offset: 0x4D4DC, size: 0x8, addend: 0x0, symName: __ZNKSt3__16vectorI5ChainNS_9allocatorIS1_EEE17__annotate_deleteB8ue170006Ev, symObjAddr: 0x21F48, symBinAddr: 0x100024E3C, symSize: 0xD4 }
  - { offsetInCU: 0x4D502, offset: 0x4D502, size: 0x8, addend: 0x0, symName: __ZNSt3__116allocator_traitsINS_9allocatorI5ChainEEE10deallocateB8ue170006ERS3_PS2_m, symObjAddr: 0x2201C, symBinAddr: 0x100024F10, symSize: 0x34 }
  - { offsetInCU: 0x4D544, offset: 0x4D544, size: 0x8, addend: 0x0, symName: __ZNSt3__16vectorI5ChainNS_9allocatorIS1_EEE7__allocB8ue170006Ev, symObjAddr: 0x22050, symBinAddr: 0x100024F44, symSize: 0x28 }
  - { offsetInCU: 0x4D56A, offset: 0x4D56A, size: 0x8, addend: 0x0, symName: __ZNKSt3__16vectorI5ChainNS_9allocatorIS1_EEE8capacityB8ue170006Ev, symObjAddr: 0x22078, symBinAddr: 0x100024F6C, symSize: 0x40 }
  - { offsetInCU: 0x4D590, offset: 0x4D590, size: 0x8, addend: 0x0, symName: __ZNSt3__16vectorI5ChainNS_9allocatorIS1_EEE22__base_destruct_at_endB8ue170006EPS1_, symObjAddr: 0x220B8, symBinAddr: 0x100024FAC, symSize: 0x8C }
  - { offsetInCU: 0x4D5D4, offset: 0x4D5D4, size: 0x8, addend: 0x0, symName: __ZNSt3__116allocator_traitsINS_9allocatorI5ChainEEE7destroyB8ue170006IS2_vEEvRS3_PT_, symObjAddr: 0x22144, symBinAddr: 0x100025038, symSize: 0x2C }
  - { offsetInCU: 0x4D611, offset: 0x4D611, size: 0x8, addend: 0x0, symName: __ZNSt3__19allocatorI5ChainE7destroyB8ue170006EPS1_, symObjAddr: 0x22184, symBinAddr: 0x100025078, symSize: 0x28 }
  - { offsetInCU: 0x4D64B, offset: 0x4D64B, size: 0x8, addend: 0x0, symName: __ZN5ChainD1Ev, symObjAddr: 0x221AC, symBinAddr: 0x1000250A0, symSize: 0x2C }
  - { offsetInCU: 0x4D677, offset: 0x4D677, size: 0x8, addend: 0x0, symName: __ZN5ChainD2Ev, symObjAddr: 0x221D8, symBinAddr: 0x1000250CC, symSize: 0x44 }
  - { offsetInCU: 0x4D6A3, offset: 0x4D6A3, size: 0x8, addend: 0x0, symName: __ZN5boost14adjacency_listINS_4vecSES1_NS_14bidirectionalSE7Monomer8EdgeDataNS_11no_propertyENS_5listSEED1Ev, symObjAddr: 0x2221C, symBinAddr: 0x100025110, symSize: 0x2C }
  - { offsetInCU: 0x4D6D0, offset: 0x4D6D0, size: 0x8, addend: 0x0, symName: __ZN5boost14adjacency_listINS_4vecSES1_NS_14bidirectionalSE7Monomer8EdgeDataNS_11no_propertyENS_5listSEED2Ev, symObjAddr: 0x22248, symBinAddr: 0x10002513C, symSize: 0x38 }
  - { offsetInCU: 0x4D6FD, offset: 0x4D6FD, size: 0x8, addend: 0x0, symName: __ZN5boost10scoped_ptrINS_11no_propertyEED1Ev, symObjAddr: 0x22280, symBinAddr: 0x100025174, symSize: 0x2C }
  - { offsetInCU: 0x4D727, offset: 0x4D727, size: 0x8, addend: 0x0, symName: __ZN5boost17vec_adj_list_implINS_14adjacency_listINS_4vecSES2_NS_14bidirectionalSE7Monomer8EdgeDataNS_11no_propertyENS_5listSEEENS_6detail12adj_list_genIS8_S2_S2_S3_S4_S5_S6_S7_E6configENS_40bidirectional_graph_helper_with_propertyISC_EEED2Ev, symObjAddr: 0x222AC, symBinAddr: 0x1000251A0, symSize: 0x38 }
  - { offsetInCU: 0x4D754, offset: 0x4D754, size: 0x8, addend: 0x0, symName: __ZN5boost10scoped_ptrINS_11no_propertyEED2Ev, symObjAddr: 0x222E4, symBinAddr: 0x1000251D8, symSize: 0x30 }
  - { offsetInCU: 0x4D77E, offset: 0x4D77E, size: 0x8, addend: 0x0, symName: __ZNSt3__16vectorIN5boost6detail12adj_list_genINS1_14adjacency_listINS1_4vecSES5_NS1_14bidirectionalSE7Monomer8EdgeDataNS1_11no_propertyENS1_5listSEEES5_S5_S6_S7_S8_S9_SA_E6config13stored_vertexENS_9allocatorISE_EEED1B8ue170006Ev, symObjAddr: 0x22354, symBinAddr: 0x100025248, symSize: 0x2C }
  - { offsetInCU: 0x4D7A8, offset: 0x4D7A8, size: 0x8, addend: 0x0, symName: __ZNSt3__14listIN5boost9list_edgeIm8EdgeDataEENS_9allocatorIS4_EEED1Ev, symObjAddr: 0x22380, symBinAddr: 0x100025274, symSize: 0x2C }
  - { offsetInCU: 0x4D7D5, offset: 0x4D7D5, size: 0x8, addend: 0x0, symName: __ZNSt3__16vectorIN5boost6detail12adj_list_genINS1_14adjacency_listINS1_4vecSES5_NS1_14bidirectionalSE7Monomer8EdgeDataNS1_11no_propertyENS1_5listSEEES5_S5_S6_S7_S8_S9_SA_E6config13stored_vertexENS_9allocatorISE_EEED2B8ue170006Ev, symObjAddr: 0x223AC, symBinAddr: 0x1000252A0, symSize: 0x44 }
  - { offsetInCU: 0x4D7FF, offset: 0x4D7FF, size: 0x8, addend: 0x0, symName: __ZNSt3__16vectorIN5boost6detail12adj_list_genINS1_14adjacency_listINS1_4vecSES5_NS1_14bidirectionalSE7Monomer8EdgeDataNS1_11no_propertyENS1_5listSEEES5_S5_S6_S7_S8_S9_SA_E6config13stored_vertexENS_9allocatorISE_EEE16__destroy_vectorC1B8ue170006ERSH_, symObjAddr: 0x223F0, symBinAddr: 0x1000252E4, symSize: 0x34 }
  - { offsetInCU: 0x4D838, offset: 0x4D838, size: 0x8, addend: 0x0, symName: __ZNSt3__16vectorIN5boost6detail12adj_list_genINS1_14adjacency_listINS1_4vecSES5_NS1_14bidirectionalSE7Monomer8EdgeDataNS1_11no_propertyENS1_5listSEEES5_S5_S6_S7_S8_S9_SA_E6config13stored_vertexENS_9allocatorISE_EEE16__destroy_vectorclB8ue170006Ev, symObjAddr: 0x22424, symBinAddr: 0x100025318, symSize: 0x90 }
  - { offsetInCU: 0x4D85E, offset: 0x4D85E, size: 0x8, addend: 0x0, symName: __ZNSt3__16vectorIN5boost6detail12adj_list_genINS1_14adjacency_listINS1_4vecSES5_NS1_14bidirectionalSE7Monomer8EdgeDataNS1_11no_propertyENS1_5listSEEES5_S5_S6_S7_S8_S9_SA_E6config13stored_vertexENS_9allocatorISE_EEE16__destroy_vectorC2B8ue170006ERSH_, symObjAddr: 0x224B4, symBinAddr: 0x1000253A8, symSize: 0x20 }
  - { offsetInCU: 0x4D897, offset: 0x4D897, size: 0x8, addend: 0x0, symName: __ZNSt3__16vectorIN5boost6detail12adj_list_genINS1_14adjacency_listINS1_4vecSES5_NS1_14bidirectionalSE7Monomer8EdgeDataNS1_11no_propertyENS1_5listSEEES5_S5_S6_S7_S8_S9_SA_E6config13stored_vertexENS_9allocatorISE_EEE7__clearB8ue170006Ev, symObjAddr: 0x224D4, symBinAddr: 0x1000253C8, symSize: 0x28 }
  - { offsetInCU: 0x4D8BD, offset: 0x4D8BD, size: 0x8, addend: 0x0, symName: __ZNKSt3__16vectorIN5boost6detail12adj_list_genINS1_14adjacency_listINS1_4vecSES5_NS1_14bidirectionalSE7Monomer8EdgeDataNS1_11no_propertyENS1_5listSEEES5_S5_S6_S7_S8_S9_SA_E6config13stored_vertexENS_9allocatorISE_EEE17__annotate_deleteB8ue170006Ev, symObjAddr: 0x224FC, symBinAddr: 0x1000253F0, symSize: 0xD4 }
  - { offsetInCU: 0x4D8E3, offset: 0x4D8E3, size: 0x8, addend: 0x0, symName: __ZNSt3__116allocator_traitsINS_9allocatorIN5boost6detail12adj_list_genINS2_14adjacency_listINS2_4vecSES6_NS2_14bidirectionalSE7Monomer8EdgeDataNS2_11no_propertyENS2_5listSEEES6_S6_S7_S8_S9_SA_SB_E6config13stored_vertexEEEE10deallocateB8ue170006ERSG_PSF_m, symObjAddr: 0x225D0, symBinAddr: 0x1000254C4, symSize: 0x34 }
  - { offsetInCU: 0x4D925, offset: 0x4D925, size: 0x8, addend: 0x0, symName: __ZNSt3__16vectorIN5boost6detail12adj_list_genINS1_14adjacency_listINS1_4vecSES5_NS1_14bidirectionalSE7Monomer8EdgeDataNS1_11no_propertyENS1_5listSEEES5_S5_S6_S7_S8_S9_SA_E6config13stored_vertexENS_9allocatorISE_EEE7__allocB8ue170006Ev, symObjAddr: 0x22604, symBinAddr: 0x1000254F8, symSize: 0x28 }
  - { offsetInCU: 0x4D94B, offset: 0x4D94B, size: 0x8, addend: 0x0, symName: __ZNKSt3__16vectorIN5boost6detail12adj_list_genINS1_14adjacency_listINS1_4vecSES5_NS1_14bidirectionalSE7Monomer8EdgeDataNS1_11no_propertyENS1_5listSEEES5_S5_S6_S7_S8_S9_SA_E6config13stored_vertexENS_9allocatorISE_EEE8capacityB8ue170006Ev, symObjAddr: 0x2262C, symBinAddr: 0x100025520, symSize: 0x40 }
  - { offsetInCU: 0x4D971, offset: 0x4D971, size: 0x8, addend: 0x0, symName: __ZNSt3__16vectorIN5boost6detail12adj_list_genINS1_14adjacency_listINS1_4vecSES5_NS1_14bidirectionalSE7Monomer8EdgeDataNS1_11no_propertyENS1_5listSEEES5_S5_S6_S7_S8_S9_SA_E6config13stored_vertexENS_9allocatorISE_EEE22__base_destruct_at_endB8ue170006EPSE_, symObjAddr: 0x2266C, symBinAddr: 0x100025560, symSize: 0x8C }
  - { offsetInCU: 0x4D9B5, offset: 0x4D9B5, size: 0x8, addend: 0x0, symName: __ZNSt3__116allocator_traitsINS_9allocatorIN5boost6detail12adj_list_genINS2_14adjacency_listINS2_4vecSES6_NS2_14bidirectionalSE7Monomer8EdgeDataNS2_11no_propertyENS2_5listSEEES6_S6_S7_S8_S9_SA_SB_E6config13stored_vertexEEEE7destroyB8ue170006ISF_vEEvRSG_PT_, symObjAddr: 0x226F8, symBinAddr: 0x1000255EC, symSize: 0x2C }
  - { offsetInCU: 0x4D9F2, offset: 0x4D9F2, size: 0x8, addend: 0x0, symName: __ZNSt3__19allocatorIN5boost6detail12adj_list_genINS1_14adjacency_listINS1_4vecSES5_NS1_14bidirectionalSE7Monomer8EdgeDataNS1_11no_propertyENS1_5listSEEES5_S5_S6_S7_S8_S9_SA_E6config13stored_vertexEE7destroyB8ue170006EPSE_, symObjAddr: 0x22738, symBinAddr: 0x10002562C, symSize: 0x28 }
  - { offsetInCU: 0x4DA26, offset: 0x4DA26, size: 0x8, addend: 0x0, symName: __ZN5boost6detail12adj_list_genINS_14adjacency_listINS_4vecSES3_NS_14bidirectionalSE7Monomer8EdgeDataNS_11no_propertyENS_5listSEEES3_S3_S4_S5_S6_S7_S8_E6config13stored_vertexD1Ev, symObjAddr: 0x22760, symBinAddr: 0x100025654, symSize: 0x2C }
  - { offsetInCU: 0x4DA53, offset: 0x4DA53, size: 0x8, addend: 0x0, symName: __ZN5boost6detail12adj_list_genINS_14adjacency_listINS_4vecSES3_NS_14bidirectionalSE7Monomer8EdgeDataNS_11no_propertyENS_5listSEEES3_S3_S4_S5_S6_S7_S8_E6config13stored_vertexD2Ev, symObjAddr: 0x2278C, symBinAddr: 0x100025680, symSize: 0x2C }
  - { offsetInCU: 0x4DA80, offset: 0x4DA80, size: 0x8, addend: 0x0, symName: __ZN5boost6detail12adj_list_genINS_14adjacency_listINS_4vecSES3_NS_14bidirectionalSE7Monomer8EdgeDataNS_11no_propertyENS_5listSEEES3_S3_S4_S5_S6_S7_S8_E6config24bidir_rand_stored_vertexD2Ev, symObjAddr: 0x227B8, symBinAddr: 0x1000256AC, symSize: 0x44 }
  - { offsetInCU: 0x4DAAD, offset: 0x4DAAD, size: 0x8, addend: 0x0, symName: __ZNSt3__16vectorIN5boost6detail16stored_edge_iterImNS_15__list_iteratorINS1_9list_edgeIm8EdgeDataEEPvEES6_EENS_9allocatorISA_EEED1B8ue170006Ev, symObjAddr: 0x227FC, symBinAddr: 0x1000256F0, symSize: 0x2C }
  - { offsetInCU: 0x4DAD7, offset: 0x4DAD7, size: 0x8, addend: 0x0, symName: __ZNSt3__16vectorIN5boost6detail16stored_edge_iterImNS_15__list_iteratorINS1_9list_edgeIm8EdgeDataEEPvEES6_EENS_9allocatorISA_EEED2B8ue170006Ev, symObjAddr: 0x22828, symBinAddr: 0x10002571C, symSize: 0x44 }
  - { offsetInCU: 0x4DB01, offset: 0x4DB01, size: 0x8, addend: 0x0, symName: __ZNSt3__16vectorIN5boost6detail16stored_edge_iterImNS_15__list_iteratorINS1_9list_edgeIm8EdgeDataEEPvEES6_EENS_9allocatorISA_EEE16__destroy_vectorC1B8ue170006ERSD_, symObjAddr: 0x2286C, symBinAddr: 0x100025760, symSize: 0x34 }
  - { offsetInCU: 0x4DB3A, offset: 0x4DB3A, size: 0x8, addend: 0x0, symName: __ZNSt3__16vectorIN5boost6detail16stored_edge_iterImNS_15__list_iteratorINS1_9list_edgeIm8EdgeDataEEPvEES6_EENS_9allocatorISA_EEE16__destroy_vectorclB8ue170006Ev, symObjAddr: 0x228A0, symBinAddr: 0x100025794, symSize: 0x90 }
  - { offsetInCU: 0x4DB60, offset: 0x4DB60, size: 0x8, addend: 0x0, symName: __ZNSt3__16vectorIN5boost6detail16stored_edge_iterImNS_15__list_iteratorINS1_9list_edgeIm8EdgeDataEEPvEES6_EENS_9allocatorISA_EEE16__destroy_vectorC2B8ue170006ERSD_, symObjAddr: 0x22930, symBinAddr: 0x100025824, symSize: 0x20 }
  - { offsetInCU: 0x4DB99, offset: 0x4DB99, size: 0x8, addend: 0x0, symName: __ZNSt3__16vectorIN5boost6detail16stored_edge_iterImNS_15__list_iteratorINS1_9list_edgeIm8EdgeDataEEPvEES6_EENS_9allocatorISA_EEE7__clearB8ue170006Ev, symObjAddr: 0x22950, symBinAddr: 0x100025844, symSize: 0x28 }
  - { offsetInCU: 0x4DBBF, offset: 0x4DBBF, size: 0x8, addend: 0x0, symName: __ZNKSt3__16vectorIN5boost6detail16stored_edge_iterImNS_15__list_iteratorINS1_9list_edgeIm8EdgeDataEEPvEES6_EENS_9allocatorISA_EEE17__annotate_deleteB8ue170006Ev, symObjAddr: 0x22978, symBinAddr: 0x10002586C, symSize: 0xB8 }
  - { offsetInCU: 0x4DBE5, offset: 0x4DBE5, size: 0x8, addend: 0x0, symName: __ZNSt3__116allocator_traitsINS_9allocatorIN5boost6detail16stored_edge_iterImNS_15__list_iteratorINS2_9list_edgeIm8EdgeDataEEPvEES7_EEEEE10deallocateB8ue170006ERSC_PSB_m, symObjAddr: 0x22A30, symBinAddr: 0x100025924, symSize: 0x34 }
  - { offsetInCU: 0x4DC27, offset: 0x4DC27, size: 0x8, addend: 0x0, symName: __ZNSt3__16vectorIN5boost6detail16stored_edge_iterImNS_15__list_iteratorINS1_9list_edgeIm8EdgeDataEEPvEES6_EENS_9allocatorISA_EEE7__allocB8ue170006Ev, symObjAddr: 0x22A64, symBinAddr: 0x100025958, symSize: 0x28 }
  - { offsetInCU: 0x4DC4D, offset: 0x4DC4D, size: 0x8, addend: 0x0, symName: __ZNKSt3__16vectorIN5boost6detail16stored_edge_iterImNS_15__list_iteratorINS1_9list_edgeIm8EdgeDataEEPvEES6_EENS_9allocatorISA_EEE8capacityB8ue170006Ev, symObjAddr: 0x22A8C, symBinAddr: 0x100025980, symSize: 0x40 }
  - { offsetInCU: 0x4DC73, offset: 0x4DC73, size: 0x8, addend: 0x0, symName: __ZNSt3__16vectorIN5boost6detail16stored_edge_iterImNS_15__list_iteratorINS1_9list_edgeIm8EdgeDataEEPvEES6_EENS_9allocatorISA_EEE22__base_destruct_at_endB8ue170006EPSA_, symObjAddr: 0x22ACC, symBinAddr: 0x1000259C0, symSize: 0x8C }
  - { offsetInCU: 0x4DCB7, offset: 0x4DCB7, size: 0x8, addend: 0x0, symName: __ZNSt3__116allocator_traitsINS_9allocatorIN5boost6detail16stored_edge_iterImNS_15__list_iteratorINS2_9list_edgeIm8EdgeDataEEPvEES7_EEEEE7destroyB8ue170006ISB_vEEvRSC_PT_, symObjAddr: 0x22B58, symBinAddr: 0x100025A4C, symSize: 0x2C }
  - { offsetInCU: 0x4DCF4, offset: 0x4DCF4, size: 0x8, addend: 0x0, symName: __ZNSt3__19allocatorIN5boost6detail16stored_edge_iterImNS_15__list_iteratorINS1_9list_edgeIm8EdgeDataEEPvEES6_EEE7destroyB8ue170006EPSA_, symObjAddr: 0x22B98, symBinAddr: 0x100025A8C, symSize: 0x14 }
  - { offsetInCU: 0x4DD28, offset: 0x4DD28, size: 0x8, addend: 0x0, symName: __ZNKSt3__16vectorIN5boost6detail16stored_edge_iterImNS_15__list_iteratorINS1_9list_edgeIm8EdgeDataEEPvEES6_EENS_9allocatorISA_EEE31__annotate_contiguous_containerB8ue170006EPKvSF_SF_SF_, symObjAddr: 0x22BAC, symBinAddr: 0x100025AA0, symSize: 0x20 }
  - { offsetInCU: 0x4DD7A, offset: 0x4DD7A, size: 0x8, addend: 0x0, symName: __ZNKSt3__16vectorIN5boost6detail16stored_edge_iterImNS_15__list_iteratorINS1_9list_edgeIm8EdgeDataEEPvEES6_EENS_9allocatorISA_EEE4dataB8ue170006Ev, symObjAddr: 0x22BCC, symBinAddr: 0x100025AC0, symSize: 0x28 }
  - { offsetInCU: 0x4DDA0, offset: 0x4DDA0, size: 0x8, addend: 0x0, symName: __ZNKSt3__16vectorIN5boost6detail16stored_edge_iterImNS_15__list_iteratorINS1_9list_edgeIm8EdgeDataEEPvEES6_EENS_9allocatorISA_EEE4sizeB8ue170006Ev, symObjAddr: 0x22BF4, symBinAddr: 0x100025AE8, symSize: 0x28 }
  - { offsetInCU: 0x4DDC6, offset: 0x4DDC6, size: 0x8, addend: 0x0, symName: __ZNSt3__19allocatorIN5boost6detail16stored_edge_iterImNS_15__list_iteratorINS1_9list_edgeIm8EdgeDataEEPvEES6_EEE10deallocateB8ue170006EPSA_m, symObjAddr: 0x22C1C, symBinAddr: 0x100025B10, symSize: 0x40 }
  - { offsetInCU: 0x4DE08, offset: 0x4DE08, size: 0x8, addend: 0x0, symName: __ZNSt3__117__compressed_pairIPN5boost6detail16stored_edge_iterImNS_15__list_iteratorINS1_9list_edgeIm8EdgeDataEEPvEES6_EENS_9allocatorISA_EEE6secondB8ue170006Ev, symObjAddr: 0x22C5C, symBinAddr: 0x100025B50, symSize: 0x24 }
  - { offsetInCU: 0x4DE2E, offset: 0x4DE2E, size: 0x8, addend: 0x0, symName: __ZNSt3__122__compressed_pair_elemINS_9allocatorIN5boost6detail16stored_edge_iterImNS_15__list_iteratorINS2_9list_edgeIm8EdgeDataEEPvEES7_EEEELi1ELb1EE5__getB8ue170006Ev, symObjAddr: 0x22C80, symBinAddr: 0x100025B74, symSize: 0x14 }
  - { offsetInCU: 0x4DE54, offset: 0x4DE54, size: 0x8, addend: 0x0, symName: __ZNKSt3__16vectorIN5boost6detail16stored_edge_iterImNS_15__list_iteratorINS1_9list_edgeIm8EdgeDataEEPvEES6_EENS_9allocatorISA_EEE9__end_capB8ue170006Ev, symObjAddr: 0x22C94, symBinAddr: 0x100025B88, symSize: 0x28 }
  - { offsetInCU: 0x4DE7A, offset: 0x4DE7A, size: 0x8, addend: 0x0, symName: __ZNKSt3__117__compressed_pairIPN5boost6detail16stored_edge_iterImNS_15__list_iteratorINS1_9list_edgeIm8EdgeDataEEPvEES6_EENS_9allocatorISA_EEE5firstB8ue170006Ev, symObjAddr: 0x22CBC, symBinAddr: 0x100025BB0, symSize: 0x24 }
  - { offsetInCU: 0x4DEA0, offset: 0x4DEA0, size: 0x8, addend: 0x0, symName: __ZNKSt3__122__compressed_pair_elemIPN5boost6detail16stored_edge_iterImNS_15__list_iteratorINS1_9list_edgeIm8EdgeDataEEPvEES6_EELi0ELb0EE5__getB8ue170006Ev, symObjAddr: 0x22CE0, symBinAddr: 0x100025BD4, symSize: 0x14 }
  - { offsetInCU: 0x4DEC6, offset: 0x4DEC6, size: 0x8, addend: 0x0, symName: __ZNKSt3__16vectorIN5boost6detail12adj_list_genINS1_14adjacency_listINS1_4vecSES5_NS1_14bidirectionalSE7Monomer8EdgeDataNS1_11no_propertyENS1_5listSEEES5_S5_S6_S7_S8_S9_SA_E6config13stored_vertexENS_9allocatorISE_EEE31__annotate_contiguous_containerB8ue170006EPKvSJ_SJ_SJ_, symObjAddr: 0x22CF4, symBinAddr: 0x100025BE8, symSize: 0x20 }
  - { offsetInCU: 0x4DF18, offset: 0x4DF18, size: 0x8, addend: 0x0, symName: __ZNKSt3__16vectorIN5boost6detail12adj_list_genINS1_14adjacency_listINS1_4vecSES5_NS1_14bidirectionalSE7Monomer8EdgeDataNS1_11no_propertyENS1_5listSEEES5_S5_S6_S7_S8_S9_SA_E6config13stored_vertexENS_9allocatorISE_EEE4dataB8ue170006Ev, symObjAddr: 0x22D14, symBinAddr: 0x100025C08, symSize: 0x28 }
  - { offsetInCU: 0x4DF3E, offset: 0x4DF3E, size: 0x8, addend: 0x0, symName: __ZNKSt3__16vectorIN5boost6detail12adj_list_genINS1_14adjacency_listINS1_4vecSES5_NS1_14bidirectionalSE7Monomer8EdgeDataNS1_11no_propertyENS1_5listSEEES5_S5_S6_S7_S8_S9_SA_E6config13stored_vertexENS_9allocatorISE_EEE4sizeB8ue170006Ev, symObjAddr: 0x22D3C, symBinAddr: 0x100025C30, symSize: 0x28 }
  - { offsetInCU: 0x4DF64, offset: 0x4DF64, size: 0x8, addend: 0x0, symName: __ZNSt3__19allocatorIN5boost6detail12adj_list_genINS1_14adjacency_listINS1_4vecSES5_NS1_14bidirectionalSE7Monomer8EdgeDataNS1_11no_propertyENS1_5listSEEES5_S5_S6_S7_S8_S9_SA_E6config13stored_vertexEE10deallocateB8ue170006EPSE_m, symObjAddr: 0x22D64, symBinAddr: 0x100025C58, symSize: 0x44 }
  - { offsetInCU: 0x4DFA6, offset: 0x4DFA6, size: 0x8, addend: 0x0, symName: __ZNSt3__117__compressed_pairIPN5boost6detail12adj_list_genINS1_14adjacency_listINS1_4vecSES5_NS1_14bidirectionalSE7Monomer8EdgeDataNS1_11no_propertyENS1_5listSEEES5_S5_S6_S7_S8_S9_SA_E6config13stored_vertexENS_9allocatorISE_EEE6secondB8ue170006Ev, symObjAddr: 0x22DA8, symBinAddr: 0x100025C9C, symSize: 0x24 }
  - { offsetInCU: 0x4DFCC, offset: 0x4DFCC, size: 0x8, addend: 0x0, symName: __ZNSt3__122__compressed_pair_elemINS_9allocatorIN5boost6detail12adj_list_genINS2_14adjacency_listINS2_4vecSES6_NS2_14bidirectionalSE7Monomer8EdgeDataNS2_11no_propertyENS2_5listSEEES6_S6_S7_S8_S9_SA_SB_E6config13stored_vertexEEELi1ELb1EE5__getB8ue170006Ev, symObjAddr: 0x22DCC, symBinAddr: 0x100025CC0, symSize: 0x14 }
  - { offsetInCU: 0x4DFF2, offset: 0x4DFF2, size: 0x8, addend: 0x0, symName: __ZNKSt3__16vectorIN5boost6detail12adj_list_genINS1_14adjacency_listINS1_4vecSES5_NS1_14bidirectionalSE7Monomer8EdgeDataNS1_11no_propertyENS1_5listSEEES5_S5_S6_S7_S8_S9_SA_E6config13stored_vertexENS_9allocatorISE_EEE9__end_capB8ue170006Ev, symObjAddr: 0x22DE0, symBinAddr: 0x100025CD4, symSize: 0x28 }
  - { offsetInCU: 0x4E018, offset: 0x4E018, size: 0x8, addend: 0x0, symName: __ZNKSt3__117__compressed_pairIPN5boost6detail12adj_list_genINS1_14adjacency_listINS1_4vecSES5_NS1_14bidirectionalSE7Monomer8EdgeDataNS1_11no_propertyENS1_5listSEEES5_S5_S6_S7_S8_S9_SA_E6config13stored_vertexENS_9allocatorISE_EEE5firstB8ue170006Ev, symObjAddr: 0x22E08, symBinAddr: 0x100025CFC, symSize: 0x24 }
  - { offsetInCU: 0x4E03E, offset: 0x4E03E, size: 0x8, addend: 0x0, symName: __ZNKSt3__122__compressed_pair_elemIPN5boost6detail12adj_list_genINS1_14adjacency_listINS1_4vecSES5_NS1_14bidirectionalSE7Monomer8EdgeDataNS1_11no_propertyENS1_5listSEEES5_S5_S6_S7_S8_S9_SA_E6config13stored_vertexELi0ELb0EE5__getB8ue170006Ev, symObjAddr: 0x22E2C, symBinAddr: 0x100025D20, symSize: 0x14 }
  - { offsetInCU: 0x4E064, offset: 0x4E064, size: 0x8, addend: 0x0, symName: __ZNSt3__14listIN5boost9list_edgeIm8EdgeDataEENS_9allocatorIS4_EEED2Ev, symObjAddr: 0x22E40, symBinAddr: 0x100025D34, symSize: 0x2C }
  - { offsetInCU: 0x4E091, offset: 0x4E091, size: 0x8, addend: 0x0, symName: __ZNSt3__110__list_impIN5boost9list_edgeIm8EdgeDataEENS_9allocatorIS4_EEED2Ev, symObjAddr: 0x22E6C, symBinAddr: 0x100025D60, symSize: 0x2C }
  - { offsetInCU: 0x4E0BD, offset: 0x4E0BD, size: 0x8, addend: 0x0, symName: __ZNSt3__110__list_impIN5boost9list_edgeIm8EdgeDataEENS_9allocatorIS4_EEE5clearEv, symObjAddr: 0x22E98, symBinAddr: 0x100025D8C, symSize: 0xE0 }
  - { offsetInCU: 0x4E12D, offset: 0x4E12D, size: 0x8, addend: 0x0, symName: __ZNKSt3__110__list_impIN5boost9list_edgeIm8EdgeDataEENS_9allocatorIS4_EEE5emptyB8ue170006Ev, symObjAddr: 0x22F78, symBinAddr: 0x100025E6C, symSize: 0x34 }
  - { offsetInCU: 0x4E153, offset: 0x4E153, size: 0x8, addend: 0x0, symName: __ZNSt3__110__list_impIN5boost9list_edgeIm8EdgeDataEENS_9allocatorIS4_EEE12__node_allocB8ue170006Ev, symObjAddr: 0x22FAC, symBinAddr: 0x100025EA0, symSize: 0x28 }
  - { offsetInCU: 0x4E179, offset: 0x4E179, size: 0x8, addend: 0x0, symName: __ZNKSt3__110__list_impIN5boost9list_edgeIm8EdgeDataEENS_9allocatorIS4_EEE13__end_as_linkB8ue170006Ev, symObjAddr: 0x22FD4, symBinAddr: 0x100025EC8, symSize: 0x44 }
  - { offsetInCU: 0x4E19F, offset: 0x4E19F, size: 0x8, addend: 0x0, symName: __ZNSt3__110__list_impIN5boost9list_edgeIm8EdgeDataEENS_9allocatorIS4_EEE14__unlink_nodesEPNS_16__list_node_baseIS4_PvEESB_, symObjAddr: 0x23018, symBinAddr: 0x100025F0C, symSize: 0x3C }
  - { offsetInCU: 0x4E1D4, offset: 0x4E1D4, size: 0x8, addend: 0x0, symName: __ZNSt3__110__list_impIN5boost9list_edgeIm8EdgeDataEENS_9allocatorIS4_EEE4__szB8ue170006Ev, symObjAddr: 0x23054, symBinAddr: 0x100025F48, symSize: 0x28 }
  - { offsetInCU: 0x4E1FA, offset: 0x4E1FA, size: 0x8, addend: 0x0, symName: __ZNSt3__116__list_node_baseIN5boost9list_edgeIm8EdgeDataEEPvE9__as_nodeB8ue170006Ev, symObjAddr: 0x2307C, symBinAddr: 0x100025F70, symSize: 0x24 }
  - { offsetInCU: 0x4E220, offset: 0x4E220, size: 0x8, addend: 0x0, symName: __ZNSt3__116allocator_traitsINS_9allocatorINS_11__list_nodeIN5boost9list_edgeIm8EdgeDataEEPvEEEEE7destroyB8ue170006IS6_vvEEvRS9_PT_, symObjAddr: 0x230A0, symBinAddr: 0x100025F94, symSize: 0x28 }
  - { offsetInCU: 0x4E25A, offset: 0x4E25A, size: 0x8, addend: 0x0, symName: __ZNSt3__116allocator_traitsINS_9allocatorINS_11__list_nodeIN5boost9list_edgeIm8EdgeDataEEPvEEEEE10deallocateB8ue170006ERS9_PS8_m, symObjAddr: 0x230C8, symBinAddr: 0x100025FBC, symSize: 0x34 }
  - { offsetInCU: 0x4E29C, offset: 0x4E29C, size: 0x8, addend: 0x0, symName: __ZNKSt3__110__list_impIN5boost9list_edgeIm8EdgeDataEENS_9allocatorIS4_EEE4__szB8ue170006Ev, symObjAddr: 0x230FC, symBinAddr: 0x100025FF0, symSize: 0x28 }
  - { offsetInCU: 0x4E2C2, offset: 0x4E2C2, size: 0x8, addend: 0x0, symName: __ZNKSt3__117__compressed_pairImNS_9allocatorINS_11__list_nodeIN5boost9list_edgeIm8EdgeDataEEPvEEEEE5firstB8ue170006Ev, symObjAddr: 0x23124, symBinAddr: 0x100026018, symSize: 0x24 }
  - { offsetInCU: 0x4E2E8, offset: 0x4E2E8, size: 0x8, addend: 0x0, symName: __ZNKSt3__122__compressed_pair_elemImLi0ELb0EE5__getB8ue170006Ev, symObjAddr: 0x23148, symBinAddr: 0x10002603C, symSize: 0x14 }
  - { offsetInCU: 0x4E30E, offset: 0x4E30E, size: 0x8, addend: 0x0, symName: __ZNSt3__117__compressed_pairImNS_9allocatorINS_11__list_nodeIN5boost9list_edgeIm8EdgeDataEEPvEEEEE6secondB8ue170006Ev, symObjAddr: 0x2315C, symBinAddr: 0x100026050, symSize: 0x24 }
  - { offsetInCU: 0x4E334, offset: 0x4E334, size: 0x8, addend: 0x0, symName: __ZNSt3__122__compressed_pair_elemINS_9allocatorINS_11__list_nodeIN5boost9list_edgeIm8EdgeDataEEPvEEEELi1ELb1EE5__getB8ue170006Ev, symObjAddr: 0x23180, symBinAddr: 0x100026074, symSize: 0x14 }
  - { offsetInCU: 0x4E35A, offset: 0x4E35A, size: 0x8, addend: 0x0, symName: __ZNSt3__126__list_node_pointer_traitsIN5boost9list_edgeIm8EdgeDataEEPvE26__unsafe_link_pointer_castB8ue170006EPNS_16__list_node_baseIS4_S5_EE, symObjAddr: 0x23194, symBinAddr: 0x100026088, symSize: 0x14 }
  - { offsetInCU: 0x4E37E, offset: 0x4E37E, size: 0x8, addend: 0x0, symName: __ZNSt3__116__list_node_baseIN5boost9list_edgeIm8EdgeDataEEPvE6__selfB8ue170006Ev, symObjAddr: 0x231A8, symBinAddr: 0x10002609C, symSize: 0x24 }
  - { offsetInCU: 0x4E3AA, offset: 0x4E3AA, size: 0x8, addend: 0x0, symName: __ZNSt3__114pointer_traitsIPNS_16__list_node_baseIN5boost9list_edgeIm8EdgeDataEEPvEEE10pointer_toB8ue170006ERS7_, symObjAddr: 0x231CC, symBinAddr: 0x1000260C0, symSize: 0x14 }
  - { offsetInCU: 0x4E3CD, offset: 0x4E3CD, size: 0x8, addend: 0x0, symName: __ZNSt3__117__compressed_pairImNS_9allocatorINS_11__list_nodeIN5boost9list_edgeIm8EdgeDataEEPvEEEEE5firstB8ue170006Ev, symObjAddr: 0x231E0, symBinAddr: 0x1000260D4, symSize: 0x24 }
  - { offsetInCU: 0x4E3F3, offset: 0x4E3F3, size: 0x8, addend: 0x0, symName: __ZN5boost9list_edgeIm8EdgeDataED1Ev, symObjAddr: 0x23204, symBinAddr: 0x1000260F8, symSize: 0x2C }
  - { offsetInCU: 0x4E420, offset: 0x4E420, size: 0x8, addend: 0x0, symName: __ZN5boost9list_edgeIm8EdgeDataED2Ev, symObjAddr: 0x23230, symBinAddr: 0x100026124, symSize: 0x30 }
  - { offsetInCU: 0x4E453, offset: 0x4E453, size: 0x8, addend: 0x0, symName: __ZN8EdgeDataD1Ev, symObjAddr: 0x23260, symBinAddr: 0x100026154, symSize: 0x2C }
  - { offsetInCU: 0x4E47F, offset: 0x4E47F, size: 0x8, addend: 0x0, symName: __ZN8EdgeDataD2Ev, symObjAddr: 0x2328C, symBinAddr: 0x100026180, symSize: 0x2C }
  - { offsetInCU: 0x4E4AB, offset: 0x4E4AB, size: 0x8, addend: 0x0, symName: __ZNSt3__19allocatorINS_11__list_nodeIN5boost9list_edgeIm8EdgeDataEEPvEEE10deallocateB8ue170006EPS7_m, symObjAddr: 0x232B8, symBinAddr: 0x1000261AC, symSize: 0x44 }
  - { offsetInCU: 0x4E4ED, offset: 0x4E4ED, size: 0x8, addend: 0x0, symName: __ZNKSt3__16vectorI5ChainNS_9allocatorIS1_EEE31__annotate_contiguous_containerB8ue170006EPKvS6_S6_S6_, symObjAddr: 0x232FC, symBinAddr: 0x1000261F0, symSize: 0x20 }
  - { offsetInCU: 0x4E53F, offset: 0x4E53F, size: 0x8, addend: 0x0, symName: __ZNKSt3__16vectorI5ChainNS_9allocatorIS1_EEE4dataB8ue170006Ev, symObjAddr: 0x2331C, symBinAddr: 0x100026210, symSize: 0x28 }
  - { offsetInCU: 0x4E565, offset: 0x4E565, size: 0x8, addend: 0x0, symName: __ZNSt3__19allocatorI5ChainE10deallocateB8ue170006EPS1_m, symObjAddr: 0x23344, symBinAddr: 0x100026238, symSize: 0x44 }
  - { offsetInCU: 0x4E5A7, offset: 0x4E5A7, size: 0x8, addend: 0x0, symName: __ZNSt3__117__compressed_pairIP5ChainNS_9allocatorIS1_EEE6secondB8ue170006Ev, symObjAddr: 0x23388, symBinAddr: 0x10002627C, symSize: 0x24 }
  - { offsetInCU: 0x4E5CD, offset: 0x4E5CD, size: 0x8, addend: 0x0, symName: __ZNSt3__122__compressed_pair_elemINS_9allocatorI5ChainEELi1ELb1EE5__getB8ue170006Ev, symObjAddr: 0x233AC, symBinAddr: 0x1000262A0, symSize: 0x14 }
  - { offsetInCU: 0x4E5F3, offset: 0x4E5F3, size: 0x8, addend: 0x0, symName: __ZNKSt3__16vectorI5ChainNS_9allocatorIS1_EEE9__end_capB8ue170006Ev, symObjAddr: 0x233C0, symBinAddr: 0x1000262B4, symSize: 0x28 }
  - { offsetInCU: 0x4E619, offset: 0x4E619, size: 0x8, addend: 0x0, symName: __ZNKSt3__117__compressed_pairIP5ChainNS_9allocatorIS1_EEE5firstB8ue170006Ev, symObjAddr: 0x233E8, symBinAddr: 0x1000262DC, symSize: 0x24 }
  - { offsetInCU: 0x4E63F, offset: 0x4E63F, size: 0x8, addend: 0x0, symName: __ZNKSt3__122__compressed_pair_elemIP5ChainLi0ELb0EE5__getB8ue170006Ev, symObjAddr: 0x2340C, symBinAddr: 0x100026300, symSize: 0x14 }
  - { offsetInCU: 0x4E665, offset: 0x4E665, size: 0x8, addend: 0x0, symName: __ZNSt3__13mapINS_12basic_stringIcNS_11char_traitsIcEENS_9allocatorIcEEEElNS_4lessIS6_EENS4_INS_4pairIKS6_lEEEEED2B8ue170006Ev, symObjAddr: 0x23420, symBinAddr: 0x100026314, symSize: 0x2C }
  - { offsetInCU: 0x4E68F, offset: 0x4E68F, size: 0x8, addend: 0x0, symName: __ZNSt3__16__treeINS_12__value_typeINS_12basic_stringIcNS_11char_traitsIcEENS_9allocatorIcEEEElEENS_19__map_value_compareIS7_S8_NS_4lessIS7_EELb1EEENS5_IS8_EEED1Ev, symObjAddr: 0x2344C, symBinAddr: 0x100026340, symSize: 0x2C }
  - { offsetInCU: 0x4E6BB, offset: 0x4E6BB, size: 0x8, addend: 0x0, symName: __ZNSt3__16__treeINS_12__value_typeINS_12basic_stringIcNS_11char_traitsIcEENS_9allocatorIcEEEElEENS_19__map_value_compareIS7_S8_NS_4lessIS7_EELb1EEENS5_IS8_EEED2Ev, symObjAddr: 0x23478, symBinAddr: 0x10002636C, symSize: 0x38 }
  - { offsetInCU: 0x4E6E7, offset: 0x4E6E7, size: 0x8, addend: 0x0, symName: __ZNSt3__16__treeINS_12__value_typeINS_12basic_stringIcNS_11char_traitsIcEENS_9allocatorIcEEEElEENS_19__map_value_compareIS7_S8_NS_4lessIS7_EELb1EEENS5_IS8_EEE7destroyEPNS_11__tree_nodeIS8_PvEE, symObjAddr: 0x234B0, symBinAddr: 0x1000263A4, symSize: 0xAC }
  - { offsetInCU: 0x4E733, offset: 0x4E733, size: 0x8, addend: 0x0, symName: __ZNKSt3__16__treeINS_12__value_typeINS_12basic_stringIcNS_11char_traitsIcEENS_9allocatorIcEEEElEENS_19__map_value_compareIS7_S8_NS_4lessIS7_EELb1EEENS5_IS8_EEE6__rootB8ue170006Ev, symObjAddr: 0x2355C, symBinAddr: 0x100026450, symSize: 0x28 }
  - { offsetInCU: 0x4E759, offset: 0x4E759, size: 0x8, addend: 0x0, symName: __ZNSt3__16__treeINS_12__value_typeINS_12basic_stringIcNS_11char_traitsIcEENS_9allocatorIcEEEElEENS_19__map_value_compareIS7_S8_NS_4lessIS7_EELb1EEENS5_IS8_EEE12__node_allocB8ue170006Ev, symObjAddr: 0x23584, symBinAddr: 0x100026478, symSize: 0x28 }
  - { offsetInCU: 0x4E77F, offset: 0x4E77F, size: 0x8, addend: 0x0, symName: __ZNSt3__116allocator_traitsINS_9allocatorINS_11__tree_nodeINS_12__value_typeINS_12basic_stringIcNS_11char_traitsIcEENS1_IcEEEElEEPvEEEEE7destroyB8ue170006INS_4pairIKS8_lEEvvEEvRSC_PT_, symObjAddr: 0x235AC, symBinAddr: 0x1000264A0, symSize: 0x28 }
  - { offsetInCU: 0x4E7B9, offset: 0x4E7B9, size: 0x8, addend: 0x0, symName: __ZNSt3__122__tree_key_value_typesINS_12__value_typeINS_12basic_stringIcNS_11char_traitsIcEENS_9allocatorIcEEEElEEE9__get_ptrB8ue170006ERS8_, symObjAddr: 0x235D4, symBinAddr: 0x1000264C8, symSize: 0x24 }
  - { offsetInCU: 0x4E7DD, offset: 0x4E7DD, size: 0x8, addend: 0x0, symName: __ZNSt3__116allocator_traitsINS_9allocatorINS_11__tree_nodeINS_12__value_typeINS_12basic_stringIcNS_11char_traitsIcEENS1_IcEEEElEEPvEEEEE10deallocateB8ue170006ERSC_PSB_m, symObjAddr: 0x235F8, symBinAddr: 0x1000264EC, symSize: 0x34 }
  - { offsetInCU: 0x4E81F, offset: 0x4E81F, size: 0x8, addend: 0x0, symName: __ZNSt3__117__compressed_pairINS_15__tree_end_nodeIPNS_16__tree_node_baseIPvEEEENS_9allocatorINS_11__tree_nodeINS_12__value_typeINS_12basic_stringIcNS_11char_traitsIcEENS7_IcEEEElEES3_EEEEE6secondB8ue170006Ev, symObjAddr: 0x2362C, symBinAddr: 0x100026520, symSize: 0x24 }
  - { offsetInCU: 0x4E845, offset: 0x4E845, size: 0x8, addend: 0x0, symName: __ZNSt3__122__compressed_pair_elemINS_9allocatorINS_11__tree_nodeINS_12__value_typeINS_12basic_stringIcNS_11char_traitsIcEENS1_IcEEEElEEPvEEEELi1ELb1EE5__getB8ue170006Ev, symObjAddr: 0x23650, symBinAddr: 0x100026544, symSize: 0x14 }
  - { offsetInCU: 0x4E86B, offset: 0x4E86B, size: 0x8, addend: 0x0, symName: __ZNSt3__14pairIKNS_12basic_stringIcNS_11char_traitsIcEENS_9allocatorIcEEEElED1Ev, symObjAddr: 0x23664, symBinAddr: 0x100026558, symSize: 0x2C }
  - { offsetInCU: 0x4E897, offset: 0x4E897, size: 0x8, addend: 0x0, symName: __ZNSt3__14pairIKNS_12basic_stringIcNS_11char_traitsIcEENS_9allocatorIcEEEElED2Ev, symObjAddr: 0x23690, symBinAddr: 0x100026584, symSize: 0x2C }
  - { offsetInCU: 0x4E8C3, offset: 0x4E8C3, size: 0x8, addend: 0x0, symName: __ZNSt3__112__value_typeINS_12basic_stringIcNS_11char_traitsIcEENS_9allocatorIcEEEElE11__get_valueB8ue170006Ev, symObjAddr: 0x236BC, symBinAddr: 0x1000265B0, symSize: 0x14 }
  - { offsetInCU: 0x4E8E9, offset: 0x4E8E9, size: 0x8, addend: 0x0, symName: __ZNSt3__19allocatorINS_11__tree_nodeINS_12__value_typeINS_12basic_stringIcNS_11char_traitsIcEENS0_IcEEEElEEPvEEE10deallocateB8ue170006EPSA_m, symObjAddr: 0x236D0, symBinAddr: 0x1000265C4, symSize: 0x40 }
  - { offsetInCU: 0x4E92B, offset: 0x4E92B, size: 0x8, addend: 0x0, symName: __ZNKSt3__16__treeINS_12__value_typeINS_12basic_stringIcNS_11char_traitsIcEENS_9allocatorIcEEEElEENS_19__map_value_compareIS7_S8_NS_4lessIS7_EELb1EEENS5_IS8_EEE10__end_nodeB8ue170006Ev, symObjAddr: 0x23710, symBinAddr: 0x100026604, symSize: 0x2C }
  - { offsetInCU: 0x4E951, offset: 0x4E951, size: 0x8, addend: 0x0, symName: __ZNKSt3__117__compressed_pairINS_15__tree_end_nodeIPNS_16__tree_node_baseIPvEEEENS_9allocatorINS_11__tree_nodeINS_12__value_typeINS_12basic_stringIcNS_11char_traitsIcEENS7_IcEEEElEES3_EEEEE5firstB8ue170006Ev, symObjAddr: 0x2373C, symBinAddr: 0x100026630, symSize: 0x24 }
  - { offsetInCU: 0x4E977, offset: 0x4E977, size: 0x8, addend: 0x0, symName: __ZNSt3__16vectorINS_3mapINS_12basic_stringIcNS_11char_traitsIcEENS_9allocatorIcEEEElNS_4lessIS7_EENS5_INS_4pairIKS7_lEEEEEENS5_ISE_EEED2B8ue170006Ev, symObjAddr: 0x23760, symBinAddr: 0x100026654, symSize: 0x40 }
  - { offsetInCU: 0x4E9A1, offset: 0x4E9A1, size: 0x8, addend: 0x0, symName: __ZNSt3__16vectorI8ReactionNS_9allocatorIS1_EEED2B8ue170006Ev, symObjAddr: 0x237A0, symBinAddr: 0x100026694, symSize: 0x44 }
  - { offsetInCU: 0x4E9CB, offset: 0x4E9CB, size: 0x8, addend: 0x0, symName: __ZNSt3__16vectorI8ReactionNS_9allocatorIS1_EEE16__destroy_vectorC1B8ue170006ERS4_, symObjAddr: 0x237E4, symBinAddr: 0x1000266D8, symSize: 0x34 }
  - { offsetInCU: 0x4EA04, offset: 0x4EA04, size: 0x8, addend: 0x0, symName: __ZNSt3__16vectorI8ReactionNS_9allocatorIS1_EEE16__destroy_vectorclB8ue170006Ev, symObjAddr: 0x23818, symBinAddr: 0x10002670C, symSize: 0x90 }
  - { offsetInCU: 0x4EA2A, offset: 0x4EA2A, size: 0x8, addend: 0x0, symName: __ZNSt3__16vectorI8ReactionNS_9allocatorIS1_EEE16__destroy_vectorC2B8ue170006ERS4_, symObjAddr: 0x238A8, symBinAddr: 0x10002679C, symSize: 0x20 }
  - { offsetInCU: 0x4EA63, offset: 0x4EA63, size: 0x8, addend: 0x0, symName: __ZNSt3__16vectorI8ReactionNS_9allocatorIS1_EEE7__clearB8ue170006Ev, symObjAddr: 0x238C8, symBinAddr: 0x1000267BC, symSize: 0x28 }
  - { offsetInCU: 0x4EA89, offset: 0x4EA89, size: 0x8, addend: 0x0, symName: __ZNKSt3__16vectorI8ReactionNS_9allocatorIS1_EEE17__annotate_deleteB8ue170006Ev, symObjAddr: 0x238F0, symBinAddr: 0x1000267E4, symSize: 0xD4 }
  - { offsetInCU: 0x4EAAF, offset: 0x4EAAF, size: 0x8, addend: 0x0, symName: __ZNSt3__116allocator_traitsINS_9allocatorI8ReactionEEE10deallocateB8ue170006ERS3_PS2_m, symObjAddr: 0x239C4, symBinAddr: 0x1000268B8, symSize: 0x34 }
  - { offsetInCU: 0x4EAF1, offset: 0x4EAF1, size: 0x8, addend: 0x0, symName: __ZNSt3__16vectorI8ReactionNS_9allocatorIS1_EEE7__allocB8ue170006Ev, symObjAddr: 0x239F8, symBinAddr: 0x1000268EC, symSize: 0x28 }
  - { offsetInCU: 0x4EB17, offset: 0x4EB17, size: 0x8, addend: 0x0, symName: __ZNKSt3__16vectorI8ReactionNS_9allocatorIS1_EEE8capacityB8ue170006Ev, symObjAddr: 0x23A20, symBinAddr: 0x100026914, symSize: 0x40 }
  - { offsetInCU: 0x4EB3D, offset: 0x4EB3D, size: 0x8, addend: 0x0, symName: __ZNSt3__16vectorI8ReactionNS_9allocatorIS1_EEE22__base_destruct_at_endB8ue170006EPS1_, symObjAddr: 0x23A60, symBinAddr: 0x100026954, symSize: 0x8C }
  - { offsetInCU: 0x4EB81, offset: 0x4EB81, size: 0x8, addend: 0x0, symName: __ZNSt3__116allocator_traitsINS_9allocatorI8ReactionEEE7destroyB8ue170006IS2_vEEvRS3_PT_, symObjAddr: 0x23AEC, symBinAddr: 0x1000269E0, symSize: 0x2C }
  - { offsetInCU: 0x4EBBE, offset: 0x4EBBE, size: 0x8, addend: 0x0, symName: __ZNSt3__19allocatorI8ReactionE7destroyB8ue170006EPS1_, symObjAddr: 0x23B2C, symBinAddr: 0x100026A20, symSize: 0x28 }
  - { offsetInCU: 0x4EBF2, offset: 0x4EBF2, size: 0x8, addend: 0x0, symName: __ZNKSt3__16vectorI8ReactionNS_9allocatorIS1_EEE31__annotate_contiguous_containerB8ue170006EPKvS6_S6_S6_, symObjAddr: 0x23B54, symBinAddr: 0x100026A48, symSize: 0x20 }
  - { offsetInCU: 0x4EC44, offset: 0x4EC44, size: 0x8, addend: 0x0, symName: __ZNKSt3__16vectorI8ReactionNS_9allocatorIS1_EEE4dataB8ue170006Ev, symObjAddr: 0x23B74, symBinAddr: 0x100026A68, symSize: 0x28 }
  - { offsetInCU: 0x4EC6A, offset: 0x4EC6A, size: 0x8, addend: 0x0, symName: __ZNSt3__19allocatorI8ReactionE10deallocateB8ue170006EPS1_m, symObjAddr: 0x23B9C, symBinAddr: 0x100026A90, symSize: 0x44 }
  - { offsetInCU: 0x4ECAC, offset: 0x4ECAC, size: 0x8, addend: 0x0, symName: __ZNSt3__117__compressed_pairIP8ReactionNS_9allocatorIS1_EEE6secondB8ue170006Ev, symObjAddr: 0x23BE0, symBinAddr: 0x100026AD4, symSize: 0x24 }
  - { offsetInCU: 0x4ECD2, offset: 0x4ECD2, size: 0x8, addend: 0x0, symName: __ZNSt3__122__compressed_pair_elemINS_9allocatorI8ReactionEELi1ELb1EE5__getB8ue170006Ev, symObjAddr: 0x23C04, symBinAddr: 0x100026AF8, symSize: 0x14 }
  - { offsetInCU: 0x4ECF8, offset: 0x4ECF8, size: 0x8, addend: 0x0, symName: __ZNKSt3__16vectorI8ReactionNS_9allocatorIS1_EEE9__end_capB8ue170006Ev, symObjAddr: 0x23C18, symBinAddr: 0x100026B0C, symSize: 0x28 }
  - { offsetInCU: 0x4ED1E, offset: 0x4ED1E, size: 0x8, addend: 0x0, symName: __ZNKSt3__117__compressed_pairIP8ReactionNS_9allocatorIS1_EEE5firstB8ue170006Ev, symObjAddr: 0x23C40, symBinAddr: 0x100026B34, symSize: 0x24 }
  - { offsetInCU: 0x4ED44, offset: 0x4ED44, size: 0x8, addend: 0x0, symName: __ZNKSt3__122__compressed_pair_elemIP8ReactionLi0ELb0EE5__getB8ue170006Ev, symObjAddr: 0x23C64, symBinAddr: 0x100026B58, symSize: 0x14 }
  - { offsetInCU: 0x4ED6A, offset: 0x4ED6A, size: 0x8, addend: 0x0, symName: __ZNSt3__16vectorIlNS_9allocatorIlEEED2B8ue170006Ev, symObjAddr: 0x23C78, symBinAddr: 0x100026B6C, symSize: 0x44 }
  - { offsetInCU: 0x4ED94, offset: 0x4ED94, size: 0x8, addend: 0x0, symName: __ZNSt3__16vectorIlNS_9allocatorIlEEE16__destroy_vectorC1B8ue170006ERS3_, symObjAddr: 0x23CBC, symBinAddr: 0x100026BB0, symSize: 0x34 }
  - { offsetInCU: 0x4EDCD, offset: 0x4EDCD, size: 0x8, addend: 0x0, symName: __ZNSt3__16vectorIlNS_9allocatorIlEEE16__destroy_vectorclB8ue170006Ev, symObjAddr: 0x23CF0, symBinAddr: 0x100026BE4, symSize: 0x90 }
  - { offsetInCU: 0x4EDF3, offset: 0x4EDF3, size: 0x8, addend: 0x0, symName: __ZNSt3__16vectorIlNS_9allocatorIlEEE16__destroy_vectorC2B8ue170006ERS3_, symObjAddr: 0x23D80, symBinAddr: 0x100026C74, symSize: 0x20 }
  - { offsetInCU: 0x4EE2C, offset: 0x4EE2C, size: 0x8, addend: 0x0, symName: __ZNSt3__16vectorIlNS_9allocatorIlEEE7__clearB8ue170006Ev, symObjAddr: 0x23DA0, symBinAddr: 0x100026C94, symSize: 0x28 }
  - { offsetInCU: 0x4EE52, offset: 0x4EE52, size: 0x8, addend: 0x0, symName: __ZNKSt3__16vectorIlNS_9allocatorIlEEE17__annotate_deleteB8ue170006Ev, symObjAddr: 0x23DC8, symBinAddr: 0x100026CBC, symSize: 0xB8 }
  - { offsetInCU: 0x4EE78, offset: 0x4EE78, size: 0x8, addend: 0x0, symName: __ZNSt3__116allocator_traitsINS_9allocatorIlEEE10deallocateB8ue170006ERS2_Plm, symObjAddr: 0x23E80, symBinAddr: 0x100026D74, symSize: 0x34 }
  - { offsetInCU: 0x4EEBA, offset: 0x4EEBA, size: 0x8, addend: 0x0, symName: __ZNSt3__16vectorIlNS_9allocatorIlEEE7__allocB8ue170006Ev, symObjAddr: 0x23EB4, symBinAddr: 0x100026DA8, symSize: 0x28 }
  - { offsetInCU: 0x4EEE0, offset: 0x4EEE0, size: 0x8, addend: 0x0, symName: __ZNKSt3__16vectorIlNS_9allocatorIlEEE8capacityB8ue170006Ev, symObjAddr: 0x23EDC, symBinAddr: 0x100026DD0, symSize: 0x40 }
  - { offsetInCU: 0x4EF06, offset: 0x4EF06, size: 0x8, addend: 0x0, symName: __ZNSt3__16vectorIlNS_9allocatorIlEEE22__base_destruct_at_endB8ue170006EPl, symObjAddr: 0x23F1C, symBinAddr: 0x100026E10, symSize: 0x8C }
  - { offsetInCU: 0x4EF4A, offset: 0x4EF4A, size: 0x8, addend: 0x0, symName: __ZNSt3__116allocator_traitsINS_9allocatorIlEEE7destroyB8ue170006IlvEEvRS2_PT_, symObjAddr: 0x23FA8, symBinAddr: 0x100026E9C, symSize: 0x2C }
  - { offsetInCU: 0x4EF87, offset: 0x4EF87, size: 0x8, addend: 0x0, symName: __ZNSt3__19allocatorIlE7destroyB8ue170006EPl, symObjAddr: 0x23FE8, symBinAddr: 0x100026EDC, symSize: 0x14 }
  - { offsetInCU: 0x4EFBB, offset: 0x4EFBB, size: 0x8, addend: 0x0, symName: __ZNKSt3__16vectorIlNS_9allocatorIlEEE31__annotate_contiguous_containerB8ue170006EPKvS5_S5_S5_, symObjAddr: 0x23FFC, symBinAddr: 0x100026EF0, symSize: 0x20 }
  - { offsetInCU: 0x4F00D, offset: 0x4F00D, size: 0x8, addend: 0x0, symName: __ZNKSt3__16vectorIlNS_9allocatorIlEEE4dataB8ue170006Ev, symObjAddr: 0x2401C, symBinAddr: 0x100026F10, symSize: 0x28 }
  - { offsetInCU: 0x4F033, offset: 0x4F033, size: 0x8, addend: 0x0, symName: __ZNKSt3__16vectorIlNS_9allocatorIlEEE4sizeB8ue170006Ev, symObjAddr: 0x24044, symBinAddr: 0x100026F38, symSize: 0x28 }
  - { offsetInCU: 0x4F059, offset: 0x4F059, size: 0x8, addend: 0x0, symName: __ZNSt3__19allocatorIlE10deallocateB8ue170006EPlm, symObjAddr: 0x2406C, symBinAddr: 0x100026F60, symSize: 0x40 }
  - { offsetInCU: 0x4F09B, offset: 0x4F09B, size: 0x8, addend: 0x0, symName: __ZNSt3__117__compressed_pairIPlNS_9allocatorIlEEE6secondB8ue170006Ev, symObjAddr: 0x240AC, symBinAddr: 0x100026FA0, symSize: 0x24 }
  - { offsetInCU: 0x4F0C1, offset: 0x4F0C1, size: 0x8, addend: 0x0, symName: __ZNSt3__122__compressed_pair_elemINS_9allocatorIlEELi1ELb1EE5__getB8ue170006Ev, symObjAddr: 0x240D0, symBinAddr: 0x100026FC4, symSize: 0x14 }
  - { offsetInCU: 0x4F0E7, offset: 0x4F0E7, size: 0x8, addend: 0x0, symName: __ZNKSt3__16vectorIlNS_9allocatorIlEEE9__end_capB8ue170006Ev, symObjAddr: 0x240E4, symBinAddr: 0x100026FD8, symSize: 0x28 }
  - { offsetInCU: 0x4F10D, offset: 0x4F10D, size: 0x8, addend: 0x0, symName: __ZNKSt3__117__compressed_pairIPlNS_9allocatorIlEEE5firstB8ue170006Ev, symObjAddr: 0x2410C, symBinAddr: 0x100027000, symSize: 0x24 }
  - { offsetInCU: 0x4F133, offset: 0x4F133, size: 0x8, addend: 0x0, symName: __ZNKSt3__122__compressed_pair_elemIPlLi0ELb0EE5__getB8ue170006Ev, symObjAddr: 0x24130, symBinAddr: 0x100027024, symSize: 0x14 }
  - { offsetInCU: 0x4F159, offset: 0x4F159, size: 0x8, addend: 0x0, symName: __ZNSt3__16vectorIdNS_9allocatorIdEEED2B8ue170006Ev, symObjAddr: 0x24144, symBinAddr: 0x100027038, symSize: 0x44 }
  - { offsetInCU: 0x4F183, offset: 0x4F183, size: 0x8, addend: 0x0, symName: __ZNSt3__16vectorIdNS_9allocatorIdEEE16__destroy_vectorC1B8ue170006ERS3_, symObjAddr: 0x24188, symBinAddr: 0x10002707C, symSize: 0x34 }
  - { offsetInCU: 0x4F1BC, offset: 0x4F1BC, size: 0x8, addend: 0x0, symName: __ZNSt3__16vectorIdNS_9allocatorIdEEE16__destroy_vectorclB8ue170006Ev, symObjAddr: 0x241BC, symBinAddr: 0x1000270B0, symSize: 0x90 }
  - { offsetInCU: 0x4F1E2, offset: 0x4F1E2, size: 0x8, addend: 0x0, symName: __ZNSt3__16vectorIdNS_9allocatorIdEEE16__destroy_vectorC2B8ue170006ERS3_, symObjAddr: 0x2424C, symBinAddr: 0x100027140, symSize: 0x20 }
  - { offsetInCU: 0x4F21B, offset: 0x4F21B, size: 0x8, addend: 0x0, symName: __ZNSt3__16vectorIdNS_9allocatorIdEEE7__clearB8ue170006Ev, symObjAddr: 0x2426C, symBinAddr: 0x100027160, symSize: 0x28 }
  - { offsetInCU: 0x4F241, offset: 0x4F241, size: 0x8, addend: 0x0, symName: __ZNKSt3__16vectorIdNS_9allocatorIdEEE17__annotate_deleteB8ue170006Ev, symObjAddr: 0x24294, symBinAddr: 0x100027188, symSize: 0xB8 }
  - { offsetInCU: 0x4F267, offset: 0x4F267, size: 0x8, addend: 0x0, symName: __ZNSt3__116allocator_traitsINS_9allocatorIdEEE10deallocateB8ue170006ERS2_Pdm, symObjAddr: 0x2434C, symBinAddr: 0x100027240, symSize: 0x34 }
  - { offsetInCU: 0x4F2A9, offset: 0x4F2A9, size: 0x8, addend: 0x0, symName: __ZNSt3__16vectorIdNS_9allocatorIdEEE7__allocB8ue170006Ev, symObjAddr: 0x24380, symBinAddr: 0x100027274, symSize: 0x28 }
  - { offsetInCU: 0x4F2CF, offset: 0x4F2CF, size: 0x8, addend: 0x0, symName: __ZNKSt3__16vectorIdNS_9allocatorIdEEE8capacityB8ue170006Ev, symObjAddr: 0x243A8, symBinAddr: 0x10002729C, symSize: 0x40 }
  - { offsetInCU: 0x4F2F5, offset: 0x4F2F5, size: 0x8, addend: 0x0, symName: __ZNSt3__16vectorIdNS_9allocatorIdEEE22__base_destruct_at_endB8ue170006EPd, symObjAddr: 0x243E8, symBinAddr: 0x1000272DC, symSize: 0x8C }
  - { offsetInCU: 0x4F339, offset: 0x4F339, size: 0x8, addend: 0x0, symName: __ZNSt3__116allocator_traitsINS_9allocatorIdEEE7destroyB8ue170006IdvEEvRS2_PT_, symObjAddr: 0x24474, symBinAddr: 0x100027368, symSize: 0x2C }
  - { offsetInCU: 0x4F376, offset: 0x4F376, size: 0x8, addend: 0x0, symName: __ZNSt3__19allocatorIdE7destroyB8ue170006EPd, symObjAddr: 0x244B4, symBinAddr: 0x1000273A8, symSize: 0x14 }
  - { offsetInCU: 0x4F3AA, offset: 0x4F3AA, size: 0x8, addend: 0x0, symName: __ZNKSt3__16vectorIdNS_9allocatorIdEEE31__annotate_contiguous_containerB8ue170006EPKvS5_S5_S5_, symObjAddr: 0x244C8, symBinAddr: 0x1000273BC, symSize: 0x20 }
  - { offsetInCU: 0x4F3FC, offset: 0x4F3FC, size: 0x8, addend: 0x0, symName: __ZNKSt3__16vectorIdNS_9allocatorIdEEE4dataB8ue170006Ev, symObjAddr: 0x244E8, symBinAddr: 0x1000273DC, symSize: 0x28 }
  - { offsetInCU: 0x4F422, offset: 0x4F422, size: 0x8, addend: 0x0, symName: __ZNSt3__19allocatorIdE10deallocateB8ue170006EPdm, symObjAddr: 0x24510, symBinAddr: 0x100027404, symSize: 0x40 }
  - { offsetInCU: 0x4F464, offset: 0x4F464, size: 0x8, addend: 0x0, symName: __ZNSt3__117__compressed_pairIPdNS_9allocatorIdEEE6secondB8ue170006Ev, symObjAddr: 0x24550, symBinAddr: 0x100027444, symSize: 0x24 }
  - { offsetInCU: 0x4F48A, offset: 0x4F48A, size: 0x8, addend: 0x0, symName: __ZNSt3__122__compressed_pair_elemINS_9allocatorIdEELi1ELb1EE5__getB8ue170006Ev, symObjAddr: 0x24574, symBinAddr: 0x100027468, symSize: 0x14 }
  - { offsetInCU: 0x4F4B0, offset: 0x4F4B0, size: 0x8, addend: 0x0, symName: __ZNKSt3__16vectorIdNS_9allocatorIdEEE9__end_capB8ue170006Ev, symObjAddr: 0x24588, symBinAddr: 0x10002747C, symSize: 0x28 }
  - { offsetInCU: 0x4F4D6, offset: 0x4F4D6, size: 0x8, addend: 0x0, symName: __ZNKSt3__117__compressed_pairIPdNS_9allocatorIdEEE5firstB8ue170006Ev, symObjAddr: 0x245B0, symBinAddr: 0x1000274A4, symSize: 0x24 }
  - { offsetInCU: 0x4F4FC, offset: 0x4F4FC, size: 0x8, addend: 0x0, symName: __ZNKSt3__122__compressed_pair_elemIPdLi0ELb0EE5__getB8ue170006Ev, symObjAddr: 0x245D4, symBinAddr: 0x1000274C8, symSize: 0x14 }
  - { offsetInCU: 0x4F522, offset: 0x4F522, size: 0x8, addend: 0x0, symName: __ZNSt3__16vectorI5ChainNS_9allocatorIS1_EEEC2ERKS4_, symObjAddr: 0x245E8, symBinAddr: 0x1000274DC, symSize: 0x94 }
  - { offsetInCU: 0x4F569, offset: 0x4F569, size: 0x8, addend: 0x0, symName: __ZNSt3__116allocator_traitsINS_9allocatorI5ChainEEE37select_on_container_copy_constructionB8ue170006IS3_vvEES3_RKS3_, symObjAddr: 0x2467C, symBinAddr: 0x100027570, symSize: 0x10 }
  - { offsetInCU: 0x4F598, offset: 0x4F598, size: 0x8, addend: 0x0, symName: __ZNKSt3__16vectorI5ChainNS_9allocatorIS1_EEE7__allocB8ue170006Ev, symObjAddr: 0x2468C, symBinAddr: 0x100027580, symSize: 0x28 }
  - { offsetInCU: 0x4F5C4, offset: 0x4F5C4, size: 0x8, addend: 0x0, symName: __ZNSt3__117__compressed_pairIP5ChainNS_9allocatorIS1_EEEC1B8ue170006IDnS4_EEOT_OT0_, symObjAddr: 0x246B4, symBinAddr: 0x1000275A8, symSize: 0x3C }
  - { offsetInCU: 0x4F61C, offset: 0x4F61C, size: 0x8, addend: 0x0, symName: __ZNSt3__16vectorI5ChainNS_9allocatorIS1_EEE16__init_with_sizeB8ue170006IPS1_S6_EEvT_T0_m, symObjAddr: 0x246F0, symBinAddr: 0x1000275E4, symSize: 0xB8 }
  - { offsetInCU: 0x4F690, offset: 0x4F690, size: 0x8, addend: 0x0, symName: __ZNKSt3__117__compressed_pairIP5ChainNS_9allocatorIS1_EEE6secondB8ue170006Ev, symObjAddr: 0x247A8, symBinAddr: 0x10002769C, symSize: 0x24 }
  - { offsetInCU: 0x4F6B6, offset: 0x4F6B6, size: 0x8, addend: 0x0, symName: __ZNKSt3__122__compressed_pair_elemINS_9allocatorI5ChainEELi1ELb1EE5__getB8ue170006Ev, symObjAddr: 0x247CC, symBinAddr: 0x1000276C0, symSize: 0x14 }
  - { offsetInCU: 0x4F6DC, offset: 0x4F6DC, size: 0x8, addend: 0x0, symName: __ZNSt3__117__compressed_pairIP5ChainNS_9allocatorIS1_EEEC2B8ue170006IDnS4_EEOT_OT0_, symObjAddr: 0x247E0, symBinAddr: 0x1000276D4, symSize: 0x44 }
  - { offsetInCU: 0x4F734, offset: 0x4F734, size: 0x8, addend: 0x0, symName: __ZNSt3__122__compressed_pair_elemIP5ChainLi0ELb0EEC2B8ue170006IDnvEEOT_, symObjAddr: 0x24824, symBinAddr: 0x100027718, symSize: 0x1C }
  - { offsetInCU: 0x4F776, offset: 0x4F776, size: 0x8, addend: 0x0, symName: __ZNSt3__122__compressed_pair_elemINS_9allocatorI5ChainEELi1ELb1EEC2B8ue170006IS3_vEEOT_, symObjAddr: 0x24840, symBinAddr: 0x100027734, symSize: 0x18 }
  - { offsetInCU: 0x4F7B8, offset: 0x4F7B8, size: 0x8, addend: 0x0, symName: __ZNSt3__16vectorI5ChainNS_9allocatorIS1_EEE11__vallocateB8ue170006Em, symObjAddr: 0x24898, symBinAddr: 0x10002778C, symSize: 0xB4 }
  - { offsetInCU: 0x4F7FC, offset: 0x4F7FC, size: 0x8, addend: 0x0, symName: __ZNSt3__16vectorI5ChainNS_9allocatorIS1_EEE18__construct_at_endIPS1_S6_EEvT_T0_m, symObjAddr: 0x2494C, symBinAddr: 0x100027840, symSize: 0x8C }
  - { offsetInCU: 0x4F872, offset: 0x4F872, size: 0x8, addend: 0x0, symName: __ZNSt3__128__exception_guard_exceptionsINS_6vectorI5ChainNS_9allocatorIS2_EEE16__destroy_vectorEE10__completeB8ue170006Ev, symObjAddr: 0x249D8, symBinAddr: 0x1000278CC, symSize: 0x1C }
  - { offsetInCU: 0x4F898, offset: 0x4F898, size: 0x8, addend: 0x0, symName: __ZNSt3__128__exception_guard_exceptionsINS_6vectorI5ChainNS_9allocatorIS2_EEE16__destroy_vectorEED1B8ue170006Ev, symObjAddr: 0x249F4, symBinAddr: 0x1000278E8, symSize: 0x2C }
  - { offsetInCU: 0x4F8C2, offset: 0x4F8C2, size: 0x8, addend: 0x0, symName: __ZNSt3__128__exception_guard_exceptionsINS_6vectorI5ChainNS_9allocatorIS2_EEE16__destroy_vectorEEC1B8ue170006ES6_, symObjAddr: 0x24A20, symBinAddr: 0x100027914, symSize: 0x34 }
  - { offsetInCU: 0x4F8FA, offset: 0x4F8FA, size: 0x8, addend: 0x0, symName: __ZNSt3__128__exception_guard_exceptionsINS_6vectorI5ChainNS_9allocatorIS2_EEE16__destroy_vectorEEC2B8ue170006ES6_, symObjAddr: 0x24A54, symBinAddr: 0x100027948, symSize: 0x24 }
  - { offsetInCU: 0x4F932, offset: 0x4F932, size: 0x8, addend: 0x0, symName: __ZNKSt3__16vectorI5ChainNS_9allocatorIS1_EEE8max_sizeEv, symObjAddr: 0x24A78, symBinAddr: 0x10002796C, symSize: 0x60 }
  - { offsetInCU: 0x4F95A, offset: 0x4F95A, size: 0x8, addend: 0x0, symName: __ZNKSt3__16vectorI5ChainNS_9allocatorIS1_EEE20__throw_length_errorB8ue170006Ev, symObjAddr: 0x24AD8, symBinAddr: 0x1000279CC, symSize: 0x1C }
  - { offsetInCU: 0x4F980, offset: 0x4F980, size: 0x8, addend: 0x0, symName: __ZNSt3__16vectorI5ChainNS_9allocatorIS1_EEE9__end_capB8ue170006Ev, symObjAddr: 0x24B34, symBinAddr: 0x100027A28, symSize: 0x28 }
  - { offsetInCU: 0x4F9A6, offset: 0x4F9A6, size: 0x8, addend: 0x0, symName: __ZNKSt3__16vectorI5ChainNS_9allocatorIS1_EEE14__annotate_newB8ue170006Em, symObjAddr: 0x24B5C, symBinAddr: 0x100027A50, symSize: 0xC8 }
  - { offsetInCU: 0x4F9DB, offset: 0x4F9DB, size: 0x8, addend: 0x0, symName: __ZNSt3__116allocator_traitsINS_9allocatorI5ChainEEE8max_sizeB8ue170006IS3_vEEmRKS3_, symObjAddr: 0x24C24, symBinAddr: 0x100027B18, symSize: 0x24 }
  - { offsetInCU: 0x4FA09, offset: 0x4FA09, size: 0x8, addend: 0x0, symName: __ZNKSt3__19allocatorI5ChainE8max_sizeB8ue170006Ev, symObjAddr: 0x24C48, symBinAddr: 0x100027B3C, symSize: 0x18 }
  - { offsetInCU: 0x4FA2F, offset: 0x4FA2F, size: 0x8, addend: 0x0, symName: __ZNSt3__19allocatorI5ChainE8allocateB8ue170006Em, symObjAddr: 0x24C60, symBinAddr: 0x100027B54, symSize: 0x5C }
  - { offsetInCU: 0x4FA63, offset: 0x4FA63, size: 0x8, addend: 0x0, symName: __ZNSt3__117__compressed_pairIP5ChainNS_9allocatorIS1_EEE5firstB8ue170006Ev, symObjAddr: 0x24CBC, symBinAddr: 0x100027BB0, symSize: 0x24 }
  - { offsetInCU: 0x4FA89, offset: 0x4FA89, size: 0x8, addend: 0x0, symName: __ZNSt3__122__compressed_pair_elemIP5ChainLi0ELb0EE5__getB8ue170006Ev, symObjAddr: 0x24CE0, symBinAddr: 0x100027BD4, symSize: 0x14 }
  - { offsetInCU: 0x4FACD, offset: 0x4FACD, size: 0x8, addend: 0x0, symName: __ZNSt3__16vectorI5ChainNS_9allocatorIS1_EEE21_ConstructTransactionC1B8ue170006ERS4_m, symObjAddr: 0x24CF4, symBinAddr: 0x100027BE8, symSize: 0x3C }
  - { offsetInCU: 0x4FB15, offset: 0x4FB15, size: 0x8, addend: 0x0, symName: __ZNSt3__16vectorI5ChainNS_9allocatorIS1_EEE21_ConstructTransactionD1B8ue170006Ev, symObjAddr: 0x24DB0, symBinAddr: 0x100027CA4, symSize: 0x2C }
  - { offsetInCU: 0x4FB3F, offset: 0x4FB3F, size: 0x8, addend: 0x0, symName: __ZNSt3__16vectorI5ChainNS_9allocatorIS1_EEE21_ConstructTransactionC2B8ue170006ERS4_m, symObjAddr: 0x24DDC, symBinAddr: 0x100027CD0, symSize: 0x4C }
  - { offsetInCU: 0x4FBAB, offset: 0x4FBAB, size: 0x8, addend: 0x0, symName: __ZNSt3__14pairIP5ChainS2_EC1B8ue170006IS2_S2_LPv0EEEOT_OT0_, symObjAddr: 0x25014, symBinAddr: 0x100027F08, symSize: 0x3C }
  - { offsetInCU: 0x4FC09, offset: 0x4FC09, size: 0x8, addend: 0x0, symName: __ZNSt3__14pairIP5ChainS2_EC2B8ue170006IS2_S2_LPv0EEEOT_OT0_, symObjAddr: 0x25050, symBinAddr: 0x100027F44, symSize: 0x34 }
  - { offsetInCU: 0x4FC67, offset: 0x4FC67, size: 0x8, addend: 0x0, symName: __ZNSt3__129_AllocatorDestroyRangeReverseINS_9allocatorI5ChainEEPS2_EC1B8ue170006ERS3_RS4_S7_, symObjAddr: 0x250D0, symBinAddr: 0x100027FC4, symSize: 0x44 }
  - { offsetInCU: 0x4FCBE, offset: 0x4FCBE, size: 0x8, addend: 0x0, symName: __ZNSt3__116allocator_traitsINS_9allocatorI5ChainEEE9constructB8ue170006IS2_JRS2_EvEEvRS3_PT_DpOT0_, symObjAddr: 0x25114, symBinAddr: 0x100028008, symSize: 0x34 }
  - { offsetInCU: 0x4FD15, offset: 0x4FD15, size: 0x8, addend: 0x0, symName: __ZNSt3__128__exception_guard_exceptionsINS_29_AllocatorDestroyRangeReverseINS_9allocatorI5ChainEEPS3_EEE10__completeB8ue170006Ev, symObjAddr: 0x25148, symBinAddr: 0x10002803C, symSize: 0x1C }
  - { offsetInCU: 0x4FD3B, offset: 0x4FD3B, size: 0x8, addend: 0x0, symName: __ZNSt3__128__exception_guard_exceptionsINS_29_AllocatorDestroyRangeReverseINS_9allocatorI5ChainEEPS3_EEED1B8ue170006Ev, symObjAddr: 0x25164, symBinAddr: 0x100028058, symSize: 0x2C }
  - { offsetInCU: 0x4FD65, offset: 0x4FD65, size: 0x8, addend: 0x0, symName: __ZNSt3__128__exception_guard_exceptionsINS_29_AllocatorDestroyRangeReverseINS_9allocatorI5ChainEEPS3_EEEC1B8ue170006ES6_, symObjAddr: 0x25190, symBinAddr: 0x100028084, symSize: 0x34 }
  - { offsetInCU: 0x4FD9E, offset: 0x4FD9E, size: 0x8, addend: 0x0, symName: __ZNSt3__128__exception_guard_exceptionsINS_29_AllocatorDestroyRangeReverseINS_9allocatorI5ChainEEPS3_EEEC2B8ue170006ES6_, symObjAddr: 0x251C4, symBinAddr: 0x1000280B8, symSize: 0x30 }
  - { offsetInCU: 0x4FDD7, offset: 0x4FDD7, size: 0x8, addend: 0x0, symName: __ZNSt3__129_AllocatorDestroyRangeReverseINS_9allocatorI5ChainEEPS2_EC2B8ue170006ERS3_RS4_S7_, symObjAddr: 0x251F4, symBinAddr: 0x1000280E8, symSize: 0x38 }
  - { offsetInCU: 0x4FE2E, offset: 0x4FE2E, size: 0x8, addend: 0x0, symName: __ZNSt3__19allocatorI5ChainE9constructB8ue170006IS1_JRS1_EEEvPT_DpOT0_, symObjAddr: 0x2522C, symBinAddr: 0x100028120, symSize: 0x30 }
  - { offsetInCU: 0x4FE84, offset: 0x4FE84, size: 0x8, addend: 0x0, symName: __ZN5ChainC1ERKS_, symObjAddr: 0x2525C, symBinAddr: 0x100028150, symSize: 0x34 }
  - { offsetInCU: 0x4FEB9, offset: 0x4FEB9, size: 0x8, addend: 0x0, symName: __ZN5ChainC2ERKS_, symObjAddr: 0x25290, symBinAddr: 0x100028184, symSize: 0xC0 }
  - { offsetInCU: 0x4FEEE, offset: 0x4FEEE, size: 0x8, addend: 0x0, symName: __ZN5boost14adjacency_listINS_4vecSES1_NS_14bidirectionalSE7Monomer8EdgeDataNS_11no_propertyENS_5listSEEC1ERKS7_, symObjAddr: 0x25350, symBinAddr: 0x100028244, symSize: 0x34 }
  - { offsetInCU: 0x4FF27, offset: 0x4FF27, size: 0x8, addend: 0x0, symName: __ZN5boost14adjacency_listINS_4vecSES1_NS_14bidirectionalSE7Monomer8EdgeDataNS_11no_propertyENS_5listSEEC2ERKS7_, symObjAddr: 0x25384, symBinAddr: 0x100028278, symSize: 0x84 }
  - { offsetInCU: 0x4FF60, offset: 0x4FF60, size: 0x8, addend: 0x0, symName: __ZN5boost17vec_adj_list_implINS_14adjacency_listINS_4vecSES2_NS_14bidirectionalSE7Monomer8EdgeDataNS_11no_propertyENS_5listSEEENS_6detail12adj_list_genIS8_S2_S2_S3_S4_S5_S6_S7_E6configENS_40bidirectional_graph_helper_with_propertyISC_EEEC2ERKSF_, symObjAddr: 0x25408, symBinAddr: 0x1000282FC, symSize: 0x7C }
  - { offsetInCU: 0x4FF99, offset: 0x4FF99, size: 0x8, addend: 0x0, symName: __ZNK5boost10scoped_ptrINS_11no_propertyEEdeEv, symObjAddr: 0x25484, symBinAddr: 0x100028378, symSize: 0x70 }
  - { offsetInCU: 0x4FFBF, offset: 0x4FFBF, size: 0x8, addend: 0x0, symName: __ZN5boost10scoped_ptrINS_11no_propertyEEC1EPS1_, symObjAddr: 0x254F4, symBinAddr: 0x1000283E8, symSize: 0x34 }
  - { offsetInCU: 0x4FFF7, offset: 0x4FFF7, size: 0x8, addend: 0x0, symName: __ZNSt3__14listIN5boost9list_edgeIm8EdgeDataEENS_9allocatorIS4_EEEC1B8ue170006Ev, symObjAddr: 0x25528, symBinAddr: 0x10002841C, symSize: 0x2C }
  - { offsetInCU: 0x50021, offset: 0x50021, size: 0x8, addend: 0x0, symName: __ZNSt3__16vectorIN5boost6detail12adj_list_genINS1_14adjacency_listINS1_4vecSES5_NS1_14bidirectionalSE7Monomer8EdgeDataNS1_11no_propertyENS1_5listSEEES5_S5_S6_S7_S8_S9_SA_E6config13stored_vertexENS_9allocatorISE_EEEC1B8ue170006Ev, symObjAddr: 0x25554, symBinAddr: 0x100028448, symSize: 0x2C }
  - { offsetInCU: 0x5004B, offset: 0x5004B, size: 0x8, addend: 0x0, symName: __ZN5boost17vec_adj_list_implINS_14adjacency_listINS_4vecSES2_NS_14bidirectionalSE7Monomer8EdgeDataNS_11no_propertyENS_5listSEEENS_6detail12adj_list_genIS8_S2_S2_S3_S4_S5_S6_S7_E6configENS_40bidirectional_graph_helper_with_propertyISC_EEE9copy_implERKSF_, symObjAddr: 0x25580, symBinAddr: 0x100028474, symSize: 0x1D8 }
  - { offsetInCU: 0x50119, offset: 0x50119, size: 0x8, addend: 0x0, symName: __ZNSt3__14listIN5boost9list_edgeIm8EdgeDataEENS_9allocatorIS4_EEEC2B8ue170006Ev, symObjAddr: 0x25758, symBinAddr: 0x10002864C, symSize: 0x2C }
  - { offsetInCU: 0x50143, offset: 0x50143, size: 0x8, addend: 0x0, symName: __ZNSt3__110__list_impIN5boost9list_edgeIm8EdgeDataEENS_9allocatorIS4_EEEC2Ev, symObjAddr: 0x25784, symBinAddr: 0x100028678, symSize: 0x50 }
  - { offsetInCU: 0x5016F, offset: 0x5016F, size: 0x8, addend: 0x0, symName: __ZNSt3__116__list_node_baseIN5boost9list_edgeIm8EdgeDataEEPvEC1B8ue170006Ev, symObjAddr: 0x257D4, symBinAddr: 0x1000286C8, symSize: 0x2C }
  - { offsetInCU: 0x50199, offset: 0x50199, size: 0x8, addend: 0x0, symName: __ZNSt3__117__compressed_pairImNS_9allocatorINS_11__list_nodeIN5boost9list_edgeIm8EdgeDataEEPvEEEEEC1B8ue170006IiNS_18__default_init_tagEEEOT_OT0_, symObjAddr: 0x25800, symBinAddr: 0x1000286F4, symSize: 0x3C }
  - { offsetInCU: 0x501F1, offset: 0x501F1, size: 0x8, addend: 0x0, symName: __ZNSt3__116__list_node_baseIN5boost9list_edgeIm8EdgeDataEEPvEC2B8ue170006Ev, symObjAddr: 0x2583C, symBinAddr: 0x100028730, symSize: 0x4C }
  - { offsetInCU: 0x5021B, offset: 0x5021B, size: 0x8, addend: 0x0, symName: __ZNSt3__117__compressed_pairImNS_9allocatorINS_11__list_nodeIN5boost9list_edgeIm8EdgeDataEEPvEEEEEC2B8ue170006IiNS_18__default_init_tagEEEOT_OT0_, symObjAddr: 0x25888, symBinAddr: 0x10002877C, symSize: 0x40 }
  - { offsetInCU: 0x50273, offset: 0x50273, size: 0x8, addend: 0x0, symName: __ZNSt3__122__compressed_pair_elemINS_9allocatorINS_11__list_nodeIN5boost9list_edgeIm8EdgeDataEEPvEEEELi1ELb1EEC2B8ue170006ENS_18__default_init_tagE, symObjAddr: 0x258C8, symBinAddr: 0x1000287BC, symSize: 0x2C }
  - { offsetInCU: 0x502A7, offset: 0x502A7, size: 0x8, addend: 0x0, symName: __ZNSt3__19allocatorINS_11__list_nodeIN5boost9list_edgeIm8EdgeDataEEPvEEEC2B8ue170006Ev, symObjAddr: 0x258F4, symBinAddr: 0x1000287E8, symSize: 0x2C }
  - { offsetInCU: 0x502D1, offset: 0x502D1, size: 0x8, addend: 0x0, symName: __ZNSt3__116__non_trivial_ifILb1ENS_9allocatorINS_11__list_nodeIN5boost9list_edgeIm8EdgeDataEEPvEEEEEC2B8ue170006Ev, symObjAddr: 0x25920, symBinAddr: 0x100028814, symSize: 0x14 }
  - { offsetInCU: 0x502FB, offset: 0x502FB, size: 0x8, addend: 0x0, symName: __ZNSt3__16vectorIN5boost6detail12adj_list_genINS1_14adjacency_listINS1_4vecSES5_NS1_14bidirectionalSE7Monomer8EdgeDataNS1_11no_propertyENS1_5listSEEES5_S5_S6_S7_S8_S9_SA_E6config13stored_vertexENS_9allocatorISE_EEEC2B8ue170006Ev, symObjAddr: 0x25934, symBinAddr: 0x100028828, symSize: 0x4C }
  - { offsetInCU: 0x50325, offset: 0x50325, size: 0x8, addend: 0x0, symName: __ZNSt3__117__compressed_pairIPN5boost6detail12adj_list_genINS1_14adjacency_listINS1_4vecSES5_NS1_14bidirectionalSE7Monomer8EdgeDataNS1_11no_propertyENS1_5listSEEES5_S5_S6_S7_S8_S9_SA_E6config13stored_vertexENS_9allocatorISE_EEEC1B8ue170006IDnNS_18__default_init_tagEEEOT_OT0_, symObjAddr: 0x25980, symBinAddr: 0x100028874, symSize: 0x3C }
  - { offsetInCU: 0x5037D, offset: 0x5037D, size: 0x8, addend: 0x0, symName: __ZNSt3__117__compressed_pairIPN5boost6detail12adj_list_genINS1_14adjacency_listINS1_4vecSES5_NS1_14bidirectionalSE7Monomer8EdgeDataNS1_11no_propertyENS1_5listSEEES5_S5_S6_S7_S8_S9_SA_E6config13stored_vertexENS_9allocatorISE_EEEC2B8ue170006IDnNS_18__default_init_tagEEEOT_OT0_, symObjAddr: 0x259BC, symBinAddr: 0x1000288B0, symSize: 0x40 }
  - { offsetInCU: 0x503D5, offset: 0x503D5, size: 0x8, addend: 0x0, symName: __ZNSt3__122__compressed_pair_elemIPN5boost6detail12adj_list_genINS1_14adjacency_listINS1_4vecSES5_NS1_14bidirectionalSE7Monomer8EdgeDataNS1_11no_propertyENS1_5listSEEES5_S5_S6_S7_S8_S9_SA_E6config13stored_vertexELi0ELb0EEC2B8ue170006IDnvEEOT_, symObjAddr: 0x259FC, symBinAddr: 0x1000288F0, symSize: 0x1C }
  - { offsetInCU: 0x50417, offset: 0x50417, size: 0x8, addend: 0x0, symName: __ZNSt3__122__compressed_pair_elemINS_9allocatorIN5boost6detail12adj_list_genINS2_14adjacency_listINS2_4vecSES6_NS2_14bidirectionalSE7Monomer8EdgeDataNS2_11no_propertyENS2_5listSEEES6_S6_S7_S8_S9_SA_SB_E6config13stored_vertexEEELi1ELb1EEC2B8ue170006ENS_18__default_init_tagE, symObjAddr: 0x25A18, symBinAddr: 0x10002890C, symSize: 0x2C }
  - { offsetInCU: 0x5044B, offset: 0x5044B, size: 0x8, addend: 0x0, symName: __ZNSt3__19allocatorIN5boost6detail12adj_list_genINS1_14adjacency_listINS1_4vecSES5_NS1_14bidirectionalSE7Monomer8EdgeDataNS1_11no_propertyENS1_5listSEEES5_S5_S6_S7_S8_S9_SA_E6config13stored_vertexEEC2B8ue170006Ev, symObjAddr: 0x25A44, symBinAddr: 0x100028938, symSize: 0x2C }
  - { offsetInCU: 0x50475, offset: 0x50475, size: 0x8, addend: 0x0, symName: __ZNSt3__116__non_trivial_ifILb1ENS_9allocatorIN5boost6detail12adj_list_genINS2_14adjacency_listINS2_4vecSES6_NS2_14bidirectionalSE7Monomer8EdgeDataNS2_11no_propertyENS2_5listSEEES6_S6_S7_S8_S9_SA_SB_E6config13stored_vertexEEEEC2B8ue170006Ev, symObjAddr: 0x25A70, symBinAddr: 0x100028964, symSize: 0x14 }
  - { offsetInCU: 0x5049F, offset: 0x5049F, size: 0x8, addend: 0x0, symName: __ZNKSt3__16vectorIN5boost6detail12adj_list_genINS1_14adjacency_listINS1_4vecSES5_NS1_14bidirectionalSE7Monomer8EdgeDataNS1_11no_propertyENS1_5listSEEES5_S5_S6_S7_S8_S9_SA_E6config13stored_vertexENS_9allocatorISE_EEEixB8ue170006Em, symObjAddr: 0x25B40, symBinAddr: 0x100028A34, symSize: 0x2C }
  - { offsetInCU: 0x504D6, offset: 0x504D6, size: 0x8, addend: 0x0, symName: __ZNSt3__16vectorIN5boost6detail12adj_list_genINS1_14adjacency_listINS1_4vecSES5_NS1_14bidirectionalSE7Monomer8EdgeDataNS1_11no_propertyENS1_5listSEEES5_S5_S6_S7_S8_S9_SA_E6config13stored_vertexENS_9allocatorISE_EEEixB8ue170006Em, symObjAddr: 0x25B6C, symBinAddr: 0x100028A60, symSize: 0x2C }
  - { offsetInCU: 0x5050D, offset: 0x5050D, size: 0x8, addend: 0x0, symName: __ZN7MonomeraSERKS_, symObjAddr: 0x25B98, symBinAddr: 0x100028A8C, symSize: 0x5C }
  - { offsetInCU: 0x5053E, offset: 0x5053E, size: 0x8, addend: 0x0, symName: __ZN5boost6detail20undirected_edge_iterINSt3__115__list_iteratorINS_9list_edgeIm8EdgeDataEEPvEENS0_14edge_desc_implINS_17bidirectional_tagEmEElEC1Ev, symObjAddr: 0x25BF4, symBinAddr: 0x100028AE8, symSize: 0x2C }
  - { offsetInCU: 0x505F2, offset: 0x505F2, size: 0x8, addend: 0x0, symName: __ZN5boost6tuples5tupleIRNS_6detail20undirected_edge_iterINSt3__115__list_iteratorINS_9list_edgeIm8EdgeDataEEPvEENS2_14edge_desc_implINS_17bidirectional_tagEmEElEESF_NS0_9null_typeESG_SG_SG_SG_SG_SG_SG_EaSISE_SE_EERSH_RKNS4_4pairIT_T0_EE, symObjAddr: 0x25CE0, symBinAddr: 0x100028BD4, symSize: 0x38 }
  - { offsetInCU: 0x50639, offset: 0x50639, size: 0x8, addend: 0x0, symName: __ZN5boost6detail14edge_desc_implINS_17bidirectional_tagEmEC1Ev, symObjAddr: 0x25D64, symBinAddr: 0x100028C58, symSize: 0x2C }
  - { offsetInCU: 0x50663, offset: 0x50663, size: 0x8, addend: 0x0, symName: __ZNK5boost9iterators6detail20iterator_facade_baseINS_6detail20undirected_edge_iterINSt3__115__list_iteratorINS_9list_edgeIm8EdgeDataEEPvEENS3_14edge_desc_implINS_17bidirectional_tagEmEElEESE_NS0_27bidirectional_traversal_tagESE_lLb0ELb0EEdeEv, symObjAddr: 0x25E24, symBinAddr: 0x100028D18, symSize: 0x30 }
  - { offsetInCU: 0x50701, offset: 0x50701, size: 0x8, addend: 0x0, symName: __ZN5boost6tuples5tupleIRNS_6detail14edge_desc_implINS_17bidirectional_tagEmEERbNS0_9null_typeES8_S8_S8_S8_S8_S8_S8_EaSIS5_bEERS9_RKNSt3__14pairIT_T0_EE, symObjAddr: 0x25EB0, symBinAddr: 0x100028DA4, symSize: 0x44 }
  - { offsetInCU: 0x50748, offset: 0x50748, size: 0x8, addend: 0x0, symName: __ZN8EdgeDataaSERKS_, symObjAddr: 0x25EF4, symBinAddr: 0x100028DE8, symSize: 0x34 }
  - { offsetInCU: 0x50779, offset: 0x50779, size: 0x8, addend: 0x0, symName: __ZN5boost9iterators6detail20iterator_facade_baseINS_6detail20undirected_edge_iterINSt3__115__list_iteratorINS_9list_edgeIm8EdgeDataEEPvEENS3_14edge_desc_implINS_17bidirectional_tagEmEElEESE_NS0_27bidirectional_traversal_tagESE_lLb0ELb0EEppEv, symObjAddr: 0x25F28, symBinAddr: 0x100028E1C, symSize: 0x34 }
  - { offsetInCU: 0x5079F, offset: 0x5079F, size: 0x8, addend: 0x0, symName: __ZNK5boost17vec_adj_list_implINS_14adjacency_listINS_4vecSES2_NS_14bidirectionalSE7Monomer8EdgeDataNS_11no_propertyENS_5listSEEENS_6detail12adj_list_genIS8_S2_S2_S3_S4_S5_S6_S7_E6configENS_40bidirectional_graph_helper_with_propertyISC_EEE10vertex_setEv, symObjAddr: 0x25F5C, symBinAddr: 0x100028E50, symSize: 0x40 }
  - { offsetInCU: 0x507C5, offset: 0x507C5, size: 0x8, addend: 0x0, symName: __ZNK5boost21iterator_range_detail19iterator_range_baseINS_12range_detail16integer_iteratorImEENS_9iterators27random_access_traversal_tagEE4sizeEv, symObjAddr: 0x25F9C, symBinAddr: 0x100028E90, symSize: 0x2C }
  - { offsetInCU: 0x507EB, offset: 0x507EB, size: 0x8, addend: 0x0, symName: __ZN5boost13integer_rangeImEC1Emm, symObjAddr: 0x25FC8, symBinAddr: 0x100028EBC, symSize: 0x3C }
  - { offsetInCU: 0x50831, offset: 0x50831, size: 0x8, addend: 0x0, symName: __ZN5boost13integer_rangeImEC2Emm, symObjAddr: 0x26004, symBinAddr: 0x100028EF8, symSize: 0x58 }
  - { offsetInCU: 0x50877, offset: 0x50877, size: 0x8, addend: 0x0, symName: __ZN5boost12range_detail16integer_iteratorImEC1Em, symObjAddr: 0x2605C, symBinAddr: 0x100028F50, symSize: 0x34 }
  - { offsetInCU: 0x508AF, offset: 0x508AF, size: 0x8, addend: 0x0, symName: __ZN5boost14iterator_rangeINS_12range_detail16integer_iteratorImEEEC2IS3_EET_S6_, symObjAddr: 0x26090, symBinAddr: 0x100028F84, symSize: 0x4C }
  - { offsetInCU: 0x50900, offset: 0x50900, size: 0x8, addend: 0x0, symName: __ZN5boost12range_detail16integer_iteratorImEC2Em, symObjAddr: 0x260DC, symBinAddr: 0x100028FD0, symSize: 0x20 }
  - { offsetInCU: 0x50938, offset: 0x50938, size: 0x8, addend: 0x0, symName: __ZN5boost21iterator_range_detail19iterator_range_baseINS_12range_detail16integer_iteratorImEENS_9iterators27random_access_traversal_tagEEC2IS4_EET_S9_, symObjAddr: 0x260FC, symBinAddr: 0x100028FF0, symSize: 0x4C }
  - { offsetInCU: 0x50989, offset: 0x50989, size: 0x8, addend: 0x0, symName: __ZN5boost21iterator_range_detail19iterator_range_baseINS_12range_detail16integer_iteratorImEENS_9iterators27bidirectional_traversal_tagEEC2IS4_EET_S9_, symObjAddr: 0x26148, symBinAddr: 0x10002903C, symSize: 0x4C }
  - { offsetInCU: 0x509DA, offset: 0x509DA, size: 0x8, addend: 0x0, symName: __ZN5boost21iterator_range_detail19iterator_range_baseINS_12range_detail16integer_iteratorImEENS_9iterators27incrementable_traversal_tagEEC2IS4_EET_S9_, symObjAddr: 0x26194, symBinAddr: 0x100029088, symSize: 0x2C }
  - { offsetInCU: 0x50A29, offset: 0x50A29, size: 0x8, addend: 0x0, symName: __ZN5boost9iterators20iterator_core_access13distance_fromINS_12range_detail16integer_iteratorImEES5_EENT_15difference_typeERKS6_RKT0_N4mpl_5bool_ILb1EEE, symObjAddr: 0x26204, symBinAddr: 0x1000290F8, symSize: 0x34 }
  - { offsetInCU: 0x50A79, offset: 0x50A79, size: 0x8, addend: 0x0, symName: __ZNK5boost12range_detail16integer_iteratorImE11distance_toERKS2_, symObjAddr: 0x26254, symBinAddr: 0x100029148, symSize: 0x7C }
  - { offsetInCU: 0x50AAD, offset: 0x50AAD, size: 0x8, addend: 0x0, symName: __ZNSt3__16vectorIN5boost6detail12adj_list_genINS1_14adjacency_listINS1_4vecSES5_NS1_14bidirectionalSE7Monomer8EdgeDataNS1_11no_propertyENS1_5listSEEES5_S5_S6_S7_S8_S9_SA_E6config13stored_vertexENS_9allocatorISE_EEE6resizeEm, symObjAddr: 0x262D0, symBinAddr: 0x1000291C4, symSize: 0x9C }
  - { offsetInCU: 0x50AF3, offset: 0x50AF3, size: 0x8, addend: 0x0, symName: __ZN5boost5graph17maybe_named_graphINS_14adjacency_listINS_4vecSES3_NS_14bidirectionalSE7Monomer8EdgeDataNS_11no_propertyENS_5listSEEEmS5_vE12added_vertexEm, symObjAddr: 0x2636C, symBinAddr: 0x100029260, symSize: 0x14 }
  - { offsetInCU: 0x50B24, offset: 0x50B24, size: 0x8, addend: 0x0, symName: __ZNSt3__16vectorIN5boost6detail12adj_list_genINS1_14adjacency_listINS1_4vecSES5_NS1_14bidirectionalSE7Monomer8EdgeDataNS1_11no_propertyENS1_5listSEEES5_S5_S6_S7_S8_S9_SA_E6config13stored_vertexENS_9allocatorISE_EEE8__appendEm, symObjAddr: 0x26380, symBinAddr: 0x100029274, symSize: 0x108 }
  - { offsetInCU: 0x50B7F, offset: 0x50B7F, size: 0x8, addend: 0x0, symName: __ZNSt3__16vectorIN5boost6detail12adj_list_genINS1_14adjacency_listINS1_4vecSES5_NS1_14bidirectionalSE7Monomer8EdgeDataNS1_11no_propertyENS1_5listSEEES5_S5_S6_S7_S8_S9_SA_E6config13stored_vertexENS_9allocatorISE_EEE17__destruct_at_endB8ue170006EPSE_, symObjAddr: 0x26488, symBinAddr: 0x10002937C, symSize: 0x4C }
  - { offsetInCU: 0x50BC3, offset: 0x50BC3, size: 0x8, addend: 0x0, symName: __ZNSt3__16vectorIN5boost6detail12adj_list_genINS1_14adjacency_listINS1_4vecSES5_NS1_14bidirectionalSE7Monomer8EdgeDataNS1_11no_propertyENS1_5listSEEES5_S5_S6_S7_S8_S9_SA_E6config13stored_vertexENS_9allocatorISE_EEE9__end_capB8ue170006Ev, symObjAddr: 0x264D4, symBinAddr: 0x1000293C8, symSize: 0x28 }
  - { offsetInCU: 0x50BE9, offset: 0x50BE9, size: 0x8, addend: 0x0, symName: __ZNSt3__16vectorIN5boost6detail12adj_list_genINS1_14adjacency_listINS1_4vecSES5_NS1_14bidirectionalSE7Monomer8EdgeDataNS1_11no_propertyENS1_5listSEEES5_S5_S6_S7_S8_S9_SA_E6config13stored_vertexENS_9allocatorISE_EEE18__construct_at_endEm, symObjAddr: 0x264FC, symBinAddr: 0x1000293F0, symSize: 0xC8 }
  - { offsetInCU: 0x50C5C, offset: 0x50C5C, size: 0x8, addend: 0x0, symName: __ZNKSt3__16vectorIN5boost6detail12adj_list_genINS1_14adjacency_listINS1_4vecSES5_NS1_14bidirectionalSE7Monomer8EdgeDataNS1_11no_propertyENS1_5listSEEES5_S5_S6_S7_S8_S9_SA_E6config13stored_vertexENS_9allocatorISE_EEE11__recommendB8ue170006Em, symObjAddr: 0x265C4, symBinAddr: 0x1000294B8, symSize: 0xB4 }
  - { offsetInCU: 0x50CB1, offset: 0x50CB1, size: 0x8, addend: 0x0, symName: __ZNSt3__114__split_bufferIN5boost6detail12adj_list_genINS1_14adjacency_listINS1_4vecSES5_NS1_14bidirectionalSE7Monomer8EdgeDataNS1_11no_propertyENS1_5listSEEES5_S5_S6_S7_S8_S9_SA_E6config13stored_vertexERNS_9allocatorISE_EEEC1EmmSH_, symObjAddr: 0x26678, symBinAddr: 0x10002956C, symSize: 0x44 }
  - { offsetInCU: 0x50D07, offset: 0x50D07, size: 0x8, addend: 0x0, symName: __ZNSt3__114__split_bufferIN5boost6detail12adj_list_genINS1_14adjacency_listINS1_4vecSES5_NS1_14bidirectionalSE7Monomer8EdgeDataNS1_11no_propertyENS1_5listSEEES5_S5_S6_S7_S8_S9_SA_E6config13stored_vertexERNS_9allocatorISE_EEE18__construct_at_endEm, symObjAddr: 0x266BC, symBinAddr: 0x1000295B0, symSize: 0xB4 }
  - { offsetInCU: 0x50D4C, offset: 0x50D4C, size: 0x8, addend: 0x0, symName: __ZNSt3__114__split_bufferIN5boost6detail12adj_list_genINS1_14adjacency_listINS1_4vecSES5_NS1_14bidirectionalSE7Monomer8EdgeDataNS1_11no_propertyENS1_5listSEEES5_S5_S6_S7_S8_S9_SA_E6config13stored_vertexERNS_9allocatorISE_EEED1Ev, symObjAddr: 0x26880, symBinAddr: 0x100029774, symSize: 0x2C }
  - { offsetInCU: 0x50D78, offset: 0x50D78, size: 0x8, addend: 0x0, symName: __ZNSt3__117__compressed_pairIPN5boost6detail12adj_list_genINS1_14adjacency_listINS1_4vecSES5_NS1_14bidirectionalSE7Monomer8EdgeDataNS1_11no_propertyENS1_5listSEEES5_S5_S6_S7_S8_S9_SA_E6config13stored_vertexENS_9allocatorISE_EEE5firstB8ue170006Ev, symObjAddr: 0x268AC, symBinAddr: 0x1000297A0, symSize: 0x24 }
  - { offsetInCU: 0x50D9E, offset: 0x50D9E, size: 0x8, addend: 0x0, symName: __ZNSt3__122__compressed_pair_elemIPN5boost6detail12adj_list_genINS1_14adjacency_listINS1_4vecSES5_NS1_14bidirectionalSE7Monomer8EdgeDataNS1_11no_propertyENS1_5listSEEES5_S5_S6_S7_S8_S9_SA_E6config13stored_vertexELi0ELb0EE5__getB8ue170006Ev, symObjAddr: 0x268D0, symBinAddr: 0x1000297C4, symSize: 0x14 }
  - { offsetInCU: 0x50DE2, offset: 0x50DE2, size: 0x8, addend: 0x0, symName: __ZNSt3__16vectorIN5boost6detail12adj_list_genINS1_14adjacency_listINS1_4vecSES5_NS1_14bidirectionalSE7Monomer8EdgeDataNS1_11no_propertyENS1_5listSEEES5_S5_S6_S7_S8_S9_SA_E6config13stored_vertexENS_9allocatorISE_EEE21_ConstructTransactionC1B8ue170006ERSH_m, symObjAddr: 0x268E4, symBinAddr: 0x1000297D8, symSize: 0x3C }
  - { offsetInCU: 0x50E2A, offset: 0x50E2A, size: 0x8, addend: 0x0, symName: __ZNSt3__116allocator_traitsINS_9allocatorIN5boost6detail12adj_list_genINS2_14adjacency_listINS2_4vecSES6_NS2_14bidirectionalSE7Monomer8EdgeDataNS2_11no_propertyENS2_5listSEEES6_S6_S7_S8_S9_SA_SB_E6config13stored_vertexEEEE9constructB8ue170006ISF_JEvEEvRSG_PT_DpOT0_, symObjAddr: 0x26920, symBinAddr: 0x100029814, symSize: 0x2C }
  - { offsetInCU: 0x50E6C, offset: 0x50E6C, size: 0x8, addend: 0x0, symName: __ZNSt3__16vectorIN5boost6detail12adj_list_genINS1_14adjacency_listINS1_4vecSES5_NS1_14bidirectionalSE7Monomer8EdgeDataNS1_11no_propertyENS1_5listSEEES5_S5_S6_S7_S8_S9_SA_E6config13stored_vertexENS_9allocatorISE_EEE21_ConstructTransactionD1B8ue170006Ev, symObjAddr: 0x2694C, symBinAddr: 0x100029840, symSize: 0x2C }
  - { offsetInCU: 0x50E96, offset: 0x50E96, size: 0x8, addend: 0x0, symName: __ZNSt3__16vectorIN5boost6detail12adj_list_genINS1_14adjacency_listINS1_4vecSES5_NS1_14bidirectionalSE7Monomer8EdgeDataNS1_11no_propertyENS1_5listSEEES5_S5_S6_S7_S8_S9_SA_E6config13stored_vertexENS_9allocatorISE_EEE21_ConstructTransactionC2B8ue170006ERSH_m, symObjAddr: 0x26978, symBinAddr: 0x10002986C, symSize: 0x4C }
  - { offsetInCU: 0x50EDE, offset: 0x50EDE, size: 0x8, addend: 0x0, symName: __ZNSt3__19allocatorIN5boost6detail12adj_list_genINS1_14adjacency_listINS1_4vecSES5_NS1_14bidirectionalSE7Monomer8EdgeDataNS1_11no_propertyENS1_5listSEEES5_S5_S6_S7_S8_S9_SA_E6config13stored_vertexEE9constructB8ue170006ISE_JEEEvPT_DpOT0_, symObjAddr: 0x269C4, symBinAddr: 0x1000298B8, symSize: 0x28 }
  - { offsetInCU: 0x50F20, offset: 0x50F20, size: 0x8, addend: 0x0, symName: __ZN5boost6detail12adj_list_genINS_14adjacency_listINS_4vecSES3_NS_14bidirectionalSE7Monomer8EdgeDataNS_11no_propertyENS_5listSEEES3_S3_S4_S5_S6_S7_S8_E6config13stored_vertexC1Ev, symObjAddr: 0x269EC, symBinAddr: 0x1000298E0, symSize: 0x2C }
  - { offsetInCU: 0x50F4A, offset: 0x50F4A, size: 0x8, addend: 0x0, symName: __ZN5boost6detail12adj_list_genINS_14adjacency_listINS_4vecSES3_NS_14bidirectionalSE7Monomer8EdgeDataNS_11no_propertyENS_5listSEEES3_S3_S4_S5_S6_S7_S8_E6config13stored_vertexC2Ev, symObjAddr: 0x26A18, symBinAddr: 0x10002990C, symSize: 0x2C }
  - { offsetInCU: 0x50F74, offset: 0x50F74, size: 0x8, addend: 0x0, symName: __ZN5boost6detail12adj_list_genINS_14adjacency_listINS_4vecSES3_NS_14bidirectionalSE7Monomer8EdgeDataNS_11no_propertyENS_5listSEEES3_S3_S4_S5_S6_S7_S8_E6config24bidir_rand_stored_vertexC2Ev, symObjAddr: 0x26A44, symBinAddr: 0x100029938, symSize: 0x44 }
  - { offsetInCU: 0x50F9E, offset: 0x50F9E, size: 0x8, addend: 0x0, symName: __ZNSt3__16vectorIN5boost6detail16stored_edge_iterImNS_15__list_iteratorINS1_9list_edgeIm8EdgeDataEEPvEES6_EENS_9allocatorISA_EEEC1B8ue170006Ev, symObjAddr: 0x26A88, symBinAddr: 0x10002997C, symSize: 0x2C }
  - { offsetInCU: 0x50FC8, offset: 0x50FC8, size: 0x8, addend: 0x0, symName: __ZN7MonomerC1Ev, symObjAddr: 0x26AB4, symBinAddr: 0x1000299A8, symSize: 0x2C }
  - { offsetInCU: 0x50FF4, offset: 0x50FF4, size: 0x8, addend: 0x0, symName: __ZNSt3__16vectorIN5boost6detail16stored_edge_iterImNS_15__list_iteratorINS1_9list_edgeIm8EdgeDataEEPvEES6_EENS_9allocatorISA_EEEC2B8ue170006Ev, symObjAddr: 0x26AE0, symBinAddr: 0x1000299D4, symSize: 0x4C }
  - { offsetInCU: 0x5101E, offset: 0x5101E, size: 0x8, addend: 0x0, symName: __ZNSt3__117__compressed_pairIPN5boost6detail16stored_edge_iterImNS_15__list_iteratorINS1_9list_edgeIm8EdgeDataEEPvEES6_EENS_9allocatorISA_EEEC1B8ue170006IDnNS_18__default_init_tagEEEOT_OT0_, symObjAddr: 0x26B2C, symBinAddr: 0x100029A20, symSize: 0x3C }
  - { offsetInCU: 0x51076, offset: 0x51076, size: 0x8, addend: 0x0, symName: __ZNSt3__117__compressed_pairIPN5boost6detail16stored_edge_iterImNS_15__list_iteratorINS1_9list_edgeIm8EdgeDataEEPvEES6_EENS_9allocatorISA_EEEC2B8ue170006IDnNS_18__default_init_tagEEEOT_OT0_, symObjAddr: 0x26B68, symBinAddr: 0x100029A5C, symSize: 0x40 }
  - { offsetInCU: 0x510CE, offset: 0x510CE, size: 0x8, addend: 0x0, symName: __ZNSt3__122__compressed_pair_elemIPN5boost6detail16stored_edge_iterImNS_15__list_iteratorINS1_9list_edgeIm8EdgeDataEEPvEES6_EELi0ELb0EEC2B8ue170006IDnvEEOT_, symObjAddr: 0x26BA8, symBinAddr: 0x100029A9C, symSize: 0x1C }
  - { offsetInCU: 0x51110, offset: 0x51110, size: 0x8, addend: 0x0, symName: __ZNSt3__122__compressed_pair_elemINS_9allocatorIN5boost6detail16stored_edge_iterImNS_15__list_iteratorINS2_9list_edgeIm8EdgeDataEEPvEES7_EEEELi1ELb1EEC2B8ue170006ENS_18__default_init_tagE, symObjAddr: 0x26BC4, symBinAddr: 0x100029AB8, symSize: 0x2C }
  - { offsetInCU: 0x51144, offset: 0x51144, size: 0x8, addend: 0x0, symName: __ZNSt3__19allocatorIN5boost6detail16stored_edge_iterImNS_15__list_iteratorINS1_9list_edgeIm8EdgeDataEEPvEES6_EEEC2B8ue170006Ev, symObjAddr: 0x26BF0, symBinAddr: 0x100029AE4, symSize: 0x2C }
  - { offsetInCU: 0x5116E, offset: 0x5116E, size: 0x8, addend: 0x0, symName: __ZNSt3__116__non_trivial_ifILb1ENS_9allocatorIN5boost6detail16stored_edge_iterImNS_15__list_iteratorINS2_9list_edgeIm8EdgeDataEEPvEES7_EEEEEC2B8ue170006Ev, symObjAddr: 0x26C1C, symBinAddr: 0x100029B10, symSize: 0x14 }
  - { offsetInCU: 0x51198, offset: 0x51198, size: 0x8, addend: 0x0, symName: __ZN7MonomerC2Ev, symObjAddr: 0x26C30, symBinAddr: 0x100029B24, symSize: 0x38 }
  - { offsetInCU: 0x511C4, offset: 0x511C4, size: 0x8, addend: 0x0, symName: __ZNSt3__112basic_stringIcNS_11char_traitsIcEENS_9allocatorIcEEEC1B8ue170006Ev, symObjAddr: 0x26C68, symBinAddr: 0x100029B5C, symSize: 0x2C }
  - { offsetInCU: 0x511EE, offset: 0x511EE, size: 0x8, addend: 0x0, symName: __ZNSt3__112basic_stringIcNS_11char_traitsIcEENS_9allocatorIcEEEC2B8ue170006Ev, symObjAddr: 0x26C94, symBinAddr: 0x100029B88, symSize: 0x44 }
  - { offsetInCU: 0x51218, offset: 0x51218, size: 0x8, addend: 0x0, symName: __ZNSt3__16vectorIN5boost6detail12adj_list_genINS1_14adjacency_listINS1_4vecSES5_NS1_14bidirectionalSE7Monomer8EdgeDataNS1_11no_propertyENS1_5listSEEES5_S5_S6_S7_S8_S9_SA_E6config13stored_vertexENS_9allocatorISE_EEE21_ConstructTransactionD2B8ue170006Ev, symObjAddr: 0x26CD8, symBinAddr: 0x100029BCC, symSize: 0x20 }
  - { offsetInCU: 0x51242, offset: 0x51242, size: 0x8, addend: 0x0, symName: __ZNKSt3__16vectorIN5boost6detail12adj_list_genINS1_14adjacency_listINS1_4vecSES5_NS1_14bidirectionalSE7Monomer8EdgeDataNS1_11no_propertyENS1_5listSEEES5_S5_S6_S7_S8_S9_SA_E6config13stored_vertexENS_9allocatorISE_EEE8max_sizeEv, symObjAddr: 0x26CF8, symBinAddr: 0x100029BEC, symSize: 0x60 }
  - { offsetInCU: 0x5126A, offset: 0x5126A, size: 0x8, addend: 0x0, symName: __ZNKSt3__16vectorIN5boost6detail12adj_list_genINS1_14adjacency_listINS1_4vecSES5_NS1_14bidirectionalSE7Monomer8EdgeDataNS1_11no_propertyENS1_5listSEEES5_S5_S6_S7_S8_S9_SA_E6config13stored_vertexENS_9allocatorISE_EEE20__throw_length_errorB8ue170006Ev, symObjAddr: 0x26D58, symBinAddr: 0x100029C4C, symSize: 0x1C }
  - { offsetInCU: 0x5129C, offset: 0x5129C, size: 0x8, addend: 0x0, symName: __ZNSt3__116allocator_traitsINS_9allocatorIN5boost6detail12adj_list_genINS2_14adjacency_listINS2_4vecSES6_NS2_14bidirectionalSE7Monomer8EdgeDataNS2_11no_propertyENS2_5listSEEES6_S6_S7_S8_S9_SA_SB_E6config13stored_vertexEEEE8max_sizeB8ue170006ISG_vEEmRKSG_, symObjAddr: 0x26DA0, symBinAddr: 0x100029C94, symSize: 0x24 }
  - { offsetInCU: 0x512CA, offset: 0x512CA, size: 0x8, addend: 0x0, symName: __ZNKSt3__16vectorIN5boost6detail12adj_list_genINS1_14adjacency_listINS1_4vecSES5_NS1_14bidirectionalSE7Monomer8EdgeDataNS1_11no_propertyENS1_5listSEEES5_S5_S6_S7_S8_S9_SA_E6config13stored_vertexENS_9allocatorISE_EEE7__allocB8ue170006Ev, symObjAddr: 0x26DC4, symBinAddr: 0x100029CB8, symSize: 0x28 }
  - { offsetInCU: 0x512F0, offset: 0x512F0, size: 0x8, addend: 0x0, symName: __ZNKSt3__19allocatorIN5boost6detail12adj_list_genINS1_14adjacency_listINS1_4vecSES5_NS1_14bidirectionalSE7Monomer8EdgeDataNS1_11no_propertyENS1_5listSEEES5_S5_S6_S7_S8_S9_SA_E6config13stored_vertexEE8max_sizeB8ue170006Ev, symObjAddr: 0x26DEC, symBinAddr: 0x100029CE0, symSize: 0x20 }
  - { offsetInCU: 0x51316, offset: 0x51316, size: 0x8, addend: 0x0, symName: __ZNKSt3__117__compressed_pairIPN5boost6detail12adj_list_genINS1_14adjacency_listINS1_4vecSES5_NS1_14bidirectionalSE7Monomer8EdgeDataNS1_11no_propertyENS1_5listSEEES5_S5_S6_S7_S8_S9_SA_E6config13stored_vertexENS_9allocatorISE_EEE6secondB8ue170006Ev, symObjAddr: 0x26E0C, symBinAddr: 0x100029D00, symSize: 0x24 }
  - { offsetInCU: 0x5133C, offset: 0x5133C, size: 0x8, addend: 0x0, symName: __ZNKSt3__122__compressed_pair_elemINS_9allocatorIN5boost6detail12adj_list_genINS2_14adjacency_listINS2_4vecSES6_NS2_14bidirectionalSE7Monomer8EdgeDataNS2_11no_propertyENS2_5listSEEES6_S6_S7_S8_S9_SA_SB_E6config13stored_vertexEEELi1ELb1EE5__getB8ue170006Ev, symObjAddr: 0x26E30, symBinAddr: 0x100029D24, symSize: 0x14 }
  - { offsetInCU: 0x51362, offset: 0x51362, size: 0x8, addend: 0x0, symName: __ZNSt3__114__split_bufferIN5boost6detail12adj_list_genINS1_14adjacency_listINS1_4vecSES5_NS1_14bidirectionalSE7Monomer8EdgeDataNS1_11no_propertyENS1_5listSEEES5_S5_S6_S7_S8_S9_SA_E6config13stored_vertexERNS_9allocatorISE_EEEC2EmmSH_, symObjAddr: 0x26E98, symBinAddr: 0x100029D8C, symSize: 0xE0 }
  - { offsetInCU: 0x513D6, offset: 0x513D6, size: 0x8, addend: 0x0, symName: __ZNSt3__117__compressed_pairIPN5boost6detail12adj_list_genINS1_14adjacency_listINS1_4vecSES5_NS1_14bidirectionalSE7Monomer8EdgeDataNS1_11no_propertyENS1_5listSEEES5_S5_S6_S7_S8_S9_SA_E6config13stored_vertexERNS_9allocatorISE_EEEC1B8ue170006IDnSI_EEOT_OT0_, symObjAddr: 0x26F78, symBinAddr: 0x100029E6C, symSize: 0x3C }
  - { offsetInCU: 0x5142E, offset: 0x5142E, size: 0x8, addend: 0x0, symName: __ZNSt3__114__split_bufferIN5boost6detail12adj_list_genINS1_14adjacency_listINS1_4vecSES5_NS1_14bidirectionalSE7Monomer8EdgeDataNS1_11no_propertyENS1_5listSEEES5_S5_S6_S7_S8_S9_SA_E6config13stored_vertexERNS_9allocatorISE_EEE7__allocB8ue170006Ev, symObjAddr: 0x26FF4, symBinAddr: 0x100029EE8, symSize: 0x28 }
  - { offsetInCU: 0x51454, offset: 0x51454, size: 0x8, addend: 0x0, symName: __ZNSt3__114__split_bufferIN5boost6detail12adj_list_genINS1_14adjacency_listINS1_4vecSES5_NS1_14bidirectionalSE7Monomer8EdgeDataNS1_11no_propertyENS1_5listSEEES5_S5_S6_S7_S8_S9_SA_E6config13stored_vertexERNS_9allocatorISE_EEE9__end_capB8ue170006Ev, symObjAddr: 0x2701C, symBinAddr: 0x100029F10, symSize: 0x28 }
  - { offsetInCU: 0x5147A, offset: 0x5147A, size: 0x8, addend: 0x0, symName: __ZNSt3__117__compressed_pairIPN5boost6detail12adj_list_genINS1_14adjacency_listINS1_4vecSES5_NS1_14bidirectionalSE7Monomer8EdgeDataNS1_11no_propertyENS1_5listSEEES5_S5_S6_S7_S8_S9_SA_E6config13stored_vertexERNS_9allocatorISE_EEEC2B8ue170006IDnSI_EEOT_OT0_, symObjAddr: 0x27044, symBinAddr: 0x100029F38, symSize: 0x48 }
  - { offsetInCU: 0x514D2, offset: 0x514D2, size: 0x8, addend: 0x0, symName: __ZNSt3__122__compressed_pair_elemIRNS_9allocatorIN5boost6detail12adj_list_genINS2_14adjacency_listINS2_4vecSES6_NS2_14bidirectionalSE7Monomer8EdgeDataNS2_11no_propertyENS2_5listSEEES6_S6_S7_S8_S9_SA_SB_E6config13stored_vertexEEELi1ELb0EEC2B8ue170006ISH_vEEOT_, symObjAddr: 0x2708C, symBinAddr: 0x100029F80, symSize: 0x20 }
  - { offsetInCU: 0x51514, offset: 0x51514, size: 0x8, addend: 0x0, symName: __ZNSt3__19allocatorIN5boost6detail12adj_list_genINS1_14adjacency_listINS1_4vecSES5_NS1_14bidirectionalSE7Monomer8EdgeDataNS1_11no_propertyENS1_5listSEEES5_S5_S6_S7_S8_S9_SA_E6config13stored_vertexEE8allocateB8ue170006Em, symObjAddr: 0x270AC, symBinAddr: 0x100029FA0, symSize: 0x5C }
  - { offsetInCU: 0x51548, offset: 0x51548, size: 0x8, addend: 0x0, symName: __ZNSt3__117__compressed_pairIPN5boost6detail12adj_list_genINS1_14adjacency_listINS1_4vecSES5_NS1_14bidirectionalSE7Monomer8EdgeDataNS1_11no_propertyENS1_5listSEEES5_S5_S6_S7_S8_S9_SA_E6config13stored_vertexERNS_9allocatorISE_EEE6secondB8ue170006Ev, symObjAddr: 0x27108, symBinAddr: 0x100029FFC, symSize: 0x28 }
  - { offsetInCU: 0x5156E, offset: 0x5156E, size: 0x8, addend: 0x0, symName: __ZNSt3__122__compressed_pair_elemIRNS_9allocatorIN5boost6detail12adj_list_genINS2_14adjacency_listINS2_4vecSES6_NS2_14bidirectionalSE7Monomer8EdgeDataNS2_11no_propertyENS2_5listSEEES6_S6_S7_S8_S9_SA_SB_E6config13stored_vertexEEELi1ELb0EE5__getB8ue170006Ev, symObjAddr: 0x27130, symBinAddr: 0x10002A024, symSize: 0x18 }
  - { offsetInCU: 0x51594, offset: 0x51594, size: 0x8, addend: 0x0, symName: __ZNSt3__117__compressed_pairIPN5boost6detail12adj_list_genINS1_14adjacency_listINS1_4vecSES5_NS1_14bidirectionalSE7Monomer8EdgeDataNS1_11no_propertyENS1_5listSEEES5_S5_S6_S7_S8_S9_SA_E6config13stored_vertexERNS_9allocatorISE_EEE5firstB8ue170006Ev, symObjAddr: 0x27148, symBinAddr: 0x10002A03C, symSize: 0x24 }
  - { offsetInCU: 0x515C6, offset: 0x515C6, size: 0x8, addend: 0x0, symName: __ZNSt3__114__split_bufferIN5boost6detail12adj_list_genINS1_14adjacency_listINS1_4vecSES5_NS1_14bidirectionalSE7Monomer8EdgeDataNS1_11no_propertyENS1_5listSEEES5_S5_S6_S7_S8_S9_SA_E6config13stored_vertexERNS_9allocatorISE_EEE21_ConstructTransactionC1B8ue170006EPPSE_m, symObjAddr: 0x2716C, symBinAddr: 0x10002A060, symSize: 0x3C }
  - { offsetInCU: 0x5160C, offset: 0x5160C, size: 0x8, addend: 0x0, symName: __ZNSt3__114__split_bufferIN5boost6detail12adj_list_genINS1_14adjacency_listINS1_4vecSES5_NS1_14bidirectionalSE7Monomer8EdgeDataNS1_11no_propertyENS1_5listSEEES5_S5_S6_S7_S8_S9_SA_E6config13stored_vertexERNS_9allocatorISE_EEE21_ConstructTransactionD1B8ue170006Ev, symObjAddr: 0x271A8, symBinAddr: 0x10002A09C, symSize: 0x2C }
  - { offsetInCU: 0x51636, offset: 0x51636, size: 0x8, addend: 0x0, symName: __ZNSt3__114__split_bufferIN5boost6detail12adj_list_genINS1_14adjacency_listINS1_4vecSES5_NS1_14bidirectionalSE7Monomer8EdgeDataNS1_11no_propertyENS1_5listSEEES5_S5_S6_S7_S8_S9_SA_E6config13stored_vertexERNS_9allocatorISE_EEE21_ConstructTransactionC2B8ue170006EPPSE_m, symObjAddr: 0x271D4, symBinAddr: 0x10002A0C8, symSize: 0x4C }
  - { offsetInCU: 0x5167C, offset: 0x5167C, size: 0x8, addend: 0x0, symName: __ZNSt3__114__split_bufferIN5boost6detail12adj_list_genINS1_14adjacency_listINS1_4vecSES5_NS1_14bidirectionalSE7Monomer8EdgeDataNS1_11no_propertyENS1_5listSEEES5_S5_S6_S7_S8_S9_SA_E6config13stored_vertexERNS_9allocatorISE_EEE21_ConstructTransactionD2B8ue170006Ev, symObjAddr: 0x27220, symBinAddr: 0x10002A114, symSize: 0x20 }
  - { offsetInCU: 0x516A6, offset: 0x516A6, size: 0x8, addend: 0x0, symName: __ZNSt3__116reverse_iteratorIPN5boost6detail12adj_list_genINS1_14adjacency_listINS1_4vecSES5_NS1_14bidirectionalSE7Monomer8EdgeDataNS1_11no_propertyENS1_5listSEEES5_S5_S6_S7_S8_S9_SA_E6config13stored_vertexEEC1B8ue170006ESF_, symObjAddr: 0x2736C, symBinAddr: 0x10002A260, symSize: 0x34 }
  - { offsetInCU: 0x516DE, offset: 0x516DE, size: 0x8, addend: 0x0, symName: __ZNKSt3__116reverse_iteratorIPN5boost6detail12adj_list_genINS1_14adjacency_listINS1_4vecSES5_NS1_14bidirectionalSE7Monomer8EdgeDataNS1_11no_propertyENS1_5listSEEES5_S5_S6_S7_S8_S9_SA_E6config13stored_vertexEE4baseB8ue170006Ev, symObjAddr: 0x273A0, symBinAddr: 0x10002A294, symSize: 0x18 }
  - { offsetInCU: 0x51704, offset: 0x51704, size: 0x8, addend: 0x0, symName: __ZNKSt3__16vectorIN5boost6detail12adj_list_genINS1_14adjacency_listINS1_4vecSES5_NS1_14bidirectionalSE7Monomer8EdgeDataNS1_11no_propertyENS1_5listSEEES5_S5_S6_S7_S8_S9_SA_E6config13stored_vertexENS_9allocatorISE_EEE14__annotate_newB8ue170006Em, symObjAddr: 0x273F4, symBinAddr: 0x10002A2E8, symSize: 0xC8 }
  - { offsetInCU: 0x51739, offset: 0x51739, size: 0x8, addend: 0x0, symName: __ZNSt3__129_AllocatorDestroyRangeReverseINS_9allocatorIN5boost6detail12adj_list_genINS2_14adjacency_listINS2_4vecSES6_NS2_14bidirectionalSE7Monomer8EdgeDataNS2_11no_propertyENS2_5listSEEES6_S6_S7_S8_S9_SA_SB_E6config13stored_vertexEEENS_16reverse_iteratorIPSF_EEEC1B8ue170006ERSG_RSJ_SM_, symObjAddr: 0x27508, symBinAddr: 0x10002A3FC, symSize: 0x44 }
  - { offsetInCU: 0x51796, offset: 0x51796, size: 0x8, addend: 0x0, symName: __ZNSt3__116allocator_traitsINS_9allocatorIN5boost6detail12adj_list_genINS2_14adjacency_listINS2_4vecSES6_NS2_14bidirectionalSE7Monomer8EdgeDataNS2_11no_propertyENS2_5listSEEES6_S6_S7_S8_S9_SA_SB_E6config13stored_vertexEEEE9constructB8ue170006ISF_JSF_EvEEvRSG_PT_DpOT0_, symObjAddr: 0x27594, symBinAddr: 0x10002A488, symSize: 0x34 }
  - { offsetInCU: 0x517ED, offset: 0x517ED, size: 0x8, addend: 0x0, symName: __ZNKSt3__116reverse_iteratorIPN5boost6detail12adj_list_genINS1_14adjacency_listINS1_4vecSES5_NS1_14bidirectionalSE7Monomer8EdgeDataNS1_11no_propertyENS1_5listSEEES5_S5_S6_S7_S8_S9_SA_E6config13stored_vertexEEdeB8ue170006Ev, symObjAddr: 0x275EC, symBinAddr: 0x10002A4E0, symSize: 0x28 }
  - { offsetInCU: 0x51821, offset: 0x51821, size: 0x8, addend: 0x0, symName: __ZNSt3__116reverse_iteratorIPN5boost6detail12adj_list_genINS1_14adjacency_listINS1_4vecSES5_NS1_14bidirectionalSE7Monomer8EdgeDataNS1_11no_propertyENS1_5listSEEES5_S5_S6_S7_S8_S9_SA_E6config13stored_vertexEEppB8ue170006Ev, symObjAddr: 0x27614, symBinAddr: 0x10002A508, symSize: 0x20 }
  - { offsetInCU: 0x51847, offset: 0x51847, size: 0x8, addend: 0x0, symName: __ZNSt3__128__exception_guard_exceptionsINS_29_AllocatorDestroyRangeReverseINS_9allocatorIN5boost6detail12adj_list_genINS3_14adjacency_listINS3_4vecSES7_NS3_14bidirectionalSE7Monomer8EdgeDataNS3_11no_propertyENS3_5listSEEES7_S7_S8_S9_SA_SB_SC_E6config13stored_vertexEEENS_16reverse_iteratorIPSG_EEEEE10__completeB8ue170006Ev, symObjAddr: 0x27634, symBinAddr: 0x10002A528, symSize: 0x1C }
  - { offsetInCU: 0x5186D, offset: 0x5186D, size: 0x8, addend: 0x0, symName: __ZNSt3__128__exception_guard_exceptionsINS_29_AllocatorDestroyRangeReverseINS_9allocatorIN5boost6detail12adj_list_genINS3_14adjacency_listINS3_4vecSES7_NS3_14bidirectionalSE7Monomer8EdgeDataNS3_11no_propertyENS3_5listSEEES7_S7_S8_S9_SA_SB_SC_E6config13stored_vertexEEENS_16reverse_iteratorIPSG_EEEEED1B8ue170006Ev, symObjAddr: 0x27650, symBinAddr: 0x10002A544, symSize: 0x2C }
  - { offsetInCU: 0x51897, offset: 0x51897, size: 0x8, addend: 0x0, symName: __ZNSt3__128__exception_guard_exceptionsINS_29_AllocatorDestroyRangeReverseINS_9allocatorIN5boost6detail12adj_list_genINS3_14adjacency_listINS3_4vecSES7_NS3_14bidirectionalSE7Monomer8EdgeDataNS3_11no_propertyENS3_5listSEEES7_S7_S8_S9_SA_SB_SC_E6config13stored_vertexEEENS_16reverse_iteratorIPSG_EEEEEC1B8ue170006ESL_, symObjAddr: 0x2767C, symBinAddr: 0x10002A570, symSize: 0x34 }
  - { offsetInCU: 0x518D0, offset: 0x518D0, size: 0x8, addend: 0x0, symName: __ZNSt3__128__exception_guard_exceptionsINS_29_AllocatorDestroyRangeReverseINS_9allocatorIN5boost6detail12adj_list_genINS3_14adjacency_listINS3_4vecSES7_NS3_14bidirectionalSE7Monomer8EdgeDataNS3_11no_propertyENS3_5listSEEES7_S7_S8_S9_SA_SB_SC_E6config13stored_vertexEEENS_16reverse_iteratorIPSG_EEEEEC2B8ue170006ESL_, symObjAddr: 0x276B0, symBinAddr: 0x10002A5A4, symSize: 0x30 }
  - { offsetInCU: 0x51909, offset: 0x51909, size: 0x8, addend: 0x0, symName: __ZNSt3__129_AllocatorDestroyRangeReverseINS_9allocatorIN5boost6detail12adj_list_genINS2_14adjacency_listINS2_4vecSES6_NS2_14bidirectionalSE7Monomer8EdgeDataNS2_11no_propertyENS2_5listSEEES6_S6_S7_S8_S9_SA_SB_E6config13stored_vertexEEENS_16reverse_iteratorIPSF_EEEC2B8ue170006ERSG_RSJ_SM_, symObjAddr: 0x276E0, symBinAddr: 0x10002A5D4, symSize: 0x38 }
  - { offsetInCU: 0x51960, offset: 0x51960, size: 0x8, addend: 0x0, symName: __ZNSt3__19allocatorIN5boost6detail12adj_list_genINS1_14adjacency_listINS1_4vecSES5_NS1_14bidirectionalSE7Monomer8EdgeDataNS1_11no_propertyENS1_5listSEEES5_S5_S6_S7_S8_S9_SA_E6config13stored_vertexEE9constructB8ue170006ISE_JSE_EEEvPT_DpOT0_, symObjAddr: 0x27718, symBinAddr: 0x10002A60C, symSize: 0x30 }
  - { offsetInCU: 0x519B6, offset: 0x519B6, size: 0x8, addend: 0x0, symName: __ZN5boost6detail12adj_list_genINS_14adjacency_listINS_4vecSES3_NS_14bidirectionalSE7Monomer8EdgeDataNS_11no_propertyENS_5listSEEES3_S3_S4_S5_S6_S7_S8_E6config13stored_vertexC1EOSC_, symObjAddr: 0x27748, symBinAddr: 0x10002A63C, symSize: 0x34 }
  - { offsetInCU: 0x519EC, offset: 0x519EC, size: 0x8, addend: 0x0, symName: __ZN5boost6detail12adj_list_genINS_14adjacency_listINS_4vecSES3_NS_14bidirectionalSE7Monomer8EdgeDataNS_11no_propertyENS_5listSEEES3_S3_S4_S5_S6_S7_S8_E6config13stored_vertexC2EOSC_, symObjAddr: 0x2777C, symBinAddr: 0x10002A670, symSize: 0x34 }
  - { offsetInCU: 0x51A28, offset: 0x51A28, size: 0x8, addend: 0x0, symName: __ZN5boost6detail12adj_list_genINS_14adjacency_listINS_4vecSES3_NS_14bidirectionalSE7Monomer8EdgeDataNS_11no_propertyENS_5listSEEES3_S3_S4_S5_S6_S7_S8_E6config24bidir_rand_stored_vertexC2EOSC_, symObjAddr: 0x277B0, symBinAddr: 0x10002A6A4, symSize: 0x5C }
  - { offsetInCU: 0x51A5E, offset: 0x51A5E, size: 0x8, addend: 0x0, symName: __ZNSt3__16vectorIN5boost6detail16stored_edge_iterImNS_15__list_iteratorINS1_9list_edgeIm8EdgeDataEEPvEES6_EENS_9allocatorISA_EEEC1B8ue170006EOSD_, symObjAddr: 0x2780C, symBinAddr: 0x10002A700, symSize: 0x34 }
  - { offsetInCU: 0x51A9F, offset: 0x51A9F, size: 0x8, addend: 0x0, symName: __ZN7MonomerC1EOS_, symObjAddr: 0x27840, symBinAddr: 0x10002A734, symSize: 0x34 }
  - { offsetInCU: 0x51AD4, offset: 0x51AD4, size: 0x8, addend: 0x0, symName: __ZNSt3__16vectorIN5boost6detail16stored_edge_iterImNS_15__list_iteratorINS1_9list_edgeIm8EdgeDataEEPvEES6_EENS_9allocatorISA_EEEC2B8ue170006EOSD_, symObjAddr: 0x27874, symBinAddr: 0x10002A768, symSize: 0xC4 }
  - { offsetInCU: 0x51B15, offset: 0x51B15, size: 0x8, addend: 0x0, symName: __ZNSt3__117__compressed_pairIPN5boost6detail16stored_edge_iterImNS_15__list_iteratorINS1_9list_edgeIm8EdgeDataEEPvEES6_EENS_9allocatorISA_EEEC1B8ue170006IDnSD_EEOT_OT0_, symObjAddr: 0x27938, symBinAddr: 0x10002A82C, symSize: 0x3C }
  - { offsetInCU: 0x51B6D, offset: 0x51B6D, size: 0x8, addend: 0x0, symName: __ZNSt3__16vectorIN5boost6detail16stored_edge_iterImNS_15__list_iteratorINS1_9list_edgeIm8EdgeDataEEPvEES6_EENS_9allocatorISA_EEE9__end_capB8ue170006Ev, symObjAddr: 0x27974, symBinAddr: 0x10002A868, symSize: 0x28 }
  - { offsetInCU: 0x51B93, offset: 0x51B93, size: 0x8, addend: 0x0, symName: __ZNSt3__117__compressed_pairIPN5boost6detail16stored_edge_iterImNS_15__list_iteratorINS1_9list_edgeIm8EdgeDataEEPvEES6_EENS_9allocatorISA_EEEC2B8ue170006IDnSD_EEOT_OT0_, symObjAddr: 0x2799C, symBinAddr: 0x10002A890, symSize: 0x44 }
  - { offsetInCU: 0x51BEB, offset: 0x51BEB, size: 0x8, addend: 0x0, symName: __ZNSt3__122__compressed_pair_elemINS_9allocatorIN5boost6detail16stored_edge_iterImNS_15__list_iteratorINS2_9list_edgeIm8EdgeDataEEPvEES7_EEEELi1ELb1EEC2B8ue170006ISC_vEEOT_, symObjAddr: 0x279E0, symBinAddr: 0x10002A8D4, symSize: 0x18 }
  - { offsetInCU: 0x51C2D, offset: 0x51C2D, size: 0x8, addend: 0x0, symName: __ZNSt3__117__compressed_pairIPN5boost6detail16stored_edge_iterImNS_15__list_iteratorINS1_9list_edgeIm8EdgeDataEEPvEES6_EENS_9allocatorISA_EEE5firstB8ue170006Ev, symObjAddr: 0x279F8, symBinAddr: 0x10002A8EC, symSize: 0x24 }
  - { offsetInCU: 0x51C53, offset: 0x51C53, size: 0x8, addend: 0x0, symName: __ZNSt3__122__compressed_pair_elemIPN5boost6detail16stored_edge_iterImNS_15__list_iteratorINS1_9list_edgeIm8EdgeDataEEPvEES6_EELi0ELb0EE5__getB8ue170006Ev, symObjAddr: 0x27A1C, symBinAddr: 0x10002A910, symSize: 0x14 }
  - { offsetInCU: 0x51C79, offset: 0x51C79, size: 0x8, addend: 0x0, symName: __ZN7MonomerC2EOS_, symObjAddr: 0x27A30, symBinAddr: 0x10002A924, symSize: 0x5C }
  - { offsetInCU: 0x51CAE, offset: 0x51CAE, size: 0x8, addend: 0x0, symName: __ZNSt3__13mapINS_12basic_stringIcNS_11char_traitsIcEENS_9allocatorIcEEEElNS_4lessIS6_EENS4_INS_4pairIKS6_lEEEEEC1B8ue170006EOSD_, symObjAddr: 0x27A8C, symBinAddr: 0x10002A980, symSize: 0x34 }
  - { offsetInCU: 0x51CE7, offset: 0x51CE7, size: 0x8, addend: 0x0, symName: __ZNSt3__13mapINS_12basic_stringIcNS_11char_traitsIcEENS_9allocatorIcEEEElNS_4lessIS6_EENS4_INS_4pairIKS6_lEEEEEC2B8ue170006EOSD_, symObjAddr: 0x27AC0, symBinAddr: 0x10002A9B4, symSize: 0x34 }
  - { offsetInCU: 0x51D20, offset: 0x51D20, size: 0x8, addend: 0x0, symName: __ZNSt3__16__treeINS_12__value_typeINS_12basic_stringIcNS_11char_traitsIcEENS_9allocatorIcEEEElEENS_19__map_value_compareIS7_S8_NS_4lessIS7_EELb1EEENS5_IS8_EEEC1EOSE_, symObjAddr: 0x27AF4, symBinAddr: 0x10002A9E8, symSize: 0x34 }
  - { offsetInCU: 0x51D5B, offset: 0x51D5B, size: 0x8, addend: 0x0, symName: __ZNSt3__16__treeINS_12__value_typeINS_12basic_stringIcNS_11char_traitsIcEENS_9allocatorIcEEEElEENS_19__map_value_compareIS7_S8_NS_4lessIS7_EELb1EEENS5_IS8_EEEC2EOSE_, symObjAddr: 0x27B28, symBinAddr: 0x10002AA1C, symSize: 0xFC }
  - { offsetInCU: 0x51D96, offset: 0x51D96, size: 0x8, addend: 0x0, symName: __ZNSt3__16__treeINS_12__value_typeINS_12basic_stringIcNS_11char_traitsIcEENS_9allocatorIcEEEElEENS_19__map_value_compareIS7_S8_NS_4lessIS7_EELb1EEENS5_IS8_EEE4sizeB8ue170006Ev, symObjAddr: 0x27C24, symBinAddr: 0x10002AB18, symSize: 0x28 }
  - { offsetInCU: 0x51DBC, offset: 0x51DBC, size: 0x8, addend: 0x0, symName: __ZNSt3__16__treeINS_12__value_typeINS_12basic_stringIcNS_11char_traitsIcEENS_9allocatorIcEEEElEENS_19__map_value_compareIS7_S8_NS_4lessIS7_EELb1EEENS5_IS8_EEE10__end_nodeB8ue170006Ev, symObjAddr: 0x27C4C, symBinAddr: 0x10002AB40, symSize: 0x2C }
  - { offsetInCU: 0x51DE2, offset: 0x51DE2, size: 0x8, addend: 0x0, symName: __ZNSt3__16__treeINS_12__value_typeINS_12basic_stringIcNS_11char_traitsIcEENS_9allocatorIcEEEElEENS_19__map_value_compareIS7_S8_NS_4lessIS7_EELb1EEENS5_IS8_EEE12__begin_nodeB8ue170006Ev, symObjAddr: 0x27C78, symBinAddr: 0x10002AB6C, symSize: 0x14 }
  - { offsetInCU: 0x51E08, offset: 0x51E08, size: 0x8, addend: 0x0, symName: __ZNSt3__117__compressed_pairImNS_19__map_value_compareINS_12basic_stringIcNS_11char_traitsIcEENS_9allocatorIcEEEENS_12__value_typeIS7_lEENS_4lessIS7_EELb1EEEE5firstB8ue170006Ev, symObjAddr: 0x27C8C, symBinAddr: 0x10002AB80, symSize: 0x24 }
  - { offsetInCU: 0x51E2E, offset: 0x51E2E, size: 0x8, addend: 0x0, symName: __ZNSt3__117__compressed_pairINS_15__tree_end_nodeIPNS_16__tree_node_baseIPvEEEENS_9allocatorINS_11__tree_nodeINS_12__value_typeINS_12basic_stringIcNS_11char_traitsIcEENS7_IcEEEElEES3_EEEEE5firstB8ue170006Ev, symObjAddr: 0x27CB0, symBinAddr: 0x10002ABA4, symSize: 0x24 }
  - { offsetInCU: 0x51E5A, offset: 0x51E5A, size: 0x8, addend: 0x0, symName: __ZNSt3__119__to_address_helperINS_16reverse_iteratorIPN5boost6detail12adj_list_genINS2_14adjacency_listINS2_4vecSES6_NS2_14bidirectionalSE7Monomer8EdgeDataNS2_11no_propertyENS2_5listSEEES6_S6_S7_S8_S9_SA_SB_E6config13stored_vertexEEEvE6__callB8ue170006ERKSH_, symObjAddr: 0x27CD4, symBinAddr: 0x10002ABC8, symSize: 0x38 }
  - { offsetInCU: 0x51E7D, offset: 0x51E7D, size: 0x8, addend: 0x0, symName: __ZNKSt3__116reverse_iteratorIPN5boost6detail12adj_list_genINS1_14adjacency_listINS1_4vecSES5_NS1_14bidirectionalSE7Monomer8EdgeDataNS1_11no_propertyENS1_5listSEEES5_S5_S6_S7_S8_S9_SA_E6config13stored_vertexEEptB8ue170006Ev, symObjAddr: 0x27D0C, symBinAddr: 0x10002AC00, symSize: 0x24 }
  - { offsetInCU: 0x51EA3, offset: 0x51EA3, size: 0x8, addend: 0x0, symName: __ZNSt3__128__exception_guard_exceptionsINS_29_AllocatorDestroyRangeReverseINS_9allocatorIN5boost6detail12adj_list_genINS3_14adjacency_listINS3_4vecSES7_NS3_14bidirectionalSE7Monomer8EdgeDataNS3_11no_propertyENS3_5listSEEES7_S7_S8_S9_SA_SB_SC_E6config13stored_vertexEEENS_16reverse_iteratorIPSG_EEEEED2B8ue170006Ev, symObjAddr: 0x27D30, symBinAddr: 0x10002AC24, symSize: 0x50 }
  - { offsetInCU: 0x51ECD, offset: 0x51ECD, size: 0x8, addend: 0x0, symName: __ZNKSt3__129_AllocatorDestroyRangeReverseINS_9allocatorIN5boost6detail12adj_list_genINS2_14adjacency_listINS2_4vecSES6_NS2_14bidirectionalSE7Monomer8EdgeDataNS2_11no_propertyENS2_5listSEEES6_S6_S7_S8_S9_SA_SB_E6config13stored_vertexEEENS_16reverse_iteratorIPSF_EEEclB8ue170006Ev, symObjAddr: 0x27D80, symBinAddr: 0x10002AC74, symSize: 0xB4 }
  - { offsetInCU: 0x51EF4, offset: 0x51EF4, size: 0x8, addend: 0x0, symName: __ZNSt3__116reverse_iteratorINS0_IPN5boost6detail12adj_list_genINS1_14adjacency_listINS1_4vecSES5_NS1_14bidirectionalSE7Monomer8EdgeDataNS1_11no_propertyENS1_5listSEEES5_S5_S6_S7_S8_S9_SA_E6config13stored_vertexEEEEC1B8ue170006ESG_, symObjAddr: 0x27EA4, symBinAddr: 0x10002AD98, symSize: 0x3C }
  - { offsetInCU: 0x51F2C, offset: 0x51F2C, size: 0x8, addend: 0x0, symName: __ZNSt3__116reverse_iteratorINS0_IPN5boost6detail12adj_list_genINS1_14adjacency_listINS1_4vecSES5_NS1_14bidirectionalSE7Monomer8EdgeDataNS1_11no_propertyENS1_5listSEEES5_S5_S6_S7_S8_S9_SA_E6config13stored_vertexEEEEppB8ue170006Ev, symObjAddr: 0x27F64, symBinAddr: 0x10002AE58, symSize: 0x30 }
  - { offsetInCU: 0x51F52, offset: 0x51F52, size: 0x8, addend: 0x0, symName: __ZNKSt3__116reverse_iteratorINS0_IPN5boost6detail12adj_list_genINS1_14adjacency_listINS1_4vecSES5_NS1_14bidirectionalSE7Monomer8EdgeDataNS1_11no_propertyENS1_5listSEEES5_S5_S6_S7_S8_S9_SA_E6config13stored_vertexEEEE4baseB8ue170006Ev, symObjAddr: 0x27F94, symBinAddr: 0x10002AE88, symSize: 0x24 }
  - { offsetInCU: 0x51F7E, offset: 0x51F7E, size: 0x8, addend: 0x0, symName: __ZNSt3__119__to_address_helperINS_16reverse_iteratorINS1_IPN5boost6detail12adj_list_genINS2_14adjacency_listINS2_4vecSES6_NS2_14bidirectionalSE7Monomer8EdgeDataNS2_11no_propertyENS2_5listSEEES6_S6_S7_S8_S9_SA_SB_E6config13stored_vertexEEEEEvE6__callB8ue170006ERKSI_, symObjAddr: 0x27FB8, symBinAddr: 0x10002AEAC, symSize: 0x38 }
  - { offsetInCU: 0x51FA1, offset: 0x51FA1, size: 0x8, addend: 0x0, symName: __ZNKSt3__116reverse_iteratorINS0_IPN5boost6detail12adj_list_genINS1_14adjacency_listINS1_4vecSES5_NS1_14bidirectionalSE7Monomer8EdgeDataNS1_11no_propertyENS1_5listSEEES5_S5_S6_S7_S8_S9_SA_E6config13stored_vertexEEEEptB8ue170006Ev, symObjAddr: 0x27FF0, symBinAddr: 0x10002AEE4, symSize: 0x24 }
  - { offsetInCU: 0x51FC7, offset: 0x51FC7, size: 0x8, addend: 0x0, symName: __ZNKSt3__116reverse_iteratorINS0_IPN5boost6detail12adj_list_genINS1_14adjacency_listINS1_4vecSES5_NS1_14bidirectionalSE7Monomer8EdgeDataNS1_11no_propertyENS1_5listSEEES5_S5_S6_S7_S8_S9_SA_E6config13stored_vertexEEEEdeB8ue170006Ev, symObjAddr: 0x28014, symBinAddr: 0x10002AF08, symSize: 0x34 }
  - { offsetInCU: 0x51FFB, offset: 0x51FFB, size: 0x8, addend: 0x0, symName: __ZNSt3__116reverse_iteratorIPN5boost6detail12adj_list_genINS1_14adjacency_listINS1_4vecSES5_NS1_14bidirectionalSE7Monomer8EdgeDataNS1_11no_propertyENS1_5listSEEES5_S5_S6_S7_S8_S9_SA_E6config13stored_vertexEEmmB8ue170006Ev, symObjAddr: 0x28048, symBinAddr: 0x10002AF3C, symSize: 0x20 }
  - { offsetInCU: 0x52021, offset: 0x52021, size: 0x8, addend: 0x0, symName: __ZNSt3__116reverse_iteratorINS0_IPN5boost6detail12adj_list_genINS1_14adjacency_listINS1_4vecSES5_NS1_14bidirectionalSE7Monomer8EdgeDataNS1_11no_propertyENS1_5listSEEES5_S5_S6_S7_S8_S9_SA_E6config13stored_vertexEEEEC2B8ue170006ESG_, symObjAddr: 0x28068, symBinAddr: 0x10002AF5C, symSize: 0x2C }
  - { offsetInCU: 0x52059, offset: 0x52059, size: 0x8, addend: 0x0, symName: __ZNSt3__116reverse_iteratorIPN5boost6detail12adj_list_genINS1_14adjacency_listINS1_4vecSES5_NS1_14bidirectionalSE7Monomer8EdgeDataNS1_11no_propertyENS1_5listSEEES5_S5_S6_S7_S8_S9_SA_E6config13stored_vertexEEC2B8ue170006ESF_, symObjAddr: 0x28094, symBinAddr: 0x10002AF88, symSize: 0x28 }
  - { offsetInCU: 0x52091, offset: 0x52091, size: 0x8, addend: 0x0, symName: __ZNSt3__114__split_bufferIN5boost6detail12adj_list_genINS1_14adjacency_listINS1_4vecSES5_NS1_14bidirectionalSE7Monomer8EdgeDataNS1_11no_propertyENS1_5listSEEES5_S5_S6_S7_S8_S9_SA_E6config13stored_vertexERNS_9allocatorISE_EEED2Ev, symObjAddr: 0x280BC, symBinAddr: 0x10002AFB0, symSize: 0x8C }
  - { offsetInCU: 0x520BD, offset: 0x520BD, size: 0x8, addend: 0x0, symName: __ZNSt3__114__split_bufferIN5boost6detail12adj_list_genINS1_14adjacency_listINS1_4vecSES5_NS1_14bidirectionalSE7Monomer8EdgeDataNS1_11no_propertyENS1_5listSEEES5_S5_S6_S7_S8_S9_SA_E6config13stored_vertexERNS_9allocatorISE_EEE5clearB8ue170006Ev, symObjAddr: 0x28148, symBinAddr: 0x10002B03C, symSize: 0x28 }
  - { offsetInCU: 0x520E3, offset: 0x520E3, size: 0x8, addend: 0x0, symName: __ZNKSt3__114__split_bufferIN5boost6detail12adj_list_genINS1_14adjacency_listINS1_4vecSES5_NS1_14bidirectionalSE7Monomer8EdgeDataNS1_11no_propertyENS1_5listSEEES5_S5_S6_S7_S8_S9_SA_E6config13stored_vertexERNS_9allocatorISE_EEE8capacityB8ue170006Ev, symObjAddr: 0x28170, symBinAddr: 0x10002B064, symSize: 0x40 }
  - { offsetInCU: 0x52109, offset: 0x52109, size: 0x8, addend: 0x0, symName: __ZNSt3__114__split_bufferIN5boost6detail12adj_list_genINS1_14adjacency_listINS1_4vecSES5_NS1_14bidirectionalSE7Monomer8EdgeDataNS1_11no_propertyENS1_5listSEEES5_S5_S6_S7_S8_S9_SA_E6config13stored_vertexERNS_9allocatorISE_EEE17__destruct_at_endB8ue170006EPSE_, symObjAddr: 0x281B0, symBinAddr: 0x10002B0A4, symSize: 0x2C }
  - { offsetInCU: 0x5213D, offset: 0x5213D, size: 0x8, addend: 0x0, symName: __ZNSt3__114__split_bufferIN5boost6detail12adj_list_genINS1_14adjacency_listINS1_4vecSES5_NS1_14bidirectionalSE7Monomer8EdgeDataNS1_11no_propertyENS1_5listSEEES5_S5_S6_S7_S8_S9_SA_E6config13stored_vertexERNS_9allocatorISE_EEE17__destruct_at_endB8ue170006EPSE_NS_17integral_constantIbLb0EEE, symObjAddr: 0x281DC, symBinAddr: 0x10002B0D0, symSize: 0x80 }
  - { offsetInCU: 0x5217D, offset: 0x5217D, size: 0x8, addend: 0x0, symName: __ZNKSt3__114__split_bufferIN5boost6detail12adj_list_genINS1_14adjacency_listINS1_4vecSES5_NS1_14bidirectionalSE7Monomer8EdgeDataNS1_11no_propertyENS1_5listSEEES5_S5_S6_S7_S8_S9_SA_E6config13stored_vertexERNS_9allocatorISE_EEE9__end_capB8ue170006Ev, symObjAddr: 0x2825C, symBinAddr: 0x10002B150, symSize: 0x28 }
  - { offsetInCU: 0x521A3, offset: 0x521A3, size: 0x8, addend: 0x0, symName: __ZNKSt3__117__compressed_pairIPN5boost6detail12adj_list_genINS1_14adjacency_listINS1_4vecSES5_NS1_14bidirectionalSE7Monomer8EdgeDataNS1_11no_propertyENS1_5listSEEES5_S5_S6_S7_S8_S9_SA_E6config13stored_vertexERNS_9allocatorISE_EEE5firstB8ue170006Ev, symObjAddr: 0x28284, symBinAddr: 0x10002B178, symSize: 0x24 }
  - { offsetInCU: 0x521C9, offset: 0x521C9, size: 0x8, addend: 0x0, symName: __ZNKSt3__16vectorIN5boost6detail12adj_list_genINS1_14adjacency_listINS1_4vecSES5_NS1_14bidirectionalSE7Monomer8EdgeDataNS1_11no_propertyENS1_5listSEEES5_S5_S6_S7_S8_S9_SA_E6config13stored_vertexENS_9allocatorISE_EEE17__annotate_shrinkB8ue170006Em, symObjAddr: 0x282A8, symBinAddr: 0x10002B19C, symSize: 0xD0 }
  - { offsetInCU: 0x521FE, offset: 0x521FE, size: 0x8, addend: 0x0, symName: __ZNSt3__13mapINS_12basic_stringIcNS_11char_traitsIcEENS_9allocatorIcEEEElNS_4lessIS6_EENS4_INS_4pairIKS6_lEEEEEaSB8ue170006ERKSD_, symObjAddr: 0x28378, symBinAddr: 0x10002B26C, symSize: 0x34 }
  - { offsetInCU: 0x52233, offset: 0x52233, size: 0x8, addend: 0x0, symName: __ZNSt3__16__treeINS_12__value_typeINS_12basic_stringIcNS_11char_traitsIcEENS_9allocatorIcEEEElEENS_19__map_value_compareIS7_S8_NS_4lessIS7_EELb1EEENS5_IS8_EEEaSERKSE_, symObjAddr: 0x283AC, symBinAddr: 0x10002B2A0, symSize: 0x8C }
  - { offsetInCU: 0x5226A, offset: 0x5226A, size: 0x8, addend: 0x0, symName: __ZNKSt3__16__treeINS_12__value_typeINS_12basic_stringIcNS_11char_traitsIcEENS_9allocatorIcEEEElEENS_19__map_value_compareIS7_S8_NS_4lessIS7_EELb1EEENS5_IS8_EEE10value_compB8ue170006Ev, symObjAddr: 0x28438, symBinAddr: 0x10002B32C, symSize: 0x28 }
  - { offsetInCU: 0x52290, offset: 0x52290, size: 0x8, addend: 0x0, symName: __ZNSt3__16__treeINS_12__value_typeINS_12basic_stringIcNS_11char_traitsIcEENS_9allocatorIcEEEElEENS_19__map_value_compareIS7_S8_NS_4lessIS7_EELb1EEENS5_IS8_EEE10value_compB8ue170006Ev, symObjAddr: 0x28460, symBinAddr: 0x10002B354, symSize: 0x28 }
  - { offsetInCU: 0x522B6, offset: 0x522B6, size: 0x8, addend: 0x0, symName: __ZNSt3__16__treeINS_12__value_typeINS_12basic_stringIcNS_11char_traitsIcEENS_9allocatorIcEEEElEENS_19__map_value_compareIS7_S8_NS_4lessIS7_EELb1EEENS5_IS8_EEE19__copy_assign_allocB8ue170006ERKSE_, symObjAddr: 0x28488, symBinAddr: 0x10002B37C, symSize: 0x2C }
  - { offsetInCU: 0x522EB, offset: 0x522EB, size: 0x8, addend: 0x0, symName: __ZNSt3__16__treeINS_12__value_typeINS_12basic_stringIcNS_11char_traitsIcEENS_9allocatorIcEEEElEENS_19__map_value_compareIS7_S8_NS_4lessIS7_EELb1EEENS5_IS8_EEE14__assign_multiINS_21__tree_const_iteratorIS8_PNS_11__tree_nodeIS8_PvEElEEEEvT_SM_, symObjAddr: 0x284B4, symBinAddr: 0x10002B3A8, symSize: 0x178 }
  - { offsetInCU: 0x5234F, offset: 0x5234F, size: 0x8, addend: 0x0, symName: __ZNKSt3__16__treeINS_12__value_typeINS_12basic_stringIcNS_11char_traitsIcEENS_9allocatorIcEEEElEENS_19__map_value_compareIS7_S8_NS_4lessIS7_EELb1EEENS5_IS8_EEE5beginB8ue170006Ev, symObjAddr: 0x2862C, symBinAddr: 0x10002B520, symSize: 0x34 }
  - { offsetInCU: 0x52375, offset: 0x52375, size: 0x8, addend: 0x0, symName: __ZNKSt3__16__treeINS_12__value_typeINS_12basic_stringIcNS_11char_traitsIcEENS_9allocatorIcEEEElEENS_19__map_value_compareIS7_S8_NS_4lessIS7_EELb1EEENS5_IS8_EEE3endB8ue170006Ev, symObjAddr: 0x28660, symBinAddr: 0x10002B554, symSize: 0x34 }
  - { offsetInCU: 0x5239B, offset: 0x5239B, size: 0x8, addend: 0x0, symName: __ZNKSt3__117__compressed_pairImNS_19__map_value_compareINS_12basic_stringIcNS_11char_traitsIcEENS_9allocatorIcEEEENS_12__value_typeIS7_lEENS_4lessIS7_EELb1EEEE6secondB8ue170006Ev, symObjAddr: 0x28694, symBinAddr: 0x10002B588, symSize: 0x24 }
  - { offsetInCU: 0x523C1, offset: 0x523C1, size: 0x8, addend: 0x0, symName: __ZNKSt3__122__compressed_pair_elemINS_19__map_value_compareINS_12basic_stringIcNS_11char_traitsIcEENS_9allocatorIcEEEENS_12__value_typeIS7_lEENS_4lessIS7_EELb1EEELi1ELb1EE5__getB8ue170006Ev, symObjAddr: 0x286B8, symBinAddr: 0x10002B5AC, symSize: 0x14 }
  - { offsetInCU: 0x523E7, offset: 0x523E7, size: 0x8, addend: 0x0, symName: __ZNSt3__117__compressed_pairImNS_19__map_value_compareINS_12basic_stringIcNS_11char_traitsIcEENS_9allocatorIcEEEENS_12__value_typeIS7_lEENS_4lessIS7_EELb1EEEE6secondB8ue170006Ev, symObjAddr: 0x286CC, symBinAddr: 0x10002B5C0, symSize: 0x24 }
  - { offsetInCU: 0x5240D, offset: 0x5240D, size: 0x8, addend: 0x0, symName: __ZNSt3__122__compressed_pair_elemINS_19__map_value_compareINS_12basic_stringIcNS_11char_traitsIcEENS_9allocatorIcEEEENS_12__value_typeIS7_lEENS_4lessIS7_EELb1EEELi1ELb1EE5__getB8ue170006Ev, symObjAddr: 0x286F0, symBinAddr: 0x10002B5E4, symSize: 0x14 }
  - { offsetInCU: 0x52433, offset: 0x52433, size: 0x8, addend: 0x0, symName: __ZNSt3__16__treeINS_12__value_typeINS_12basic_stringIcNS_11char_traitsIcEENS_9allocatorIcEEEElEENS_19__map_value_compareIS7_S8_NS_4lessIS7_EELb1EEENS5_IS8_EEE19__copy_assign_allocB8ue170006ERKSE_NS_17integral_constantIbLb0EEE, symObjAddr: 0x28704, symBinAddr: 0x10002B5F8, symSize: 0x14 }
  - { offsetInCU: 0x52493, offset: 0x52493, size: 0x8, addend: 0x0, symName: __ZNSt3__16__treeINS_12__value_typeINS_12basic_stringIcNS_11char_traitsIcEENS_9allocatorIcEEEElEENS_19__map_value_compareIS7_S8_NS_4lessIS7_EELb1EEENS5_IS8_EEE18_DetachedTreeCacheC1B8ue170006EPSE_, symObjAddr: 0x28718, symBinAddr: 0x10002B60C, symSize: 0x34 }
  - { offsetInCU: 0x524CC, offset: 0x524CC, size: 0x8, addend: 0x0, symName: __ZNKSt3__16__treeINS_12__value_typeINS_12basic_stringIcNS_11char_traitsIcEENS_9allocatorIcEEEElEENS_19__map_value_compareIS7_S8_NS_4lessIS7_EELb1EEENS5_IS8_EEE18_DetachedTreeCache5__getB8ue170006Ev, symObjAddr: 0x2874C, symBinAddr: 0x10002B640, symSize: 0x18 }
  - { offsetInCU: 0x524F2, offset: 0x524F2, size: 0x8, addend: 0x0, symName: __ZNKSt3__121__tree_const_iteratorINS_12__value_typeINS_12basic_stringIcNS_11char_traitsIcEENS_9allocatorIcEEEElEEPNS_11__tree_nodeIS8_PvEElEdeB8ue170006Ev, symObjAddr: 0x28798, symBinAddr: 0x10002B68C, symSize: 0x28 }
  - { offsetInCU: 0x52518, offset: 0x52518, size: 0x8, addend: 0x0, symName: __ZNSt3__112__value_typeINS_12basic_stringIcNS_11char_traitsIcEENS_9allocatorIcEEEElEaSB8ue170006ERKS7_, symObjAddr: 0x287C0, symBinAddr: 0x10002B6B4, symSize: 0x60 }
  - { offsetInCU: 0x5254D, offset: 0x5254D, size: 0x8, addend: 0x0, symName: __ZNSt3__16__treeINS_12__value_typeINS_12basic_stringIcNS_11char_traitsIcEENS_9allocatorIcEEEElEENS_19__map_value_compareIS7_S8_NS_4lessIS7_EELb1EEENS5_IS8_EEE19__node_insert_multiEPNS_11__tree_nodeIS8_PvEE, symObjAddr: 0x28820, symBinAddr: 0x10002B714, symSize: 0x70 }
  - { offsetInCU: 0x525A2, offset: 0x525A2, size: 0x8, addend: 0x0, symName: __ZNSt3__16__treeINS_12__value_typeINS_12basic_stringIcNS_11char_traitsIcEENS_9allocatorIcEEEElEENS_19__map_value_compareIS7_S8_NS_4lessIS7_EELb1EEENS5_IS8_EEE18_DetachedTreeCache9__advanceB8ue170006Ev, symObjAddr: 0x28890, symBinAddr: 0x10002B784, symSize: 0x58 }
  - { offsetInCU: 0x525C8, offset: 0x525C8, size: 0x8, addend: 0x0, symName: __ZNSt3__121__tree_const_iteratorINS_12__value_typeINS_12basic_stringIcNS_11char_traitsIcEENS_9allocatorIcEEEElEEPNS_11__tree_nodeIS8_PvEElEppB8ue170006Ev, symObjAddr: 0x288E8, symBinAddr: 0x10002B7DC, symSize: 0x38 }
  - { offsetInCU: 0x525EE, offset: 0x525EE, size: 0x8, addend: 0x0, symName: __ZNSt3__16__treeINS_12__value_typeINS_12basic_stringIcNS_11char_traitsIcEENS_9allocatorIcEEEElEENS_19__map_value_compareIS7_S8_NS_4lessIS7_EELb1EEENS5_IS8_EEE18_DetachedTreeCacheD1B8ue170006Ev, symObjAddr: 0x28920, symBinAddr: 0x10002B814, symSize: 0x2C }
  - { offsetInCU: 0x52618, offset: 0x52618, size: 0x8, addend: 0x0, symName: __ZNSt3__16__treeINS_12__value_typeINS_12basic_stringIcNS_11char_traitsIcEENS_9allocatorIcEEEElEENS_19__map_value_compareIS7_S8_NS_4lessIS7_EELb1EEENS5_IS8_EEE14__insert_multiB8ue170006IRKNS_4pairIKS7_lEEEENS_15__tree_iteratorIS8_PNS_11__tree_nodeIS8_PvEElEEOT_, symObjAddr: 0x2894C, symBinAddr: 0x10002B840, symSize: 0x34 }
  - { offsetInCU: 0x52656, offset: 0x52656, size: 0x8, addend: 0x0, symName: __ZNSt3__122__tree_key_value_typesINS_12__value_typeINS_12basic_stringIcNS_11char_traitsIcEENS_9allocatorIcEEEElEEE11__get_valueB8ue170006ERKS8_, symObjAddr: 0x28980, symBinAddr: 0x10002B874, symSize: 0x24 }
  - { offsetInCU: 0x5267A, offset: 0x5267A, size: 0x8, addend: 0x0, symName: __ZNSt3__16__treeINS_12__value_typeINS_12basic_stringIcNS_11char_traitsIcEENS_9allocatorIcEEEElEENS_19__map_value_compareIS7_S8_NS_4lessIS7_EELb1EEENS5_IS8_EEE18_DetachedTreeCacheC2B8ue170006EPSE_, symObjAddr: 0x289A4, symBinAddr: 0x10002B898, symSize: 0x4C }
  - { offsetInCU: 0x526B3, offset: 0x526B3, size: 0x8, addend: 0x0, symName: __ZNSt3__16__treeINS_12__value_typeINS_12basic_stringIcNS_11char_traitsIcEENS_9allocatorIcEEEElEENS_19__map_value_compareIS7_S8_NS_4lessIS7_EELb1EEENS5_IS8_EEE18_DetachedTreeCache18__detach_from_treeEPSE_, symObjAddr: 0x289F0, symBinAddr: 0x10002B8E4, symSize: 0xA0 }
  - { offsetInCU: 0x526E8, offset: 0x526E8, size: 0x8, addend: 0x0, symName: __ZNKSt3__121__tree_const_iteratorINS_12__value_typeINS_12basic_stringIcNS_11char_traitsIcEENS_9allocatorIcEEEElEEPNS_11__tree_nodeIS8_PvEElE8__get_npB8ue170006Ev, symObjAddr: 0x28AC0, symBinAddr: 0x10002B9B4, symSize: 0x18 }
  - { offsetInCU: 0x5270E, offset: 0x5270E, size: 0x8, addend: 0x0, symName: __ZNKSt3__112__value_typeINS_12basic_stringIcNS_11char_traitsIcEENS_9allocatorIcEEEElE11__get_valueB8ue170006Ev, symObjAddr: 0x28AD8, symBinAddr: 0x10002B9CC, symSize: 0x14 }
  - { offsetInCU: 0x52734, offset: 0x52734, size: 0x8, addend: 0x0, symName: __ZNSt3__112__value_typeINS_12basic_stringIcNS_11char_traitsIcEENS_9allocatorIcEEEElE5__refB8ue170006Ev, symObjAddr: 0x28AEC, symBinAddr: 0x10002B9E0, symSize: 0x44 }
  - { offsetInCU: 0x52769, offset: 0x52769, size: 0x8, addend: 0x0, symName: __ZNSt3__14pairIRNS_12basic_stringIcNS_11char_traitsIcEENS_9allocatorIcEEEERlEaSB8ue170006IKS6_lLPv0EEERS9_RKNS0_IT_T0_EE, symObjAddr: 0x28B30, symBinAddr: 0x10002BA24, symSize: 0x48 }
  - { offsetInCU: 0x527B6, offset: 0x527B6, size: 0x8, addend: 0x0, symName: __ZNSt3__14pairIRNS_12basic_stringIcNS_11char_traitsIcEENS_9allocatorIcEEEERlEC1B8ue170006ILb1ELPv0EEES7_S8_, symObjAddr: 0x28B78, symBinAddr: 0x10002BA6C, symSize: 0x3C }
  - { offsetInCU: 0x5280C, offset: 0x5280C, size: 0x8, addend: 0x0, symName: __ZNSt3__14pairIRNS_12basic_stringIcNS_11char_traitsIcEENS_9allocatorIcEEEERlEC2B8ue170006ILb1ELPv0EEES7_S8_, symObjAddr: 0x28BB4, symBinAddr: 0x10002BAA8, symSize: 0x2C }
  - { offsetInCU: 0x52862, offset: 0x52862, size: 0x8, addend: 0x0, symName: __ZNSt3__16__treeINS_12__value_typeINS_12basic_stringIcNS_11char_traitsIcEENS_9allocatorIcEEEElEENS_19__map_value_compareIS7_S8_NS_4lessIS7_EELb1EEENS5_IS8_EEE16__find_leaf_highERPNS_15__tree_end_nodeIPNS_16__tree_node_baseIPvEEEERKS7_, symObjAddr: 0x28BE0, symBinAddr: 0x10002BAD4, symSize: 0x124 }
  - { offsetInCU: 0x528B7, offset: 0x528B7, size: 0x8, addend: 0x0, symName: __ZNSt3__122__tree_key_value_typesINS_12__value_typeINS_12basic_stringIcNS_11char_traitsIcEENS_9allocatorIcEEEElEEE9__get_keyB8ue170006ERKS8_, symObjAddr: 0x28D04, symBinAddr: 0x10002BBF8, symSize: 0x24 }
  - { offsetInCU: 0x528DB, offset: 0x528DB, size: 0x8, addend: 0x0, symName: __ZNSt3__16__treeINS_12__value_typeINS_12basic_stringIcNS_11char_traitsIcEENS_9allocatorIcEEEElEENS_19__map_value_compareIS7_S8_NS_4lessIS7_EELb1EEENS5_IS8_EEE16__insert_node_atEPNS_15__tree_end_nodeIPNS_16__tree_node_baseIPvEEEERSJ_SJ_, symObjAddr: 0x28D28, symBinAddr: 0x10002BC1C, symSize: 0xCC }
  - { offsetInCU: 0x52930, offset: 0x52930, size: 0x8, addend: 0x0, symName: __ZNSt3__115__tree_iteratorINS_12__value_typeINS_12basic_stringIcNS_11char_traitsIcEENS_9allocatorIcEEEElEEPNS_11__tree_nodeIS8_PvEElEC1B8ue170006ESC_, symObjAddr: 0x28DF4, symBinAddr: 0x10002BCE8, symSize: 0x34 }
  - { offsetInCU: 0x52969, offset: 0x52969, size: 0x8, addend: 0x0, symName: __ZNKSt3__119__map_value_compareINS_12basic_stringIcNS_11char_traitsIcEENS_9allocatorIcEEEENS_12__value_typeIS6_lEENS_4lessIS6_EELb1EEclB8ue170006ERKS6_RKS8_, symObjAddr: 0x28E28, symBinAddr: 0x10002BD1C, symSize: 0x50 }
  - { offsetInCU: 0x529AD, offset: 0x529AD, size: 0x8, addend: 0x0, symName: __ZNSt3__115__tree_iteratorINS_12__value_typeINS_12basic_stringIcNS_11char_traitsIcEENS_9allocatorIcEEEElEEPNS_11__tree_nodeIS8_PvEElEC2B8ue170006ESC_, symObjAddr: 0x28E78, symBinAddr: 0x10002BD6C, symSize: 0x20 }
  - { offsetInCU: 0x529E6, offset: 0x529E6, size: 0x8, addend: 0x0, symName: __ZNSt3__16__treeINS_12__value_typeINS_12basic_stringIcNS_11char_traitsIcEENS_9allocatorIcEEEElEENS_19__map_value_compareIS7_S8_NS_4lessIS7_EELb1EEENS5_IS8_EEE18_DetachedTreeCache13__detach_nextEPNS_11__tree_nodeIS8_PvEE, symObjAddr: 0x28E98, symBinAddr: 0x10002BD8C, symSize: 0xF0 }
  - { offsetInCU: 0x52A0C, offset: 0x52A0C, size: 0x8, addend: 0x0, symName: __ZNSt3__16__treeINS_12__value_typeINS_12basic_stringIcNS_11char_traitsIcEENS_9allocatorIcEEEElEENS_19__map_value_compareIS7_S8_NS_4lessIS7_EELb1EEENS5_IS8_EEE18_DetachedTreeCacheD2B8ue170006Ev, symObjAddr: 0x28FF8, symBinAddr: 0x10002BEEC, symSize: 0x9C }
  - { offsetInCU: 0x52A36, offset: 0x52A36, size: 0x8, addend: 0x0, symName: __ZNSt3__16__treeINS_12__value_typeINS_12basic_stringIcNS_11char_traitsIcEENS_9allocatorIcEEEElEENS_19__map_value_compareIS7_S8_NS_4lessIS7_EELb1EEENS5_IS8_EEE15__emplace_multiIJRKNS_4pairIKS7_lEEEEENS_15__tree_iteratorIS8_PNS_11__tree_nodeIS8_PvEElEEDpOT_, symObjAddr: 0x29094, symBinAddr: 0x10002BF88, symSize: 0xD8 }
  - { offsetInCU: 0x52AA6, offset: 0x52AA6, size: 0x8, addend: 0x0, symName: __ZNSt3__16__treeINS_12__value_typeINS_12basic_stringIcNS_11char_traitsIcEENS_9allocatorIcEEEElEENS_19__map_value_compareIS7_S8_NS_4lessIS7_EELb1EEENS5_IS8_EEE16__construct_nodeIJRKNS_4pairIKS7_lEEEEENS_10unique_ptrINS_11__tree_nodeIS8_PvEENS_22__tree_node_destructorINS5_ISO_EEEEEEDpOT_, symObjAddr: 0x2916C, symBinAddr: 0x10002C060, symSize: 0x110 }
  - { offsetInCU: 0x52B07, offset: 0x52B07, size: 0x8, addend: 0x0, symName: __ZNKSt3__110unique_ptrINS_11__tree_nodeINS_12__value_typeINS_12basic_stringIcNS_11char_traitsIcEENS_9allocatorIcEEEElEEPvEENS_22__tree_node_destructorINS6_ISB_EEEEEptB8ue170006Ev, symObjAddr: 0x2927C, symBinAddr: 0x10002C170, symSize: 0x28 }
  - { offsetInCU: 0x52B2D, offset: 0x52B2D, size: 0x8, addend: 0x0, symName: __ZNKSt3__110unique_ptrINS_11__tree_nodeINS_12__value_typeINS_12basic_stringIcNS_11char_traitsIcEENS_9allocatorIcEEEElEEPvEENS_22__tree_node_destructorINS6_ISB_EEEEE3getB8ue170006Ev, symObjAddr: 0x292A4, symBinAddr: 0x10002C198, symSize: 0x28 }
  - { offsetInCU: 0x52B53, offset: 0x52B53, size: 0x8, addend: 0x0, symName: __ZNSt3__110unique_ptrINS_11__tree_nodeINS_12__value_typeINS_12basic_stringIcNS_11char_traitsIcEENS_9allocatorIcEEEElEEPvEENS_22__tree_node_destructorINS6_ISB_EEEEE7releaseB8ue170006Ev, symObjAddr: 0x292CC, symBinAddr: 0x10002C1C0, symSize: 0x44 }
  - { offsetInCU: 0x52B88, offset: 0x52B88, size: 0x8, addend: 0x0, symName: __ZNSt3__110unique_ptrINS_11__tree_nodeINS_12__value_typeINS_12basic_stringIcNS_11char_traitsIcEENS_9allocatorIcEEEElEEPvEENS_22__tree_node_destructorINS6_ISB_EEEEED1B8ue170006Ev, symObjAddr: 0x29310, symBinAddr: 0x10002C204, symSize: 0x2C }
  - { offsetInCU: 0x52BB2, offset: 0x52BB2, size: 0x8, addend: 0x0, symName: __ZNSt3__116allocator_traitsINS_9allocatorINS_11__tree_nodeINS_12__value_typeINS_12basic_stringIcNS_11char_traitsIcEENS1_IcEEEElEEPvEEEEE8allocateB8ue170006ERSC_m, symObjAddr: 0x2933C, symBinAddr: 0x10002C230, symSize: 0x2C }
  - { offsetInCU: 0x52BE5, offset: 0x52BE5, size: 0x8, addend: 0x0, symName: __ZNSt3__122__tree_node_destructorINS_9allocatorINS_11__tree_nodeINS_12__value_typeINS_12basic_stringIcNS_11char_traitsIcEENS1_IcEEEElEEPvEEEEEC1B8ue170006ERSC_b, symObjAddr: 0x29368, symBinAddr: 0x10002C25C, symSize: 0x48 }
  - { offsetInCU: 0x52C33, offset: 0x52C33, size: 0x8, addend: 0x0, symName: __ZNSt3__110unique_ptrINS_11__tree_nodeINS_12__value_typeINS_12basic_stringIcNS_11char_traitsIcEENS_9allocatorIcEEEElEEPvEENS_22__tree_node_destructorINS6_ISB_EEEEEC1B8ue170006ILb1EvEEPSB_NS_16__dependent_typeINS_27__unique_ptr_deleter_sfinaeISE_EEXT_EE20__good_rval_ref_typeE, symObjAddr: 0x293B0, symBinAddr: 0x10002C2A4, symSize: 0x3C }
  - { offsetInCU: 0x52C84, offset: 0x52C84, size: 0x8, addend: 0x0, symName: __ZNSt3__116allocator_traitsINS_9allocatorINS_11__tree_nodeINS_12__value_typeINS_12basic_stringIcNS_11char_traitsIcEENS1_IcEEEElEEPvEEEEE9constructB8ue170006INS_4pairIKS8_lEEJRKSH_EvEEvRSC_PT_DpOT0_, symObjAddr: 0x293EC, symBinAddr: 0x10002C2E0, symSize: 0x34 }
  - { offsetInCU: 0x52CDB, offset: 0x52CDB, size: 0x8, addend: 0x0, symName: __ZNSt3__110unique_ptrINS_11__tree_nodeINS_12__value_typeINS_12basic_stringIcNS_11char_traitsIcEENS_9allocatorIcEEEElEEPvEENS_22__tree_node_destructorINS6_ISB_EEEEE11get_deleterB8ue170006Ev, symObjAddr: 0x29420, symBinAddr: 0x10002C314, symSize: 0x24 }
  - { offsetInCU: 0x52D01, offset: 0x52D01, size: 0x8, addend: 0x0, symName: __ZNSt3__19allocatorINS_11__tree_nodeINS_12__value_typeINS_12basic_stringIcNS_11char_traitsIcEENS0_IcEEEElEEPvEEE8allocateB8ue170006Em, symObjAddr: 0x29444, symBinAddr: 0x10002C338, symSize: 0x58 }
  - { offsetInCU: 0x52D41, offset: 0x52D41, size: 0x8, addend: 0x0, symName: __ZNSt3__116allocator_traitsINS_9allocatorINS_11__tree_nodeINS_12__value_typeINS_12basic_stringIcNS_11char_traitsIcEENS1_IcEEEElEEPvEEEEE8max_sizeB8ue170006ISC_vEEmRKSC_, symObjAddr: 0x2949C, symBinAddr: 0x10002C390, symSize: 0x24 }
  - { offsetInCU: 0x52D6F, offset: 0x52D6F, size: 0x8, addend: 0x0, symName: __ZNKSt3__19allocatorINS_11__tree_nodeINS_12__value_typeINS_12basic_stringIcNS_11char_traitsIcEENS0_IcEEEElEEPvEEE8max_sizeB8ue170006Ev, symObjAddr: 0x294C0, symBinAddr: 0x10002C3B4, symSize: 0x14 }
  - { offsetInCU: 0x52D95, offset: 0x52D95, size: 0x8, addend: 0x0, symName: __ZNSt3__122__tree_node_destructorINS_9allocatorINS_11__tree_nodeINS_12__value_typeINS_12basic_stringIcNS_11char_traitsIcEENS1_IcEEEElEEPvEEEEEC2B8ue170006ERSC_b, symObjAddr: 0x294D4, symBinAddr: 0x10002C3C8, symSize: 0x38 }
  - { offsetInCU: 0x52DDD, offset: 0x52DDD, size: 0x8, addend: 0x0, symName: __ZNSt3__110unique_ptrINS_11__tree_nodeINS_12__value_typeINS_12basic_stringIcNS_11char_traitsIcEENS_9allocatorIcEEEElEEPvEENS_22__tree_node_destructorINS6_ISB_EEEEEC2B8ue170006ILb1EvEEPSB_NS_16__dependent_typeINS_27__unique_ptr_deleter_sfinaeISE_EEXT_EE20__good_rval_ref_typeE, symObjAddr: 0x2950C, symBinAddr: 0x10002C400, symSize: 0x48 }
  - { offsetInCU: 0x52E2E, offset: 0x52E2E, size: 0x8, addend: 0x0, symName: __ZNSt3__117__compressed_pairIPNS_11__tree_nodeINS_12__value_typeINS_12basic_stringIcNS_11char_traitsIcEENS_9allocatorIcEEEElEEPvEENS_22__tree_node_destructorINS6_ISB_EEEEEC1B8ue170006IRSC_SF_EEOT_OT0_, symObjAddr: 0x29554, symBinAddr: 0x10002C448, symSize: 0x3C }
  - { offsetInCU: 0x52E86, offset: 0x52E86, size: 0x8, addend: 0x0, symName: __ZNSt3__117__compressed_pairIPNS_11__tree_nodeINS_12__value_typeINS_12basic_stringIcNS_11char_traitsIcEENS_9allocatorIcEEEElEEPvEENS_22__tree_node_destructorINS6_ISB_EEEEEC2B8ue170006IRSC_SF_EEOT_OT0_, symObjAddr: 0x29590, symBinAddr: 0x10002C484, symSize: 0x48 }
  - { offsetInCU: 0x52EDE, offset: 0x52EDE, size: 0x8, addend: 0x0, symName: __ZNSt3__122__compressed_pair_elemIPNS_11__tree_nodeINS_12__value_typeINS_12basic_stringIcNS_11char_traitsIcEENS_9allocatorIcEEEElEEPvEELi0ELb0EEC2B8ue170006IRSC_vEEOT_, symObjAddr: 0x295D8, symBinAddr: 0x10002C4CC, symSize: 0x24 }
  - { offsetInCU: 0x52F20, offset: 0x52F20, size: 0x8, addend: 0x0, symName: __ZNSt3__122__compressed_pair_elemINS_22__tree_node_destructorINS_9allocatorINS_11__tree_nodeINS_12__value_typeINS_12basic_stringIcNS_11char_traitsIcEENS2_IcEEEElEEPvEEEEEELi1ELb0EEC2B8ue170006ISE_vEEOT_, symObjAddr: 0x295FC, symBinAddr: 0x10002C4F0, symSize: 0x24 }
  - { offsetInCU: 0x52F62, offset: 0x52F62, size: 0x8, addend: 0x0, symName: __ZNSt3__19allocatorINS_11__tree_nodeINS_12__value_typeINS_12basic_stringIcNS_11char_traitsIcEENS0_IcEEEElEEPvEEE9constructB8ue170006INS_4pairIKS7_lEEJRKSF_EEEvPT_DpOT0_, symObjAddr: 0x29620, symBinAddr: 0x10002C514, symSize: 0x30 }
  - { offsetInCU: 0x52FB8, offset: 0x52FB8, size: 0x8, addend: 0x0, symName: __ZNSt3__14pairIKNS_12basic_stringIcNS_11char_traitsIcEENS_9allocatorIcEEEElEC1B8ue170006ERKS8_, symObjAddr: 0x29650, symBinAddr: 0x10002C544, symSize: 0x34 }
  - { offsetInCU: 0x52FEC, offset: 0x52FEC, size: 0x8, addend: 0x0, symName: __ZNSt3__14pairIKNS_12basic_stringIcNS_11char_traitsIcEENS_9allocatorIcEEEElEC2B8ue170006ERKS8_, symObjAddr: 0x29684, symBinAddr: 0x10002C578, symSize: 0x40 }
